
target/arm-none-eabihf/debug/nox:	file format elf32-littlearm

architecture: arm
start address: 0x00008000

Program Header:
    LOAD off    0x00000000 vaddr 0x00000000 paddr 0x00000000 align 2**16
         filesz 0x00016a2c memsz 0x00016a2c flags r-x
   STACK off    0x00000000 vaddr 0x00000000 paddr 0x00000000 align 2**4
         filesz 0x00000000 memsz 0x00000000 flags rw-

Dynamic Section:
Sections:
Idx Name                                                                                                                                                                                                               Size     VMA      Type
  0                                                                                                                                                                                                                    00000000 00000000 
  1 .text                                                                                                                                                                                                              0000c6cc 00008000 TEXT
  2 .rodata                                                                                                                                                                                                            00001a24 00015000 DATA
  3 .ARM.exidx.text.rust_begin_unwind                                                                                                                                                                                  00000008 00016a24 
  4 .ARM.exidx.text._ZN3nox7println17hc70cef11652a5ddbE                                                                                                                                                                00000000 00016a2c 
  5 .ARM.exidx.text._rmain                                                                                                                                                                                             00000000 00016a2c 
  6 .ARM.exidx.text._ZN4core3str21_$LT$impl$u20$str$GT$3len17h4b2f759e4820fcddE                                                                                                                                        00000000 00016a2c 
  7 .ARM.exidx.text.gpio_set_function                                                                                                                                                                                  00000000 00016a2c 
  8 .ARM.exidx.text.gpio_set_uart_func                                                                                                                                                                                 00000000 00016a2c 
  9 .ARM.exidx.text.gpio_set_output                                                                                                                                                                                    00000000 00016a2c 
 10 .ARM.exidx.text.gpio_set_on                                                                                                                                                                                        00000000 00016a2c 
 11 .ARM.exidx.text.gpio_set_off                                                                                                                                                                                       00000000 00016a2c 
 12 .ARM.exidx.text.blink                                                                                                                                                                                              00000000 00016a2c 
 13 .ARM.exidx.text._ZN3nox4gpio7blink_n17hf03cd1aace8836ceE                                                                                                                                                           00000000 00016a2c 
 14 .ARM.exidx.text._ZN3nox3rpi3nop17h17a184a1429c0195E                                                                                                                                                                00000000 00016a2c 
 15 .ARM.exidx.text._ZN3nox3rpi11dev_barrier17h975e80648f521b27E                                                                                                                                                       00000000 00016a2c 
 16 .ARM.exidx.text._ZN3nox5timer14timer_get_usec17h38c1b05a309f0ae9E                                                                                                                                                  00000000 00016a2c 
 17 .ARM.exidx.text._ZN3nox5timer8delay_us17h916266004d856edeE                                                                                                                                                         00000000 00016a2c 
 18 .ARM.exidx.text._ZN3nox5timer8delay_ms17hb640b6cf54805f53E                                                                                                                                                         00000000 00016a2c 
 19 .ARM.exidx.text.uart_init                                                                                                                                                                                          00000000 00016a2c 
 20 .ARM.exidx.text.tx_space_available                                                                                                                                                                                 00000000 00016a2c 
 21 .ARM.exidx.text.write_byte                                                                                                                                                                                         00000000 00016a2c 
 22 .ARM.exidx.text.boot_put32                                                                                                                                                                                         00000000 00016a2c 
 23 .ARM.exidx.text.reboot                                                                                                                                                                                             00000000 00016a2c 
 24 .ARM.exidx.text._ZN4core3mem7replace17h2a549129a5a79e26E                                                                                                                                                           00000000 00016a2c 
 25 .ARM.exidx.text._ZN4core3mem7replace17h3311c6cdb7da9ee6E                                                                                                                                                           00000000 00016a2c 
 26 .ARM.exidx.text._ZN4core3ptr4read17h36e834a5b2ca12d7E                                                                                                                                                              00000000 00016a2c 
 27 .ARM.exidx.text._ZN4core3ptr4read17h93906c1c0cfe7984E                                                                                                                                                              00000000 00016a2c 
 28 .ARM.exidx.text._ZN4core3ptr5write17h2e094ae3f238e065E                                                                                                                                                             00000000 00016a2c 
 29 .ARM.exidx.text._ZN4core3ptr5write17hf477ee493ee8bacaE                                                                                                                                                             00000000 00016a2c 
 30 .ARM.exidx.text._ZN50_$LT$T$u20$as$u20$core..convert..Into$LT$U$GT$$GT$4into17ha4c31a43baa65c7bE                                                                                                                   00000000 00016a2c 
 31 .ARM.exidx.text._ZN89_$LT$core..ops..range..Range$LT$T$GT$$u20$as$u20$core..iter..range..RangeIteratorImpl$GT$9spec_next17hda26481f890a5fd6E                                                                       00000000 00016a2c 
 32 .ARM.exidx.text._ZN89_$LT$core..ops..range..Range$LT$T$GT$$u20$as$u20$core..iter..range..RangeIteratorImpl$GT$9spec_next17hff9691de6daba183E                                                                       00000000 00016a2c 
 33 .ARM.exidx.text._ZN4core4iter5range101_$LT$impl$u20$core..iter..traits..iterator..Iterator$u20$for$u20$core..ops..range..Range$LT$A$GT$$GT$4next17h8b788d2f259818c9E                                               00000000 00016a2c 
 34 .ARM.exidx.text._ZN4core4iter5range101_$LT$impl$u20$core..iter..traits..iterator..Iterator$u20$for$u20$core..ops..range..Range$LT$A$GT$$GT$4next17hce08b9d3072f1ae7E                                               00000000 00016a2c 
 35 .ARM.exidx.text._ZN63_$LT$I$u20$as$u20$core..iter..traits..collect..IntoIterator$GT$9into_iter17hb497da6472b3af60E                                                                                                 00000000 00016a2c 
 36 .ARM.exidx.text._ZN63_$LT$I$u20$as$u20$core..iter..traits..collect..IntoIterator$GT$9into_iter17hb6d6cd24592f553eE                                                                                                 00000000 00016a2c 
 37 .ARM.exidx.text._ZN4core5clone5impls52_$LT$impl$u20$core..clone..Clone$u20$for$u20$u32$GT$5clone17h5e0109765ee16457E                                                                                               00000000 00016a2c 
 38 .ARM.exidx.text._ZN4core5clone5impls52_$LT$impl$u20$core..clone..Clone$u20$for$u20$i32$GT$5clone17hebcf0f3ee497b849E                                                                                               00000000 00016a2c 
 39 .ARM.exidx.text._ZN4core3cmp5impls55_$LT$impl$u20$core..cmp..PartialOrd$u20$for$u20$u32$GT$2lt17h2b7fc589dc418b15E                                                                                                 00000000 00016a2c 
 40 .ARM.exidx.text._ZN4core3cmp5impls55_$LT$impl$u20$core..cmp..PartialOrd$u20$for$u20$i32$GT$2lt17hce9a9fd1a84b56daE                                                                                                 00000000 00016a2c 
 41 .ARM.exidx.text._ZN4core7convert3num63_$LT$impl$u20$core..convert..From$LT$u8$GT$$u20$for$u20$u32$GT$4from17ha5d75d29dd56cfafE                                                                                     00000000 00016a2c 
 42 .ARM.exidx.text._ZN47_$LT$u32$u20$as$u20$core..iter..range..Step$GT$17forward_unchecked17h7320daeaeed6d3dcE                                                                                                        00000000 00016a2c 
 43 .ARM.exidx.text._ZN47_$LT$i32$u20$as$u20$core..iter..range..Step$GT$17forward_unchecked17h1a629ec05f83e395E                                                                                                        00000000 00016a2c 
 44 .ARM.exidx.text._ZN4core3ops8function6FnOnce9call_once17h02077f446692cad1E                                                                                                                                         00000000 00016a2c 
 45 .ARM.exidx.text._ZN4core3ops8function6FnOnce9call_once17h0b830900cfc8e13fE                                                                                                                                         00000000 00016a2c 
 46 .ARM.exidx.text._ZN4core3ops8function6FnOnce9call_once17h10c329ac813edc41E                                                                                                                                         00000000 00016a2c 
 47 .ARM.exidx.text._ZN4core3ops8function6FnOnce9call_once17h652a5010643b2035E                                                                                                                                         00000000 00016a2c 
 48 .ARM.exidx.text._ZN4core3ops8function6FnOnce9call_once17had4262aec2f581dfE                                                                                                                                         00000000 00016a2c 
 49 .ARM.exidx.text._ZN4core3ops8function6FnOnce9call_once17hca23baf9ed158dd8E                                                                                                                                         00000000 00016a2c 
 50 .ARM.exidx.text._ZN4core3ops8function6FnOnce9call_once17hd97bd0814c696285E                                                                                                                                         00000000 00016a2c 
 51 .ARM.exidx.text._ZN4core3ops8function6FnOnce9call_once17hef1f5979641ae403E                                                                                                                                         00000000 00016a2c 
 52 .ARM.exidx.text._ZN4core3ptr30drop_in_place$LT$$RF$usize$GT$17h7f854e86168e2e61E                                                                                                                                   00000000 00016a2c 
 53 .ARM.exidx.text._ZN4core3ptr88drop_in_place$LT$core..panic..panic_info..PanicInfo..internal_constructor..NoPayload$GT$17hec2b155977c27d61E                                                                         00000000 00016a2c 
 54 .ARM.exidx.text._ZN4core3num20_$LT$impl$u20$u8$GT$21is_utf8_char_boundary17h9c9d7c574f60edcfE                                                                                                                      00000000 00016a2c 
 55 .ARM.exidx.text._ZN4core4hint21unreachable_unchecked17h18b8e30063cbc1c9E                                                                                                                                           00000000 00016a2c 
 56 .ARM.exidx.text._ZN4core10intrinsics23is_aligned_and_not_null17h1cf92320775c1a7bE                                                                                                                                  00000000 00016a2c 
 57 .ARM.exidx.text._ZN4core10intrinsics23is_aligned_and_not_null17h6209c0cd9c9d888aE                                                                                                                                  00000000 00016a2c 
 58 .ARM.exidx.text._ZN4core10intrinsics23is_aligned_and_not_null17hcdf3ab3f95013724E                                                                                                                                  00000000 00016a2c 
 59 .ARM.exidx.text._ZN4core10intrinsics17is_nonoverlapping17hb33c400eb01e2e83E                                                                                                                                        00000000 00016a2c 
 60 .ARM.exidx.text._ZN4core10intrinsics17is_nonoverlapping17hbdfdb020c59df781E                                                                                                                                        00000000 00016a2c 
 61 .ARM.exidx.text._ZN4core10intrinsics19copy_nonoverlapping17h0629c929e1c61b12E                                                                                                                                      00000000 00016a2c 
 62 .ARM.exidx.text._ZN4core10intrinsics19copy_nonoverlapping17hb935fbdf8fc9b991E                                                                                                                                      00000000 00016a2c 
 63 .ARM.exidx.text._ZN4core10intrinsics19copy_nonoverlapping13runtime_check17h04ce58f9c314a303E                                                                                                                       00000000 00016a2c 
 64 .ARM.exidx.text._ZN4core10intrinsics19copy_nonoverlapping13runtime_check17h200abbf7d42fd906E                                                                                                                       00000000 00016a2c 
 65 .ARM.exidx.text._ZN4core10intrinsics11write_bytes17h5e8a1fcfeef63718E                                                                                                                                              00000000 00016a2c 
 66 .ARM.exidx.text._ZN4core10intrinsics11write_bytes13runtime_check17h676bfc7336c4bd8cE                                                                                                                               00000000 00016a2c 
 67 .ARM.exidx.text._ZN4core10intrinsics17const_eval_select17h015b543c3f81d79cE                                                                                                                                        00000000 00016a2c 
 68 .ARM.exidx.text._ZN4core10intrinsics17const_eval_select17h41fe6b117cd2cd5aE                                                                                                                                        00000000 00016a2c 
 69 .ARM.exidx.text._ZN4core10intrinsics17const_eval_select17h68e7ef67a5102aecE                                                                                                                                        00000000 00016a2c 
 70 .ARM.exidx.text._ZN4core10intrinsics17const_eval_select17h8009a97f66a39950E                                                                                                                                        00000000 00016a2c 
 71 .ARM.exidx.text._ZN4core10intrinsics17const_eval_select17ha3ffe22ae3a1c2f8E                                                                                                                                        00000000 00016a2c 
 72 .ARM.exidx.text._ZN4core10intrinsics17const_eval_select17hb0822b569c9aeb4cE                                                                                                                                        00000000 00016a2c 
 73 .ARM.exidx.text._ZN4core3mem4swap17h452343371b57d963E                                                                                                                                                              00000000 00016a2c 
 74 .ARM.exidx.text._ZN4core3mem7replace17h517b6fe9151f1a70E                                                                                                                                                           00000000 00016a2c 
 75 .ARM.exidx.text._ZN4core3mem7replace17h597251809dff5828E                                                                                                                                                           00000000 00016a2c 
 76 .ARM.exidx.text._ZN4core3mem7replace17hb3b3ec1c42c6a29fE                                                                                                                                                           00000000 00016a2c 
 77 .ARM.exidx.text._ZN4core3ptr8metadata8metadata17h3c59b893e207686aE                                                                                                                                                 00000000 00016a2c 
 78 .ARM.exidx.text._ZN4core3ptr8metadata8metadata17h6e0e6941870f5ff5E                                                                                                                                                 00000000 00016a2c 
 79 .ARM.exidx.text._ZN4core3ptr8metadata8metadata17hb8875a23a1e846f0E                                                                                                                                                 00000000 00016a2c 
 80 .ARM.exidx.text._ZN4core3ptr8metadata14from_raw_parts17h2f6ebd559309ba48E                                                                                                                                          00000000 00016a2c 
 81 .ARM.exidx.text._ZN4core3ptr8metadata14from_raw_parts17h46f219276bb9ceb2E                                                                                                                                          00000000 00016a2c 
 82 .ARM.exidx.text._ZN4core3ptr8metadata14from_raw_parts17h5617291b34a7c9beE                                                                                                                                          00000000 00016a2c 
 83 .ARM.exidx.text._ZN4core3ptr8metadata14from_raw_parts17haf24b97d7c3c8fe2E                                                                                                                                          00000000 00016a2c 
 84 .ARM.exidx.text._ZN4core3ptr8non_null16NonNull$LT$T$GT$13new_unchecked17h0ee93a64da3b0115E                                                                                                                         00000000 00016a2c 
 85 .ARM.exidx.text._ZN4core3ptr8non_null16NonNull$LT$T$GT$13new_unchecked17h311ebeac35d490ecE                                                                                                                         00000000 00016a2c 
 86 .ARM.exidx.text._ZN4core3ptr8non_null16NonNull$LT$T$GT$13new_unchecked17h9e203cabf018418aE                                                                                                                         00000000 00016a2c 
 87 .ARM.exidx.text._ZN4core3ptr8non_null16NonNull$LT$T$GT$13new_unchecked17h9fac1d850925ce4dE                                                                                                                         00000000 00016a2c 
 88 .ARM.exidx.text._ZN4core3ptr8non_null16NonNull$LT$T$GT$13new_unchecked17ha617d323a7fc3e1eE                                                                                                                         00000000 00016a2c 
 89 .ARM.exidx.text._ZN4core3ptr8non_null16NonNull$LT$T$GT$13new_unchecked17he5acd71300b46a98E                                                                                                                         00000000 00016a2c 
 90 .ARM.exidx.text._ZN4core3ptr8non_null16NonNull$LT$T$GT$6as_ptr17h3c04a1b813cf7ee8E                                                                                                                                 00000000 00016a2c 
 91 .ARM.exidx.text._ZN4core3ptr8non_null16NonNull$LT$T$GT$6as_ptr17h761e972d0d67cfa0E                                                                                                                                 00000000 00016a2c 
 92 .ARM.exidx.text._ZN4core3ptr8non_null16NonNull$LT$T$GT$6as_ptr17hd1053c8517587e17E                                                                                                                                 00000000 00016a2c 
 93 .ARM.exidx.text._ZN4core3ptr8non_null16NonNull$LT$T$GT$6as_ptr17he636665efe449a92E                                                                                                                                 00000000 00016a2c 
 94 .ARM.exidx.text._ZN4core3ptr8non_null16NonNull$LT$T$GT$6as_ptr17he93dfc44e8018818E                                                                                                                                 00000000 00016a2c 
 95 .ARM.exidx.text._ZN4core3ptr8non_null16NonNull$LT$T$GT$6as_ptr17hf9d79c67c5818bafE                                                                                                                                 00000000 00016a2c 
 96 .ARM.exidx.text._ZN4core3ptr9const_ptr33_$LT$impl$u20$$BP$const$u20$T$GT$7is_null17h01921eafcee4a16bE                                                                                                              00000000 00016a2c 
 97 .ARM.exidx.text._ZN4core3ptr9const_ptr33_$LT$impl$u20$$BP$const$u20$T$GT$7is_null17h099dd4bded18252fE                                                                                                              00000000 00016a2c 
 98 .ARM.exidx.text._ZN4core3ptr9const_ptr33_$LT$impl$u20$$BP$const$u20$T$GT$7is_null17h8bf2c1c38017a24bE                                                                                                              00000000 00016a2c 
 99 .ARM.exidx.text._ZN4core3ptr9const_ptr33_$LT$impl$u20$$BP$const$u20$T$GT$7is_null17ha263ef11114199f5E                                                                                                              00000000 00016a2c 
100 .ARM.exidx.text._ZN4core3ptr9const_ptr33_$LT$impl$u20$$BP$const$u20$T$GT$7is_null17ha3dab16996a599e5E                                                                                                              00000000 00016a2c 
101 .ARM.exidx.text._ZN4core3ptr9const_ptr33_$LT$impl$u20$$BP$const$u20$T$GT$4cast17h1ad786fa4cfa8018E                                                                                                                 00000000 00016a2c 
102 .ARM.exidx.text._ZN4core3ptr9const_ptr33_$LT$impl$u20$$BP$const$u20$T$GT$4cast17h1d12769d8025b878E                                                                                                                 00000000 00016a2c 
103 .ARM.exidx.text._ZN4core3ptr9const_ptr33_$LT$impl$u20$$BP$const$u20$T$GT$4cast17h606afd092da50d67E                                                                                                                 00000000 00016a2c 
104 .ARM.exidx.text._ZN4core3ptr9const_ptr33_$LT$impl$u20$$BP$const$u20$T$GT$4cast17hcedaa77a0aa3b0b5E                                                                                                                 00000000 00016a2c 
105 .ARM.exidx.text._ZN4core3ptr9const_ptr33_$LT$impl$u20$$BP$const$u20$T$GT$4cast17hda8d7474972e149fE                                                                                                                 00000000 00016a2c 
106 .ARM.exidx.text._ZN4core3ptr9const_ptr33_$LT$impl$u20$$BP$const$u20$T$GT$13guaranteed_eq17h5fbdb62c96a7f5f1E                                                                                                       00000000 00016a2c 
107 .ARM.exidx.text._ZN4core3ptr9const_ptr43_$LT$impl$u20$$BP$const$u20$$u5b$T$u5d$$GT$3len17h49bd0a8aa184075eE                                                                                                        00000000 00016a2c 
108 .ARM.exidx.text._ZN4core3ptr9const_ptr43_$LT$impl$u20$$BP$const$u20$$u5b$T$u5d$$GT$3len17h8c5325d91ce47adcE                                                                                                        00000000 00016a2c 
109 .ARM.exidx.text._ZN4core3ptr9const_ptr43_$LT$impl$u20$$BP$const$u20$$u5b$T$u5d$$GT$3len17habc3883e5b7bf186E                                                                                                        00000000 00016a2c 
110 .ARM.exidx.text._ZN4core3ptr9const_ptr43_$LT$impl$u20$$BP$const$u20$$u5b$T$u5d$$GT$6as_ptr17h4fe380040f4b7310E                                                                                                     00000000 00016a2c 
111 .ARM.exidx.text._ZN4core3ptr9const_ptr43_$LT$impl$u20$$BP$const$u20$$u5b$T$u5d$$GT$6as_ptr17h6657ebba067a132bE                                                                                                     00000000 00016a2c 
112 .ARM.exidx.text._ZN4core3ptr9const_ptr43_$LT$impl$u20$$BP$const$u20$$u5b$T$u5d$$GT$6as_ptr17h73d8ecc888b4838aE                                                                                                     00000000 00016a2c 
113 .ARM.exidx.text._ZN4core3ptr9const_ptr43_$LT$impl$u20$$BP$const$u20$$u5b$T$u5d$$GT$6as_ptr17hac7f6cf6a075aa09E                                                                                                     00000000 00016a2c 
114 .ARM.exidx.text._ZN4core3ptr9const_ptr43_$LT$impl$u20$$BP$const$u20$$u5b$T$u5d$$GT$6as_ptr17hf6615c2fc9303a1fE                                                                                                     00000000 00016a2c 
115 .ARM.exidx.text._ZN4core3ptr7mut_ptr31_$LT$impl$u20$$BP$mut$u20$T$GT$7is_null17h3b9b5ff4a0433e48E                                                                                                                  00000000 00016a2c 
116 .ARM.exidx.text._ZN4core3ptr7mut_ptr31_$LT$impl$u20$$BP$mut$u20$T$GT$7is_null17h90840b4ddc66cc04E                                                                                                                  00000000 00016a2c 
117 .ARM.exidx.text._ZN4core3ptr7mut_ptr31_$LT$impl$u20$$BP$mut$u20$T$GT$7is_null17hc32b3f5d78eeade4E                                                                                                                  00000000 00016a2c 
118 .ARM.exidx.text._ZN4core3ptr7mut_ptr31_$LT$impl$u20$$BP$mut$u20$T$GT$7is_null17hdc47570171e130c6E                                                                                                                  00000000 00016a2c 
119 .ARM.exidx.text._ZN4core3ptr7mut_ptr31_$LT$impl$u20$$BP$mut$u20$T$GT$7is_null17hdfc7f1fcc93be4b4E                                                                                                                  00000000 00016a2c 
120 .ARM.exidx.text._ZN4core3ptr7mut_ptr31_$LT$impl$u20$$BP$mut$u20$T$GT$7is_null17he2aafd5fc4a2f886E                                                                                                                  00000000 00016a2c 
121 .ARM.exidx.text._ZN4core3ptr7mut_ptr31_$LT$impl$u20$$BP$mut$u20$T$GT$13guaranteed_eq17h7715c21885c6e098E                                                                                                           00000000 00016a2c 
122 .ARM.exidx.text._ZN4core3ptr20slice_from_raw_parts17h472b2ea1a48027e0E                                                                                                                                             00000000 00016a2c 
123 .ARM.exidx.text._ZN4core3ptr20slice_from_raw_parts17h739fb1d7ea7e2968E                                                                                                                                             00000000 00016a2c 
124 .ARM.exidx.text._ZN4core3ptr20slice_from_raw_parts17h7eb9f3b40e6a6c9aE                                                                                                                                             00000000 00016a2c 
125 .ARM.exidx.text._ZN4core3ptr20slice_from_raw_parts17h9ed24265d259b02cE                                                                                                                                             00000000 00016a2c 
126 .ARM.exidx.text._ZN4core3ptr19swap_nonoverlapping17hcb191387e6ec01aaE                                                                                                                                              00000000 00016a2c 
127 .ARM.exidx.text._ZN4core3ptr23swap_nonoverlapping_one17h067d40ae001e0b5fE                                                                                                                                          00000000 00016a2c 
128 .ARM.exidx.text._ZN4core3ptr25swap_nonoverlapping_bytes17hf060f760246acaadE                                                                                                                                        00000000 00016a2c 
129 .ARM.exidx.text._ZN4core3ptr4read17h19ff7a152842ec41E                                                                                                                                                              00000000 00016a2c 
130 .ARM.exidx.text._ZN4core3ptr4read17h3473fc0b0283b685E                                                                                                                                                              00000000 00016a2c 
131 .ARM.exidx.text._ZN4core3ptr4read17h82833b6a1cadad05E                                                                                                                                                              00000000 00016a2c 
132 .ARM.exidx.text._ZN4core3ptr5write17h41ed2670b0606b5fE                                                                                                                                                             00000000 00016a2c 
133 .ARM.exidx.text._ZN4core3ptr5write17hcc50e8a29615fba3E                                                                                                                                                             00000000 00016a2c 
134 .ARM.exidx.text._ZN4core3ptr5write17hd1ac115afc87545cE                                                                                                                                                             00000000 00016a2c 
135 .ARM.exidx.text._ZN4core3ptr13read_volatile17hc050ce1962d20f3dE                                                                                                                                                    00000000 00016a2c 
136 .ARM.exidx.text._ZN4core3ptr12align_offset17h7dced9cb56e93b5fE                                                                                                                                                     00000000 00016a2c 
137 .ARM.exidx.text._ZN4core3ptr12align_offset7mod_inv17h2dd2e6f553a56476E                                                                                                                                             00000000 00016a2c 
138 .ARM.exidx.text._ZN4core3cmp3Ord3min17h4dfc62cab0572f9aE                                                                                                                                                           00000000 00016a2c 
139 .ARM.exidx.text._ZN4core3cmp3min17h6d687506da1e36f6E                                                                                                                                                               00000000 00016a2c 
140 .ARM.exidx.text._ZN4core3cmp6min_by17h96db7358e1a3abc5E                                                                                                                                                            00000000 00016a2c 
141 .ARM.exidx.text._ZN50_$LT$T$u20$as$u20$core..convert..From$LT$T$GT$$GT$4from17h6610ac7b74997422E                                                                                                                   00000000 00016a2c 
142 .ARM.exidx.text._ZN50_$LT$T$u20$as$u20$core..convert..From$LT$T$GT$$GT$4from17hec8ef8de88f19ff9E                                                                                                                   00000000 00016a2c 
143 .ARM.exidx.text._ZN36_$LT$T$u20$as$u20$core..any..Any$GT$7type_id17hd04d48d4412c3c49E                                                                                                                              00000000 00016a2c 
144 .ARM.exidx.text._ZN4core3any6TypeId2of17ha643ce6bef11a2fdE                                                                                                                                                         00000000 00016a2c 
145 .ARM.exidx.text._ZN4core5array98_$LT$impl$u20$core..iter..traits..collect..IntoIterator$u20$for$u20$$RF$$u5b$T$u3b$$u20$N$u5d$$GT$9into_iter17h3c7ec5274e531605E                                                   00000000 00016a2c 
146 .ARM.exidx.text._ZN4core5array85_$LT$impl$u20$core..ops..index..Index$LT$I$GT$$u20$for$u20$$u5b$T$u3b$$u20$N$u5d$$GT$5index17h014adf7b6a71ea87E                                                                    00000000 00016a2c 
147 .ARM.exidx.text._ZN4core4char7convert8from_u3217h24f958a1bed963c3E                                                                                                                                                 00000000 00016a2c 
148 .ARM.exidx.text._ZN4core4char7convert18from_u32_unchecked17ha5af22e9e29cbbabE                                                                                                                                      00000000 00016a2c 
149 .ARM.exidx.text._ZN4core4char7convert17char_try_from_u3217h6bb3e43a3189a8acE                                                                                                                                       00000000 00016a2c 
150 .ARM.exidx.text._ZN4core4char7methods22_$LT$impl$u20$char$GT$8from_u3217h1354ded5383331daE                                                                                                                         00000000 00016a2c 
151 .ARM.exidx.text._ZN4core4iter8adapters9enumerate18Enumerate$LT$I$GT$3new17h30a86619e2211648E                                                                                                                       00000000 00016a2c 
152 .ARM.exidx.text._ZN4core4iter8adapters9enumerate18Enumerate$LT$I$GT$3new17h3c91e6ea800288abE                                                                                                                       00000000 00016a2c 
153 .ARM.exidx.text._ZN110_$LT$core..iter..adapters..enumerate..Enumerate$LT$I$GT$$u20$as$u20$core..iter..traits..iterator..Iterator$GT$4next17h1e2fd37d8b362b23E                                                      00000000 00016a2c 
154 .ARM.exidx.text._ZN110_$LT$core..iter..adapters..enumerate..Enumerate$LT$I$GT$$u20$as$u20$core..iter..traits..iterator..Iterator$GT$4next17hddd185bba0331b1dE                                                      00000000 00016a2c 
155 .ARM.exidx.text._ZN4core4iter8adapters6filter19Filter$LT$I$C$P$GT$3new17hda6d6ee773a1a87fE                                                                                                                         00000000 00016a2c 
156 .ARM.exidx.text._ZN108_$LT$core..iter..adapters..filter..Filter$LT$I$C$P$GT$$u20$as$u20$core..iter..traits..iterator..Iterator$GT$5count17h4d419545bff67014E                                                       00000000 00016a2c 
157 .ARM.exidx.text._ZN108_$LT$core..iter..adapters..filter..Filter$LT$I$C$P$GT$$u20$as$u20$core..iter..traits..iterator..Iterator$GT$5count8to_usize17h24a9eb2d93f67194E                                              00000000 00016a2c 
158 .ARM.exidx.text._ZN108_$LT$core..iter..adapters..filter..Filter$LT$I$C$P$GT$$u20$as$u20$core..iter..traits..iterator..Iterator$GT$5count8to_usize28_$u7b$$u7b$closure$u7d$$u7d$17h0a32ef45571190ddE                00000000 00016a2c 
159 .ARM.exidx.text._ZN4core4iter8adapters3map16Map$LT$I$C$F$GT$3new17h2edd8df264650194E                                                                                                                               00000000 00016a2c 
160 .ARM.exidx.text._ZN4core4iter8adapters3map8map_fold17hbb914d779fa750a4E                                                                                                                                            00000000 00016a2c 
161 .ARM.exidx.text._ZN4core4iter8adapters3map8map_fold28_$u7b$$u7b$closure$u7d$$u7d$17h5d5a7cdf537d9ae3E                                                                                                              00000000 00016a2c 
162 .ARM.exidx.text._ZN102_$LT$core..iter..adapters..map..Map$LT$I$C$F$GT$$u20$as$u20$core..iter..traits..iterator..Iterator$GT$4fold17h1864fdb0ab936070E                                                              00000000 00016a2c 
163 .ARM.exidx.text._ZN4core4iter8adapters3rev12Rev$LT$T$GT$3new17hdff58e4042bd065fE                                                                                                                                   00000000 00016a2c 
164 .ARM.exidx.text._ZN98_$LT$core..iter..adapters..rev..Rev$LT$I$GT$$u20$as$u20$core..iter..traits..iterator..Iterator$GT$4next17haa679e51fd5c7fb6E                                                                   00000000 00016a2c 
165 .ARM.exidx.text._ZN89_$LT$core..ops..range..Range$LT$T$GT$$u20$as$u20$core..iter..range..RangeIteratorImpl$GT$9spec_next17h3773e4f0e8313430E                                                                       00000000 00016a2c 
166 .ARM.exidx.text._ZN4core4iter5range101_$LT$impl$u20$core..iter..traits..iterator..Iterator$u20$for$u20$core..ops..range..Range$LT$A$GT$$GT$4next17h679e961ab2e050c2E                                               00000000 00016a2c 
167 .ARM.exidx.text._ZN63_$LT$I$u20$as$u20$core..iter..traits..collect..IntoIterator$GT$9into_iter17h50345055115cfa37E                                                                                                 00000000 00016a2c 
168 .ARM.exidx.text._ZN63_$LT$I$u20$as$u20$core..iter..traits..collect..IntoIterator$GT$9into_iter17ha824f1c680dbc5d5E                                                                                                 00000000 00016a2c 
169 .ARM.exidx.text._ZN63_$LT$I$u20$as$u20$core..iter..traits..collect..IntoIterator$GT$9into_iter17hb63fe79ffe64174cE                                                                                                 00000000 00016a2c 
170 .ARM.exidx.text._ZN63_$LT$I$u20$as$u20$core..iter..traits..collect..IntoIterator$GT$9into_iter17hbb596eea85a0534cE                                                                                                 00000000 00016a2c 
171 .ARM.exidx.text._ZN63_$LT$I$u20$as$u20$core..iter..traits..collect..IntoIterator$GT$9into_iter17hcd91a9ec3b2efec4E                                                                                                 00000000 00016a2c 
172 .ARM.exidx.text._ZN4core4iter6traits8iterator8Iterator10advance_by17hefe3ae2eb520656bE                                                                                                                             00000000 00016a2c 
173 .ARM.exidx.text._ZN4core4iter6traits8iterator8Iterator3nth17hdc2f8c5e43bea2abE                                                                                                                                     00000000 00016a2c 
174 .ARM.exidx.text._ZN4core4iter6traits8iterator8Iterator3map17h6fb24ffd73d542ffE                                                                                                                                     00000000 00016a2c 
175 .ARM.exidx.text._ZN4core4iter6traits8iterator8Iterator6filter17hb66cd4fc014ab058E                                                                                                                                  00000000 00016a2c 
176 .ARM.exidx.text._ZN4core4iter6traits8iterator8Iterator9enumerate17h5694d946cc40cc59E                                                                                                                               00000000 00016a2c 
177 .ARM.exidx.text._ZN4core4iter6traits8iterator8Iterator9enumerate17h8b3577cd1c43f4beE                                                                                                                               00000000 00016a2c 
178 .ARM.exidx.text._ZN4core4iter6traits8iterator8Iterator4fold17hb835c9ed5bafc7c4E                                                                                                                                    00000000 00016a2c 
179 .ARM.exidx.text._ZN4core4iter6traits8iterator8Iterator3rev17hf285382833a11cd2E                                                                                                                                     00000000 00016a2c 
180 .ARM.exidx.text._ZN4core4iter6traits8iterator8Iterator3sum17he3b263efd5072654E                                                                                                                                     00000000 00016a2c 
181 .ARM.exidx.text._ZN4core6option15Option$LT$T$GT$7is_some17h0f59d8a1a3661378E                                                                                                                                       00000000 00016a2c 
182 .ARM.exidx.text._ZN4core6option15Option$LT$T$GT$7is_some17h594b3a26af5e585aE                                                                                                                                       00000000 00016a2c 
183 .ARM.exidx.text._ZN4core6option15Option$LT$T$GT$7is_none17h9670b1d25feabbc1E                                                                                                                                       00000000 00016a2c 
184 .ARM.exidx.text._ZN4core6option15Option$LT$T$GT$6unwrap17hd6e3fde6ca0fdbbcE                                                                                                                                        00000000 00016a2c 
185 .ARM.exidx.text._ZN4core6option15Option$LT$T$GT$6unwrap17hdd28b3b95a4a07dcE                                                                                                                                        00000000 00016a2c 
186 .ARM.exidx.text._ZN4core6option15Option$LT$T$GT$9unwrap_or17h015ab340b13816d4E                                                                                                                                     00000000 00016a2c 
187 .ARM.exidx.text._ZN4core6option15Option$LT$T$GT$16unwrap_unchecked17h26d673577bdd7b53E                                                                                                                             00000000 00016a2c 
188 .ARM.exidx.text._ZN4core6option15Option$LT$T$GT$3map17h23edb8605e04aca5E                                                                                                                                           00000000 00016a2c 
189 .ARM.exidx.text._ZN4core6option15Option$LT$T$GT$5ok_or17ha3aa47d88639c8c3E                                                                                                                                         00000000 00016a2c 
190 .ARM.exidx.text._ZN75_$LT$core..option..Option$LT$T$GT$$u20$as$u20$core..ops..try_trait..Try$GT$6branch17h0370284d3a85f031E                                                                                        00000000 00016a2c 
191 .ARM.exidx.text._ZN75_$LT$core..option..Option$LT$T$GT$$u20$as$u20$core..ops..try_trait..Try$GT$6branch17h172a407fe4f652a4E                                                                                        00000000 00016a2c 
192 .ARM.exidx.text._ZN75_$LT$core..option..Option$LT$T$GT$$u20$as$u20$core..ops..try_trait..Try$GT$6branch17h1ec5a3c41af1443aE                                                                                        00000000 00016a2c 
193 .ARM.exidx.text._ZN75_$LT$core..option..Option$LT$T$GT$$u20$as$u20$core..ops..try_trait..Try$GT$6branch17hef7b8f4425754491E                                                                                        00000000 00016a2c 
194 .ARM.exidx.text._ZN84_$LT$core..option..Option$LT$T$GT$$u20$as$u20$core..ops..try_trait..FromResidual$GT$13from_residual17h508954eeadc7c28aE                                                                       00000000 00016a2c 
195 .ARM.exidx.text._ZN84_$LT$core..option..Option$LT$T$GT$$u20$as$u20$core..ops..try_trait..FromResidual$GT$13from_residual17h66d8bfb897ed8223E                                                                       00000000 00016a2c 
196 .ARM.exidx.text._ZN84_$LT$core..option..Option$LT$T$GT$$u20$as$u20$core..ops..try_trait..FromResidual$GT$13from_residual17he5c01615d13b92aaE                                                                       00000000 00016a2c 
197 .ARM.exidx.text._ZN84_$LT$core..option..Option$LT$T$GT$$u20$as$u20$core..ops..try_trait..FromResidual$GT$13from_residual17hf243c3f500f9a7ebE                                                                       00000000 00016a2c 
198 .ARM.exidx.text._ZN4core5panic8location8Location6caller17h599fd882f0ca72d3E                                                                                                                                        00000000 00016a2c 
199 .ARM.exidx.text._ZN4core5panic10panic_info9PanicInfo20internal_constructor17hff58fc59f9b36707E                                                                                                                     00000000 00016a2c 
200 .ARM.exidx.text._ZN4core9panicking5panic17h70f755644c6683e5E                                                                                                                                                       00000000 00016a2c 
201 .ARM.exidx.text._ZN4core9panicking18panic_bounds_check17h0b43d6a3154b2a88E                                                                                                                                         00000000 00016a2c 
202 .ARM.exidx.text._ZN4core9panicking9panic_fmt17h22cd6c9efa5fe474E                                                                                                                                                   00000000 00016a2c 
203 .ARM.exidx.text._ZN4core9panicking13assert_failed17h5e83c24258d73ba7E                                                                                                                                              00000000 00016a2c 
204 .ARM.exidx.text._ZN4core9panicking19assert_failed_inner17ha32612bf0b3c1066E                                                                                                                                        00000000 00016a2c 
205 .ARM.exidx.text._ZN4core6result19Result$LT$T$C$E$GT$2ok17h994d761dd1548f19E                                                                                                                                        00000000 00016a2c 
206 .ARM.exidx.text._ZN79_$LT$core..result..Result$LT$T$C$E$GT$$u20$as$u20$core..ops..try_trait..Try$GT$6branch17hcc6c949fd870dea7E                                                                                    00000000 00016a2c 
207 .ARM.exidx.text._ZN79_$LT$core..result..Result$LT$T$C$E$GT$$u20$as$u20$core..ops..try_trait..Try$GT$6branch17hd1d9da8509624ae6E                                                                                    00000000 00016a2c 
208 .ARM.exidx.text._ZN79_$LT$core..result..Result$LT$T$C$E$GT$$u20$as$u20$core..ops..try_trait..Try$GT$6branch17hec82a34d0273634fE                                                                                    00000000 00016a2c 
209 .ARM.exidx.text._ZN153_$LT$core..result..Result$LT$T$C$F$GT$$u20$as$u20$core..ops..try_trait..FromResidual$LT$core..result..Result$LT$core..convert..Infallible$C$E$GT$$GT$$GT$13from_residual17h411b96776abd096cE 00000000 00016a2c 
210 .ARM.exidx.text._ZN153_$LT$core..result..Result$LT$T$C$F$GT$$u20$as$u20$core..ops..try_trait..FromResidual$LT$core..result..Result$LT$core..convert..Infallible$C$E$GT$$GT$$GT$13from_residual17h54991ea20b922efbE 00000000 00016a2c 
211 .ARM.exidx.text._ZN153_$LT$core..result..Result$LT$T$C$F$GT$$u20$as$u20$core..ops..try_trait..FromResidual$LT$core..result..Result$LT$core..convert..Infallible$C$E$GT$$GT$$GT$13from_residual17h921f7eb520c50607E 00000000 00016a2c 
212 .ARM.exidx.text._ZN4core3fmt3num12GenericRadix7fmt_int17h3d51f26de88d8bbeE                                                                                                                                         00000000 00016a2c 
213 .ARM.exidx.text._ZN4core3fmt3num12GenericRadix7fmt_int17h51ec0ad097deb597E                                                                                                                                         00000000 00016a2c 
214 .ARM.exidx.text._ZN4core3fmt9Formatter3new17h4709c3f5378b429bE                                                                                                                                                     00000000 00016a2c 
215 .ARM.exidx.text._ZN4core3fmt12USIZE_MARKER28_$u7b$$u7b$closure$u7d$$u7d$17hc8ead2c0d1435e3eE                                                                                                                       00000000 00016a2c 
216 .ARM.exidx.text._ZN4core3fmt10ArgumentV13new17h37f891f565a643d9E                                                                                                                                                   00000000 00016a2c 
217 .ARM.exidx.text._ZN4core3fmt10ArgumentV13new17h4c844c993ed35af8E                                                                                                                                                   00000000 00016a2c 
218 .ARM.exidx.text._ZN4core3fmt10ArgumentV13new17ha876e96e5dc117f4E                                                                                                                                                   00000000 00016a2c 
219 .ARM.exidx.text._ZN4core3fmt10ArgumentV13new17hbd460d47a42de93cE                                                                                                                                                   00000000 00016a2c 
220 .ARM.exidx.text._ZN4core3fmt10ArgumentV13new17hf34e7092f2803bf0E                                                                                                                                                   00000000 00016a2c 
221 .ARM.exidx.text._ZN4core3fmt10ArgumentV18as_usize17h90afd2da165caa5cE                                                                                                                                              00000000 00016a2c 
222 .ARM.exidx.text._ZN4core3fmt9Arguments6new_v117hd47ebd6f67dc7416E                                                                                                                                                  00000000 00016a2c 
223 .ARM.exidx.text._ZN59_$LT$core..fmt..Arguments$u20$as$u20$core..fmt..Display$GT$3fmt17hce94dc99427bbd49E                                                                                                           00000000 00016a2c 
224 .ARM.exidx.text._ZN4core3fmt5write17h4ea4b5723b208be1E                                                                                                                                                             00000000 00016a2c 
225 .ARM.exidx.text._ZN4core3fmt3run17h369bc0c920887370E                                                                                                                                                               00000000 00016a2c 
226 .ARM.exidx.text._ZN4core3fmt8getcount17h0b71ba4dce2ed406E                                                                                                                                                          00000000 00016a2c 
227 .ARM.exidx.text._ZN4core3fmt11PostPadding3new17hd707ba2e2f281ce5E                                                                                                                                                  00000000 00016a2c 
228 .ARM.exidx.text._ZN4core3fmt11PostPadding5write17h749827b00c253280E                                                                                                                                                00000000 00016a2c 
229 .ARM.exidx.text._ZN4core3fmt9Formatter12pad_integral17h6338b9e6c1af941fE                                                                                                                                           00000000 00016a2c 
230 .ARM.exidx.text._ZN4core3fmt9Formatter12pad_integral12write_prefix17h1a1880509098b6f4E                                                                                                                             00000000 00016a2c 
231 .ARM.exidx.text._ZN4core3fmt9Formatter3pad17hc7f31b5adf6d1223E                                                                                                                                                     00000000 00016a2c 
232 .ARM.exidx.text._ZN4core3fmt9Formatter7padding17h5b11df4d9ea5f2b3E                                                                                                                                                 00000000 00016a2c 
233 .ARM.exidx.text._ZN4core3fmt9Formatter9sign_plus17h65de438d1db4ba18E                                                                                                                                               00000000 00016a2c 
234 .ARM.exidx.text._ZN4core3fmt9Formatter9alternate17h4c2d8fc96ccfb258E                                                                                                                                               00000000 00016a2c 
235 .ARM.exidx.text._ZN4core3fmt9Formatter19sign_aware_zero_pad17h4ecf0a4eb12c0453E                                                                                                                                    00000000 00016a2c 
236 .ARM.exidx.text._ZN4core3fmt9Formatter15debug_lower_hex17hc7b3d5e43f482770E                                                                                                                                        00000000 00016a2c 
237 .ARM.exidx.text._ZN4core3fmt9Formatter15debug_upper_hex17hda32311426943d1cE                                                                                                                                        00000000 00016a2c 
238 .ARM.exidx.text._ZN42_$LT$str$u20$as$u20$core..fmt..Display$GT$3fmt17h85349bd7c20fb183E                                                                                                                            00000000 00016a2c 
239 .ARM.exidx.text._ZN4core5slice5index74_$LT$impl$u20$core..ops..index..Index$LT$I$GT$$u20$for$u20$$u5b$T$u5d$$GT$5index17h4b1d96a87e06c058E                                                                         00000000 00016a2c 
240 .ARM.exidx.text._ZN4core5slice5index26slice_start_index_len_fail17hb5f5521c28632d81E                                                                                                                               00000000 00016a2c 
241 .ARM.exidx.text._ZN75_$LT$usize$u20$as$u20$core..slice..index..SliceIndex$LT$$u5b$T$u5d$$GT$$GT$3get17h58700fb2e56bcbd1E                                                                                           00000000 00016a2c 
242 .ARM.exidx.text._ZN75_$LT$usize$u20$as$u20$core..slice..index..SliceIndex$LT$$u5b$T$u5d$$GT$$GT$3get17h5df82707e94e479aE                                                                                           00000000 00016a2c 
243 .ARM.exidx.text._ZN75_$LT$usize$u20$as$u20$core..slice..index..SliceIndex$LT$$u5b$T$u5d$$GT$$GT$13get_unchecked17h3d9905732fe31da8E                                                                                00000000 00016a2c 
244 .ARM.exidx.text._ZN75_$LT$usize$u20$as$u20$core..slice..index..SliceIndex$LT$$u5b$T$u5d$$GT$$GT$13get_unchecked17h63bf3b62c6d08f31E                                                                                00000000 00016a2c 
245 .ARM.exidx.text._ZN75_$LT$usize$u20$as$u20$core..slice..index..SliceIndex$LT$$u5b$T$u5d$$GT$$GT$13get_unchecked17h74dc70a76a7a6cf2E                                                                                00000000 00016a2c 
246 .ARM.exidx.text._ZN106_$LT$core..ops..range..Range$LT$usize$GT$$u20$as$u20$core..slice..index..SliceIndex$LT$$u5b$T$u5d$$GT$$GT$13get_unchecked17h1d25b385670d593fE                                                00000000 00016a2c 
247 .ARM.exidx.text._ZN106_$LT$core..ops..range..Range$LT$usize$GT$$u20$as$u20$core..slice..index..SliceIndex$LT$$u5b$T$u5d$$GT$$GT$13get_unchecked17h5dac71fb7055b158E                                                00000000 00016a2c 
248 .ARM.exidx.text._ZN106_$LT$core..ops..range..Range$LT$usize$GT$$u20$as$u20$core..slice..index..SliceIndex$LT$$u5b$T$u5d$$GT$$GT$13get_unchecked17h6388b663972f65d5E                                                00000000 00016a2c 
249 .ARM.exidx.text._ZN108_$LT$core..ops..range..RangeTo$LT$usize$GT$$u20$as$u20$core..slice..index..SliceIndex$LT$$u5b$T$u5d$$GT$$GT$13get_unchecked17hc56e1446995c5ca8E                                              00000000 00016a2c 
250 .ARM.exidx.text._ZN108_$LT$core..ops..range..RangeTo$LT$usize$GT$$u20$as$u20$core..slice..index..SliceIndex$LT$$u5b$T$u5d$$GT$$GT$13get_unchecked17hc613160324722273E                                              00000000 00016a2c 
251 .ARM.exidx.text._ZN110_$LT$core..ops..range..RangeFrom$LT$usize$GT$$u20$as$u20$core..slice..index..SliceIndex$LT$$u5b$T$u5d$$GT$$GT$13get_unchecked17h43d3ddc491b0fe6aE                                            00000000 00016a2c 
252 .ARM.exidx.text._ZN110_$LT$core..ops..range..RangeFrom$LT$usize$GT$$u20$as$u20$core..slice..index..SliceIndex$LT$$u5b$T$u5d$$GT$$GT$13get_unchecked17h4b85c12398c9e232E                                            00000000 00016a2c 
253 .ARM.exidx.text._ZN110_$LT$core..ops..range..RangeFrom$LT$usize$GT$$u20$as$u20$core..slice..index..SliceIndex$LT$$u5b$T$u5d$$GT$$GT$13get_unchecked17h597bb0e645bb2269E                                            00000000 00016a2c 
254 .ARM.exidx.text._ZN110_$LT$core..ops..range..RangeFrom$LT$usize$GT$$u20$as$u20$core..slice..index..SliceIndex$LT$$u5b$T$u5d$$GT$$GT$5index17h7a8182a2d82a4709E                                                     00000000 00016a2c 
255 .ARM.exidx.text._ZN4core5slice4iter87_$LT$impl$u20$core..iter..traits..collect..IntoIterator$u20$for$u20$$RF$$u5b$T$u5d$$GT$9into_iter17h3cc1521738f9d061E                                                         00000000 00016a2c 
256 .ARM.exidx.text._ZN4core5slice4iter87_$LT$impl$u20$core..iter..traits..collect..IntoIterator$u20$for$u20$$RF$$u5b$T$u5d$$GT$9into_iter17hbb5dcc1a8a1ccab4E                                                         00000000 00016a2c 
257 .ARM.exidx.text._ZN4core5slice4iter13Iter$LT$T$GT$3new17h4427525444ee9a6aE                                                                                                                                         00000000 00016a2c 
258 .ARM.exidx.text._ZN4core5slice4iter13Iter$LT$T$GT$3new17h67d8f23c224d959aE                                                                                                                                         00000000 00016a2c 
259 .ARM.exidx.text._ZN4core5slice4iter13Iter$LT$T$GT$3new17haa4062221ae42c46E                                                                                                                                         00000000 00016a2c 
260 .ARM.exidx.text._ZN4core5slice4iter13Iter$LT$T$GT$3new17hb77f1747bbaef115E                                                                                                                                         00000000 00016a2c 
261 .ARM.exidx.text._ZN4core5slice4iter13Iter$LT$T$GT$3new17hbb1f906be78fe598E                                                                                                                                         00000000 00016a2c 
262 .ARM.exidx.text._ZN4core5slice4iter13Iter$LT$T$GT$8as_slice17h327dee1e392d377aE                                                                                                                                    00000000 00016a2c 
263 .ARM.exidx.text._ZN4core5slice4iter16IterMut$LT$T$GT$3new17h185c59486b1ace69E                                                                                                                                      00000000 00016a2c 
264 .ARM.exidx.text._ZN4core5slice4iter15Chunks$LT$T$GT$3new17hf45b747296ab98caE                                                                                                                                       00000000 00016a2c 
265 .ARM.exidx.text._ZN93_$LT$core..slice..iter..Chunks$LT$T$GT$$u20$as$u20$core..iter..traits..iterator..Iterator$GT$4next17h8a48ec6c676315b6E                                                                        00000000 00016a2c 
266 .ARM.exidx.text._ZN4core5slice3raw14from_raw_parts17h09828842bb9f998dE                                                                                                                                             00000000 00016a2c 
267 .ARM.exidx.text._ZN4core5slice3raw14from_raw_parts17h2c7aceaf3e66256fE                                                                                                                                             00000000 00016a2c 
268 .ARM.exidx.text._ZN4core5slice3raw14from_raw_parts17hc225916af7a02989E                                                                                                                                             00000000 00016a2c 
269 .ARM.exidx.text._ZN4core5slice3raw20debug_check_data_len17h760094dfb564f4e8E                                                                                                                                       00000000 00016a2c 
270 .ARM.exidx.text._ZN4core5slice3raw20debug_check_data_len17h7668b6c06a10d396E                                                                                                                                       00000000 00016a2c 
271 .ARM.exidx.text._ZN4core5slice3raw20debug_check_data_len17hb789fe369cea3d77E                                                                                                                                       00000000 00016a2c 
272 .ARM.exidx.text._ZN4core5slice3raw20debug_check_data_len8rt_check17h45bfb212b6aede9cE                                                                                                                              00000000 00016a2c 
273 .ARM.exidx.text._ZN4core5slice3raw20debug_check_data_len8rt_check17h87ae803e467dfe74E                                                                                                                              00000000 00016a2c 
274 .ARM.exidx.text._ZN4core5slice3raw20debug_check_data_len8rt_check17hce02492c767833a3E                                                                                                                              00000000 00016a2c 
275 .ARM.exidx.text._ZN4core5slice29_$LT$impl$u20$$u5b$T$u5d$$GT$8is_empty17h7a896da0465f87a7E                                                                                                                         00000000 00016a2c 
276 .ARM.exidx.text._ZN4core5slice29_$LT$impl$u20$$u5b$T$u5d$$GT$3get17h5c3858c84abeab5fE                                                                                                                              00000000 00016a2c 
277 .ARM.exidx.text._ZN4core5slice29_$LT$impl$u20$$u5b$T$u5d$$GT$3get17h8f5e6bea4c5e54d5E                                                                                                                              00000000 00016a2c 
278 .ARM.exidx.text._ZN4core5slice29_$LT$impl$u20$$u5b$T$u5d$$GT$13get_unchecked17h090228384a3ea5a0E                                                                                                                   00000000 00016a2c 
279 .ARM.exidx.text._ZN4core5slice29_$LT$impl$u20$$u5b$T$u5d$$GT$13get_unchecked17h2b9f57321c9ab110E                                                                                                                   00000000 00016a2c 
280 .ARM.exidx.text._ZN4core5slice29_$LT$impl$u20$$u5b$T$u5d$$GT$13get_unchecked17h4ea222d5e49e8b86E                                                                                                                   00000000 00016a2c 
281 .ARM.exidx.text._ZN4core5slice29_$LT$impl$u20$$u5b$T$u5d$$GT$13get_unchecked17h67e4e71b23d961ccE                                                                                                                   00000000 00016a2c 
282 .ARM.exidx.text._ZN4core5slice29_$LT$impl$u20$$u5b$T$u5d$$GT$13get_unchecked17h9d359a39158dbe67E                                                                                                                   00000000 00016a2c 
283 .ARM.exidx.text._ZN4core5slice29_$LT$impl$u20$$u5b$T$u5d$$GT$13get_unchecked17hb558a5d276703f46E                                                                                                                   00000000 00016a2c 
284 .ARM.exidx.text._ZN4core5slice29_$LT$impl$u20$$u5b$T$u5d$$GT$6as_ptr17h4a00a55ffdc398ecE                                                                                                                           00000000 00016a2c 
285 .ARM.exidx.text._ZN4core5slice29_$LT$impl$u20$$u5b$T$u5d$$GT$6as_ptr17h4c0ffc438ec46671E                                                                                                                           00000000 00016a2c 
286 .ARM.exidx.text._ZN4core5slice29_$LT$impl$u20$$u5b$T$u5d$$GT$6as_ptr17h5a33363efb66d240E                                                                                                                           00000000 00016a2c 
287 .ARM.exidx.text._ZN4core5slice29_$LT$impl$u20$$u5b$T$u5d$$GT$6as_ptr17h6b8941cd08966201E                                                                                                                           00000000 00016a2c 
288 .ARM.exidx.text._ZN4core5slice29_$LT$impl$u20$$u5b$T$u5d$$GT$6as_ptr17h992ac04f5ee14697E                                                                                                                           00000000 00016a2c 
289 .ARM.exidx.text._ZN4core5slice29_$LT$impl$u20$$u5b$T$u5d$$GT$6as_ptr17he76bcbec392c544eE                                                                                                                           00000000 00016a2c 
290 .ARM.exidx.text._ZN4core5slice29_$LT$impl$u20$$u5b$T$u5d$$GT$10as_mut_ptr17h0d88c70547a3eecaE                                                                                                                      00000000 00016a2c 
291 .ARM.exidx.text._ZN4core5slice29_$LT$impl$u20$$u5b$T$u5d$$GT$4iter17h0c95fae1e4e64d73E                                                                                                                             00000000 00016a2c 
292 .ARM.exidx.text._ZN4core5slice29_$LT$impl$u20$$u5b$T$u5d$$GT$4iter17h0e9b2b815f0a80b4E                                                                                                                             00000000 00016a2c 
293 .ARM.exidx.text._ZN4core5slice29_$LT$impl$u20$$u5b$T$u5d$$GT$4iter17h15255d3309400647E                                                                                                                             00000000 00016a2c 
294 .ARM.exidx.text._ZN4core5slice29_$LT$impl$u20$$u5b$T$u5d$$GT$4iter17h5fc31ae58636ccf6E                                                                                                                             00000000 00016a2c 
295 .ARM.exidx.text._ZN4core5slice29_$LT$impl$u20$$u5b$T$u5d$$GT$4iter17hc958a26c159f8306E                                                                                                                             00000000 00016a2c 
296 .ARM.exidx.text._ZN4core5slice29_$LT$impl$u20$$u5b$T$u5d$$GT$8iter_mut17hc7e629f952ad5a61E                                                                                                                         00000000 00016a2c 
297 .ARM.exidx.text._ZN4core5slice29_$LT$impl$u20$$u5b$T$u5d$$GT$6chunks17h27d4d96d35cab058E                                                                                                                           00000000 00016a2c 
298 .ARM.exidx.text._ZN4core5slice29_$LT$impl$u20$$u5b$T$u5d$$GT$19as_chunks_unchecked17ha103be5ba45421e1E                                                                                                             00000000 00016a2c 
299 .ARM.exidx.text._ZN4core5slice29_$LT$impl$u20$$u5b$T$u5d$$GT$9as_chunks17h950d980911bc47fbE                                                                                                                        00000000 00016a2c 
300 .ARM.exidx.text._ZN4core5slice29_$LT$impl$u20$$u5b$T$u5d$$GT$8split_at17h48379e8d17f6fd11E                                                                                                                         00000000 00016a2c 
301 .ARM.exidx.text._ZN4core5slice29_$LT$impl$u20$$u5b$T$u5d$$GT$8split_at17he87220cefa3c80b2E                                                                                                                         00000000 00016a2c 
302 .ARM.exidx.text._ZN4core5slice29_$LT$impl$u20$$u5b$T$u5d$$GT$18split_at_unchecked17h6060ba5c4226ec4fE                                                                                                              00000000 00016a2c 
303 .ARM.exidx.text._ZN4core5slice29_$LT$impl$u20$$u5b$T$u5d$$GT$18split_at_unchecked17h7bc1833861925780E                                                                                                              00000000 00016a2c 
304 .ARM.exidx.text._ZN4core5slice29_$LT$impl$u20$$u5b$T$u5d$$GT$16align_to_offsets17h3fbc5b4b1927f7e4E                                                                                                                00000000 00016a2c 
305 .ARM.exidx.text._ZN4core5slice29_$LT$impl$u20$$u5b$T$u5d$$GT$16align_to_offsets3gcd17h52ca9ed27e23eecdE                                                                                                            00000000 00016a2c 
306 .ARM.exidx.text._ZN4core5slice29_$LT$impl$u20$$u5b$T$u5d$$GT$8align_to17hfcf2be5c78c5ce3bE                                                                                                                         00000000 00016a2c 
307 .ARM.exidx.text._ZN4core3str8converts19from_utf8_unchecked17h52dbaed8b9b07d57E                                                                                                                                     00000000 00016a2c 
308 .ARM.exidx.text._ZN4core3str5count11count_chars17hfe9d88bbf5353924E                                                                                                                                                00000000 00016a2c 
309 .ARM.exidx.text._ZN4core3str5count14do_count_chars17h7d881dc4ec4d70a8E                                                                                                                                             00000000 00016a2c 
310 .ARM.exidx.text._ZN4core3str5count30contains_non_continuation_byte17h414c6b05581547daE                                                                                                                             00000000 00016a2c 
311 .ARM.exidx.text._ZN4core3str5count18sum_bytes_in_usize17h6004dc9ac87b2593E                                                                                                                                         00000000 00016a2c 
312 .ARM.exidx.text._ZN4core3str5count23char_count_general_case17he4b6dcb5826225bbE                                                                                                                                    00000000 00016a2c 
313 .ARM.exidx.text._ZN4core3str5count23char_count_general_case28_$u7b$$u7b$closure$u7d$$u7d$17h3bfaf0e4922b22e5E                                                                                                      00000000 00016a2c 
314 .ARM.exidx.text._ZN81_$LT$core..str..iter..Chars$u20$as$u20$core..iter..traits..iterator..Iterator$GT$4next17h4ce585fe76b34787E                                                                                    00000000 00016a2c 
315 .ARM.exidx.text._ZN81_$LT$core..str..iter..Chars$u20$as$u20$core..iter..traits..iterator..Iterator$GT$4next28_$u7b$$u7b$closure$u7d$$u7d$17hd5e273e066f80caaE                                                      00000000 00016a2c 
316 .ARM.exidx.text._ZN81_$LT$core..str..iter..Chars$u20$as$u20$core..iter..traits..iterator..Iterator$GT$5count17h42b30a58c777afecE                                                                                   00000000 00016a2c 
317 .ARM.exidx.text._ZN4core3str4iter5Chars6as_str17hbf2654c7ec81d8fcE                                                                                                                                                 00000000 00016a2c 
318 .ARM.exidx.text._ZN87_$LT$core..str..iter..CharIndices$u20$as$u20$core..iter..traits..iterator..Iterator$GT$4next17hd773219ae4fca8caE                                                                              00000000 00016a2c 
319 .ARM.exidx.text._ZN4core3str6traits110_$LT$impl$u20$core..slice..index..SliceIndex$LT$str$GT$$u20$for$u20$core..ops..range..RangeTo$LT$usize$GT$$GT$3get17h38633d9bf2554e71E                                       00000000 00016a2c 
320 .ARM.exidx.text._ZN4core3str6traits110_$LT$impl$u20$core..slice..index..SliceIndex$LT$str$GT$$u20$for$u20$core..ops..range..RangeTo$LT$usize$GT$$GT$13get_unchecked17h778130eddf5f472cE                            00000000 00016a2c 
321 .ARM.exidx.text._ZN4core3str11validations15utf8_first_byte17h807516d75a2ca278E                                                                                                                                     00000000 00016a2c 
322 .ARM.exidx.text._ZN4core3str11validations18utf8_acc_cont_byte17hd8201390176fb4d2E                                                                                                                                  00000000 00016a2c 
323 .ARM.exidx.text._ZN4core3str11validations17utf8_is_cont_byte17hf4225f2dee7ad739E                                                                                                                                   00000000 00016a2c 
324 .ARM.exidx.text._ZN4core3str11validations15next_code_point17hca9f819efee38a31E                                                                                                                                     00000000 00016a2c 
325 .ARM.exidx.text._ZN4core3str21_$LT$impl$u20$str$GT$3len17h14a3611b18a00a0eE                                                                                                                                        00000000 00016a2c 
326 .ARM.exidx.text._ZN4core3str21_$LT$impl$u20$str$GT$8is_empty17hd7cf8b576699b70eE                                                                                                                                   00000000 00016a2c 
327 .ARM.exidx.text._ZN4core3str21_$LT$impl$u20$str$GT$16is_char_boundary17ha97b2a4a3b95f885E                                                                                                                          00000000 00016a2c 
328 .ARM.exidx.text._ZN4core3str21_$LT$impl$u20$str$GT$3get17h1ffc82c8130656bdE                                                                                                                                        00000000 00016a2c 
329 .ARM.exidx.text._ZN4core3str21_$LT$impl$u20$str$GT$5chars17hbaf4cad00ce48caaE                                                                                                                                      00000000 00016a2c 
330 .ARM.exidx.text._ZN4core3str21_$LT$impl$u20$str$GT$12char_indices17hd69404982939c15bE                                                                                                                              00000000 00016a2c 
331 .ARM.exidx.text._ZN4core3num23_$LT$impl$u20$usize$GT$11checked_mul17hb7ff3cbd0d4cc03cE                                                                                                                             00000000 00016a2c 
332 .ARM.exidx.text._ZN4core3num23_$LT$impl$u20$usize$GT$14saturating_mul17he0e56fdf767fb9b6E                                                                                                                          00000000 00016a2c 
333 .ARM.exidx.text._ZN4core5clone5impls54_$LT$impl$u20$core..clone..Clone$u20$for$u20$usize$GT$5clone17hd939152c9612436bE                                                                                             00000000 00016a2c 
334 .ARM.exidx.text._ZN4core3cmp5impls56_$LT$impl$u20$core..cmp..PartialEq$u20$for$u20$usize$GT$2eq17h72e042646ebe0583E                                                                                                00000000 00016a2c 
335 .ARM.exidx.text._ZN4core3cmp5impls57_$LT$impl$u20$core..cmp..PartialOrd$u20$for$u20$usize$GT$2lt17h50e18a8ad36b70d1E                                                                                               00000000 00016a2c 
336 .ARM.exidx.text._ZN4core3cmp5impls57_$LT$impl$u20$core..cmp..PartialOrd$u20$for$u20$usize$GT$2ge17h3b07ee89d904bc72E                                                                                               00000000 00016a2c 
337 .ARM.exidx.text._ZN4core3cmp5impls50_$LT$impl$u20$core..cmp..Ord$u20$for$u20$usize$GT$3cmp17h3d79425c57ffc708E                                                                                                     00000000 00016a2c 
338 .ARM.exidx.text._ZN47_$LT$usize$u20$as$u20$core..ops..arith..Sub$GT$3sub17h64ad1807df18bbb0E                                                                                                                       00000000 00016a2c 
339 .ARM.exidx.text._ZN47_$LT$usize$u20$as$u20$core..ops..arith..Div$GT$3div17h2df646bc9efd9019E                                                                                                                       00000000 00016a2c 
340 .ARM.exidx.text._ZN47_$LT$usize$u20$as$u20$core..ops..arith..Rem$GT$3rem17hed0e05905b88c63fE                                                                                                                       00000000 00016a2c 
341 .ARM.exidx.text._ZN49_$LT$usize$u20$as$u20$core..iter..range..Step$GT$17forward_unchecked17hc9da2c4e7235d338E                                                                                                      00000000 00016a2c 
342 .ARM.exidx.text._ZN56_$LT$usize$u20$as$u20$core..iter..traits..accum..Sum$GT$3sum17h175bd0e46bcbfc09E                                                                                                              00000000 00016a2c 
343 .ARM.exidx.text._ZN56_$LT$usize$u20$as$u20$core..iter..traits..accum..Sum$GT$3sum28_$u7b$$u7b$closure$u7d$$u7d$17h354570db4f1bd5a0E                                                                                00000000 00016a2c 
344 .ARM.exidx.text._ZN49_$LT$u8$u20$as$u20$core..fmt..num..DisplayInt$GT$6to_u3217h4b043bbad09ceab7E                                                                                                                  00000000 00016a2c 
345 .ARM.exidx.text._ZN52_$LT$usize$u20$as$u20$core..fmt..num..DisplayInt$GT$4zero17h71a2b1b2c5062d51E                                                                                                                 00000000 00016a2c 
346 .ARM.exidx.text._ZN52_$LT$usize$u20$as$u20$core..fmt..num..DisplayInt$GT$7from_u817h534d523d1617fc6eE                                                                                                              00000000 00016a2c 
347 .ARM.exidx.text._ZN52_$LT$usize$u20$as$u20$core..fmt..num..DisplayInt$GT$5to_u817hc1b2240e79eebfa1E                                                                                                                00000000 00016a2c 
348 .ARM.exidx.text._ZN52_$LT$usize$u20$as$u20$core..fmt..num..DisplayInt$GT$6to_u3217hfd0c5150a38d32f4E                                                                                                               00000000 00016a2c 
349 .ARM.exidx.text._ZN73_$LT$core..fmt..num..LowerHex$u20$as$u20$core..fmt..num..GenericRadix$GT$5digit17hb059fe59c40e6289E                                                                                           00000000 00016a2c 
350 .ARM.exidx.text._ZN73_$LT$core..fmt..num..UpperHex$u20$as$u20$core..fmt..num..GenericRadix$GT$5digit17heaf3f1595d42a858E                                                                                           00000000 00016a2c 
351 .ARM.exidx.text._ZN4core3fmt3num55_$LT$impl$u20$core..fmt..LowerHex$u20$for$u20$usize$GT$3fmt17h82b1da44512da453E                                                                                                  00000000 00016a2c 
352 .ARM.exidx.text._ZN4core3fmt3num55_$LT$impl$u20$core..fmt..UpperHex$u20$for$u20$usize$GT$3fmt17h1d5a8f33dd1750ccE                                                                                                  00000000 00016a2c 
353 .ARM.exidx.text._ZN4core3fmt3num52_$LT$impl$u20$core..fmt..Debug$u20$for$u20$usize$GT$3fmt17h8f80d87d397c4613E                                                                                                     00000000 00016a2c 
354 .ARM.exidx.text._ZN4core3fmt3num3imp7fmt_u3217h9e0b25e1b2d1183fE                                                                                                                                                   00000000 00016a2c 
355 .ARM.exidx.text._ZN4core3fmt3num3imp51_$LT$impl$u20$core..fmt..Display$u20$for$u20$u8$GT$3fmt17h1daad30d62911f99E                                                                                                  00000000 00016a2c 
356 .ARM.exidx.text._ZN4core3fmt3num3imp54_$LT$impl$u20$core..fmt..Display$u20$for$u20$usize$GT$3fmt17he15d94aa45306f36E                                                                                               00000000 00016a2c 
357 .ARM.exidx.text._ZN4core3fmt10ArgumentV111new_display17h5becac182c5242eeE                                                                                                                                          00000000 00016a2c 
358 .ARM.exidx.text._ZN4core3fmt10ArgumentV111new_display17h62eda62979a94284E                                                                                                                                          00000000 00016a2c 
359 .ARM.exidx.text._ZN4core3fmt10ArgumentV111new_display17h667da9250b75896aE                                                                                                                                          00000000 00016a2c 
360 .ARM.exidx.text._ZN4core3fmt10ArgumentV111new_display17h70b2dfacf2c69a11E                                                                                                                                          00000000 00016a2c 
361 .ARM.exidx.text._ZN4core3fmt10ArgumentV19new_debug17h8fa7896cd18c0858E                                                                                                                                             00000000 00016a2c 
362 .ARM.exidx.text._ZN42_$LT$$RF$T$u20$as$u20$core..fmt..Debug$GT$3fmt17ha166fa1a8c15bd6cE                                                                                                                            00000000 00016a2c 
363 .ARM.exidx.text._ZN42_$LT$$RF$T$u20$as$u20$core..fmt..Debug$GT$3fmt17hcd3d43c7379a307dE                                                                                                                            00000000 00016a2c 
364 .ARM.exidx.text._ZN44_$LT$$RF$T$u20$as$u20$core..fmt..Display$GT$3fmt17h328b3198ae6deeeeE                                                                                                                          00000000 00016a2c 
365 .ARM.exidx.text._ZN91_$LT$core..slice..iter..Iter$LT$T$GT$$u20$as$u20$core..iter..traits..iterator..Iterator$GT$4next17h09592dbd374f3d62E                                                                          00000000 00016a2c 
366 .ARM.exidx.text._ZN91_$LT$core..slice..iter..Iter$LT$T$GT$$u20$as$u20$core..iter..traits..iterator..Iterator$GT$4next17h385cdd3a3cf20cddE                                                                          00000000 00016a2c 
367 .ARM.exidx.text._ZN91_$LT$core..slice..iter..Iter$LT$T$GT$$u20$as$u20$core..iter..traits..iterator..Iterator$GT$4next17h42b8e2d1e4f97919E                                                                          00000000 00016a2c 
368 .ARM.exidx.text._ZN91_$LT$core..slice..iter..Iter$LT$T$GT$$u20$as$u20$core..iter..traits..iterator..Iterator$GT$4next17h8b9620239a978897E                                                                          00000000 00016a2c 
369 .ARM.exidx.text._ZN91_$LT$core..slice..iter..Iter$LT$T$GT$$u20$as$u20$core..iter..traits..iterator..Iterator$GT$4next17he4c19282d38a2c08E                                                                          00000000 00016a2c 
370 .ARM.exidx.text._ZN109_$LT$core..slice..iter..IterMut$LT$T$GT$$u20$as$u20$core..iter..traits..double_ended..DoubleEndedIterator$GT$9next_back17h7431d0be338170dbE                                                  00000000 00016a2c 
371 .ARM.exidx.text._ZN17compiler_builtins3int19specialized_div_rem11zero_div_fn17hf03c95b0b3dbbf31E                                                                                                                   00000000 00016a2c 
372 .ARM.exidx.text._ZN4core4hint21unreachable_unchecked17hf4c0656ed966dd2fE                                                                                                                                           00000000 00016a2c 
373 .ARM.exidx.text.memcpy                                                                                                                                                                                             00000000 00016a2c 
374 .ARM.exidx.text.memset                                                                                                                                                                                             00000000 00016a2c 
375 .ARM.exidx.text.__aeabi_uidivmod                                                                                                                                                                                   00000000 00016a2c 
376 .ARM.exidx.text.__aeabi_memcpy                                                                                                                                                                                     00000000 00016a2c 
377 .ARM.exidx.text.__aeabi_memcpy4                                                                                                                                                                                    00000000 00016a2c 
378 .ARM.exidx.text.__aeabi_memset                                                                                                                                                                                     00000000 00016a2c 
379 .ARM.exidx.text._ZN17compiler_builtins3int19specialized_div_rem23u32_normalization_shift17h0a74ed9fc00af064E                                                                                                       00000000 00016a2c 
380 .ARM.exidx.text._ZN17compiler_builtins3int19specialized_div_rem11u32_div_rem17hd87563ff3b0b2a9aE                                                                                                                   00000000 00016a2c 
381 .ARM.exidx.text._ZN17compiler_builtins3int4udiv9__udivsi317h54b52e769a6ea9c3E                                                                                                                                      00000000 00016a2c 
382 .ARM.exidx.text.__aeabi_uidiv                                                                                                                                                                                      00000000 00016a2c 
383 .ARM.exidx.text._ZN17compiler_builtins3int4udiv12__udivmodsi417h365cb561a3167aa7E                                                                                                                                  00000000 00016a2c 
384 .ARM.exidx.text.__udivmodsi4                                                                                                                                                                                       00000000 00016a2c 
385 .debug_abbrev                                                                                                                                                                                                      00000bb3 00000000 
386 .debug_info                                                                                                                                                                                                        000649a1 00000000 
387 .debug_aranges                                                                                                                                                                                                     00006ef0 00000000 
388 .debug_ranges                                                                                                                                                                                                      0000f978 00000000 
389 .debug_str                                                                                                                                                                                                         00071821 00000000 
390 .debug_pubnames                                                                                                                                                                                                    0001c693 00000000 
391 .debug_pubtypes                                                                                                                                                                                                    00012f57 00000000 
392 .ARM.attributes                                                                                                                                                                                                    0000003e 00000000 
393 .debug_frame                                                                                                                                                                                                       00014f40 00000000 
394 .debug_line                                                                                                                                                                                                        00037616 00000000 
395 .debug_loc                                                                                                                                                                                                         0000128b 00000000 
396 .symtab                                                                                                                                                                                                            00005e30 00000000 
397 .strtab                                                                                                                                                                                                            00007fe8 00000000 
398 .shstrtab                                                                                                                                                                                                          00008953 00000000 

SYMBOL TABLE:
00008000 l    d  .text	00000000 .text
00015000 l    d  .rodata	00000000 .rodata
00016a24 l    d  .ARM.exidx.text.rust_begin_unwind	00000000 .ARM.exidx.text.rust_begin_unwind
00016a2c l    d  .ARM.exidx.text._ZN3nox7println17hc70cef11652a5ddbE	00000000 .ARM.exidx.text._ZN3nox7println17hc70cef11652a5ddbE
00016a2c l    d  .ARM.exidx.text._rmain	00000000 .ARM.exidx.text._rmain
00016a2c l    d  .ARM.exidx.text._ZN4core3str21_$LT$impl$u20$str$GT$3len17h4b2f759e4820fcddE	00000000 .ARM.exidx.text._ZN4core3str21_$LT$impl$u20$str$GT$3len17h4b2f759e4820fcddE
00016a2c l    d  .ARM.exidx.text.gpio_set_function	00000000 .ARM.exidx.text.gpio_set_function
00016a2c l    d  .ARM.exidx.text.gpio_set_uart_func	00000000 .ARM.exidx.text.gpio_set_uart_func
00016a2c l    d  .ARM.exidx.text.gpio_set_output	00000000 .ARM.exidx.text.gpio_set_output
00016a2c l    d  .ARM.exidx.text.gpio_set_on	00000000 .ARM.exidx.text.gpio_set_on
00016a2c l    d  .ARM.exidx.text.gpio_set_off	00000000 .ARM.exidx.text.gpio_set_off
00016a2c l    d  .ARM.exidx.text.blink	00000000 .ARM.exidx.text.blink
00016a2c l    d  .ARM.exidx.text._ZN3nox4gpio7blink_n17hf03cd1aace8836ceE	00000000 .ARM.exidx.text._ZN3nox4gpio7blink_n17hf03cd1aace8836ceE
00016a2c l    d  .ARM.exidx.text._ZN3nox3rpi3nop17h17a184a1429c0195E	00000000 .ARM.exidx.text._ZN3nox3rpi3nop17h17a184a1429c0195E
00016a2c l    d  .ARM.exidx.text._ZN3nox3rpi11dev_barrier17h975e80648f521b27E	00000000 .ARM.exidx.text._ZN3nox3rpi11dev_barrier17h975e80648f521b27E
00016a2c l    d  .ARM.exidx.text._ZN3nox5timer14timer_get_usec17h38c1b05a309f0ae9E	00000000 .ARM.exidx.text._ZN3nox5timer14timer_get_usec17h38c1b05a309f0ae9E
00016a2c l    d  .ARM.exidx.text._ZN3nox5timer8delay_us17h916266004d856edeE	00000000 .ARM.exidx.text._ZN3nox5timer8delay_us17h916266004d856edeE
00016a2c l    d  .ARM.exidx.text._ZN3nox5timer8delay_ms17hb640b6cf54805f53E	00000000 .ARM.exidx.text._ZN3nox5timer8delay_ms17hb640b6cf54805f53E
00016a2c l    d  .ARM.exidx.text.uart_init	00000000 .ARM.exidx.text.uart_init
00016a2c l    d  .ARM.exidx.text.tx_space_available	00000000 .ARM.exidx.text.tx_space_available
00016a2c l    d  .ARM.exidx.text.write_byte	00000000 .ARM.exidx.text.write_byte
00016a2c l    d  .ARM.exidx.text.boot_put32	00000000 .ARM.exidx.text.boot_put32
00016a2c l    d  .ARM.exidx.text.reboot	00000000 .ARM.exidx.text.reboot
00016a2c l    d  .ARM.exidx.text._ZN4core3mem7replace17h2a549129a5a79e26E	00000000 .ARM.exidx.text._ZN4core3mem7replace17h2a549129a5a79e26E
00016a2c l    d  .ARM.exidx.text._ZN4core3mem7replace17h3311c6cdb7da9ee6E	00000000 .ARM.exidx.text._ZN4core3mem7replace17h3311c6cdb7da9ee6E
00016a2c l    d  .ARM.exidx.text._ZN4core3ptr4read17h36e834a5b2ca12d7E	00000000 .ARM.exidx.text._ZN4core3ptr4read17h36e834a5b2ca12d7E
00016a2c l    d  .ARM.exidx.text._ZN4core3ptr4read17h93906c1c0cfe7984E	00000000 .ARM.exidx.text._ZN4core3ptr4read17h93906c1c0cfe7984E
00016a2c l    d  .ARM.exidx.text._ZN4core3ptr5write17h2e094ae3f238e065E	00000000 .ARM.exidx.text._ZN4core3ptr5write17h2e094ae3f238e065E
00016a2c l    d  .ARM.exidx.text._ZN4core3ptr5write17hf477ee493ee8bacaE	00000000 .ARM.exidx.text._ZN4core3ptr5write17hf477ee493ee8bacaE
00016a2c l    d  .ARM.exidx.text._ZN50_$LT$T$u20$as$u20$core..convert..Into$LT$U$GT$$GT$4into17ha4c31a43baa65c7bE	00000000 .ARM.exidx.text._ZN50_$LT$T$u20$as$u20$core..convert..Into$LT$U$GT$$GT$4into17ha4c31a43baa65c7bE
00016a2c l    d  .ARM.exidx.text._ZN89_$LT$core..ops..range..Range$LT$T$GT$$u20$as$u20$core..iter..range..RangeIteratorImpl$GT$9spec_next17hda26481f890a5fd6E	00000000 .ARM.exidx.text._ZN89_$LT$core..ops..range..Range$LT$T$GT$$u20$as$u20$core..iter..range..RangeIteratorImpl$GT$9spec_next17hda26481f890a5fd6E
00016a2c l    d  .ARM.exidx.text._ZN89_$LT$core..ops..range..Range$LT$T$GT$$u20$as$u20$core..iter..range..RangeIteratorImpl$GT$9spec_next17hff9691de6daba183E	00000000 .ARM.exidx.text._ZN89_$LT$core..ops..range..Range$LT$T$GT$$u20$as$u20$core..iter..range..RangeIteratorImpl$GT$9spec_next17hff9691de6daba183E
00016a2c l    d  .ARM.exidx.text._ZN4core4iter5range101_$LT$impl$u20$core..iter..traits..iterator..Iterator$u20$for$u20$core..ops..range..Range$LT$A$GT$$GT$4next17h8b788d2f259818c9E	00000000 .ARM.exidx.text._ZN4core4iter5range101_$LT$impl$u20$core..iter..traits..iterator..Iterator$u20$for$u20$core..ops..range..Range$LT$A$GT$$GT$4next17h8b788d2f259818c9E
00016a2c l    d  .ARM.exidx.text._ZN4core4iter5range101_$LT$impl$u20$core..iter..traits..iterator..Iterator$u20$for$u20$core..ops..range..Range$LT$A$GT$$GT$4next17hce08b9d3072f1ae7E	00000000 .ARM.exidx.text._ZN4core4iter5range101_$LT$impl$u20$core..iter..traits..iterator..Iterator$u20$for$u20$core..ops..range..Range$LT$A$GT$$GT$4next17hce08b9d3072f1ae7E
00016a2c l    d  .ARM.exidx.text._ZN63_$LT$I$u20$as$u20$core..iter..traits..collect..IntoIterator$GT$9into_iter17hb497da6472b3af60E	00000000 .ARM.exidx.text._ZN63_$LT$I$u20$as$u20$core..iter..traits..collect..IntoIterator$GT$9into_iter17hb497da6472b3af60E
00016a2c l    d  .ARM.exidx.text._ZN63_$LT$I$u20$as$u20$core..iter..traits..collect..IntoIterator$GT$9into_iter17hb6d6cd24592f553eE	00000000 .ARM.exidx.text._ZN63_$LT$I$u20$as$u20$core..iter..traits..collect..IntoIterator$GT$9into_iter17hb6d6cd24592f553eE
00016a2c l    d  .ARM.exidx.text._ZN4core5clone5impls52_$LT$impl$u20$core..clone..Clone$u20$for$u20$u32$GT$5clone17h5e0109765ee16457E	00000000 .ARM.exidx.text._ZN4core5clone5impls52_$LT$impl$u20$core..clone..Clone$u20$for$u20$u32$GT$5clone17h5e0109765ee16457E
00016a2c l    d  .ARM.exidx.text._ZN4core5clone5impls52_$LT$impl$u20$core..clone..Clone$u20$for$u20$i32$GT$5clone17hebcf0f3ee497b849E	00000000 .ARM.exidx.text._ZN4core5clone5impls52_$LT$impl$u20$core..clone..Clone$u20$for$u20$i32$GT$5clone17hebcf0f3ee497b849E
00016a2c l    d  .ARM.exidx.text._ZN4core3cmp5impls55_$LT$impl$u20$core..cmp..PartialOrd$u20$for$u20$u32$GT$2lt17h2b7fc589dc418b15E	00000000 .ARM.exidx.text._ZN4core3cmp5impls55_$LT$impl$u20$core..cmp..PartialOrd$u20$for$u20$u32$GT$2lt17h2b7fc589dc418b15E
00016a2c l    d  .ARM.exidx.text._ZN4core3cmp5impls55_$LT$impl$u20$core..cmp..PartialOrd$u20$for$u20$i32$GT$2lt17hce9a9fd1a84b56daE	00000000 .ARM.exidx.text._ZN4core3cmp5impls55_$LT$impl$u20$core..cmp..PartialOrd$u20$for$u20$i32$GT$2lt17hce9a9fd1a84b56daE
00016a2c l    d  .ARM.exidx.text._ZN4core7convert3num63_$LT$impl$u20$core..convert..From$LT$u8$GT$$u20$for$u20$u32$GT$4from17ha5d75d29dd56cfafE	00000000 .ARM.exidx.text._ZN4core7convert3num63_$LT$impl$u20$core..convert..From$LT$u8$GT$$u20$for$u20$u32$GT$4from17ha5d75d29dd56cfafE
00016a2c l    d  .ARM.exidx.text._ZN47_$LT$u32$u20$as$u20$core..iter..range..Step$GT$17forward_unchecked17h7320daeaeed6d3dcE	00000000 .ARM.exidx.text._ZN47_$LT$u32$u20$as$u20$core..iter..range..Step$GT$17forward_unchecked17h7320daeaeed6d3dcE
00016a2c l    d  .ARM.exidx.text._ZN47_$LT$i32$u20$as$u20$core..iter..range..Step$GT$17forward_unchecked17h1a629ec05f83e395E	00000000 .ARM.exidx.text._ZN47_$LT$i32$u20$as$u20$core..iter..range..Step$GT$17forward_unchecked17h1a629ec05f83e395E
00016a2c l    d  .ARM.exidx.text._ZN4core3ops8function6FnOnce9call_once17h02077f446692cad1E	00000000 .ARM.exidx.text._ZN4core3ops8function6FnOnce9call_once17h02077f446692cad1E
00016a2c l    d  .ARM.exidx.text._ZN4core3ops8function6FnOnce9call_once17h0b830900cfc8e13fE	00000000 .ARM.exidx.text._ZN4core3ops8function6FnOnce9call_once17h0b830900cfc8e13fE
00016a2c l    d  .ARM.exidx.text._ZN4core3ops8function6FnOnce9call_once17h10c329ac813edc41E	00000000 .ARM.exidx.text._ZN4core3ops8function6FnOnce9call_once17h10c329ac813edc41E
00016a2c l    d  .ARM.exidx.text._ZN4core3ops8function6FnOnce9call_once17h652a5010643b2035E	00000000 .ARM.exidx.text._ZN4core3ops8function6FnOnce9call_once17h652a5010643b2035E
00016a2c l    d  .ARM.exidx.text._ZN4core3ops8function6FnOnce9call_once17had4262aec2f581dfE	00000000 .ARM.exidx.text._ZN4core3ops8function6FnOnce9call_once17had4262aec2f581dfE
00016a2c l    d  .ARM.exidx.text._ZN4core3ops8function6FnOnce9call_once17hca23baf9ed158dd8E	00000000 .ARM.exidx.text._ZN4core3ops8function6FnOnce9call_once17hca23baf9ed158dd8E
00016a2c l    d  .ARM.exidx.text._ZN4core3ops8function6FnOnce9call_once17hd97bd0814c696285E	00000000 .ARM.exidx.text._ZN4core3ops8function6FnOnce9call_once17hd97bd0814c696285E
00016a2c l    d  .ARM.exidx.text._ZN4core3ops8function6FnOnce9call_once17hef1f5979641ae403E	00000000 .ARM.exidx.text._ZN4core3ops8function6FnOnce9call_once17hef1f5979641ae403E
00016a2c l    d  .ARM.exidx.text._ZN4core3ptr30drop_in_place$LT$$RF$usize$GT$17h7f854e86168e2e61E	00000000 .ARM.exidx.text._ZN4core3ptr30drop_in_place$LT$$RF$usize$GT$17h7f854e86168e2e61E
00016a2c l    d  .ARM.exidx.text._ZN4core3ptr88drop_in_place$LT$core..panic..panic_info..PanicInfo..internal_constructor..NoPayload$GT$17hec2b155977c27d61E	00000000 .ARM.exidx.text._ZN4core3ptr88drop_in_place$LT$core..panic..panic_info..PanicInfo..internal_constructor..NoPayload$GT$17hec2b155977c27d61E
00016a2c l    d  .ARM.exidx.text._ZN4core3num20_$LT$impl$u20$u8$GT$21is_utf8_char_boundary17h9c9d7c574f60edcfE	00000000 .ARM.exidx.text._ZN4core3num20_$LT$impl$u20$u8$GT$21is_utf8_char_boundary17h9c9d7c574f60edcfE
00016a2c l    d  .ARM.exidx.text._ZN4core4hint21unreachable_unchecked17h18b8e30063cbc1c9E	00000000 .ARM.exidx.text._ZN4core4hint21unreachable_unchecked17h18b8e30063cbc1c9E
00016a2c l    d  .ARM.exidx.text._ZN4core10intrinsics23is_aligned_and_not_null17h1cf92320775c1a7bE	00000000 .ARM.exidx.text._ZN4core10intrinsics23is_aligned_and_not_null17h1cf92320775c1a7bE
00016a2c l    d  .ARM.exidx.text._ZN4core10intrinsics23is_aligned_and_not_null17h6209c0cd9c9d888aE	00000000 .ARM.exidx.text._ZN4core10intrinsics23is_aligned_and_not_null17h6209c0cd9c9d888aE
00016a2c l    d  .ARM.exidx.text._ZN4core10intrinsics23is_aligned_and_not_null17hcdf3ab3f95013724E	00000000 .ARM.exidx.text._ZN4core10intrinsics23is_aligned_and_not_null17hcdf3ab3f95013724E
00016a2c l    d  .ARM.exidx.text._ZN4core10intrinsics17is_nonoverlapping17hb33c400eb01e2e83E	00000000 .ARM.exidx.text._ZN4core10intrinsics17is_nonoverlapping17hb33c400eb01e2e83E
00016a2c l    d  .ARM.exidx.text._ZN4core10intrinsics17is_nonoverlapping17hbdfdb020c59df781E	00000000 .ARM.exidx.text._ZN4core10intrinsics17is_nonoverlapping17hbdfdb020c59df781E
00016a2c l    d  .ARM.exidx.text._ZN4core10intrinsics19copy_nonoverlapping17h0629c929e1c61b12E	00000000 .ARM.exidx.text._ZN4core10intrinsics19copy_nonoverlapping17h0629c929e1c61b12E
00016a2c l    d  .ARM.exidx.text._ZN4core10intrinsics19copy_nonoverlapping17hb935fbdf8fc9b991E	00000000 .ARM.exidx.text._ZN4core10intrinsics19copy_nonoverlapping17hb935fbdf8fc9b991E
00016a2c l    d  .ARM.exidx.text._ZN4core10intrinsics19copy_nonoverlapping13runtime_check17h04ce58f9c314a303E	00000000 .ARM.exidx.text._ZN4core10intrinsics19copy_nonoverlapping13runtime_check17h04ce58f9c314a303E
00016a2c l    d  .ARM.exidx.text._ZN4core10intrinsics19copy_nonoverlapping13runtime_check17h200abbf7d42fd906E	00000000 .ARM.exidx.text._ZN4core10intrinsics19copy_nonoverlapping13runtime_check17h200abbf7d42fd906E
00016a2c l    d  .ARM.exidx.text._ZN4core10intrinsics11write_bytes17h5e8a1fcfeef63718E	00000000 .ARM.exidx.text._ZN4core10intrinsics11write_bytes17h5e8a1fcfeef63718E
00016a2c l    d  .ARM.exidx.text._ZN4core10intrinsics11write_bytes13runtime_check17h676bfc7336c4bd8cE	00000000 .ARM.exidx.text._ZN4core10intrinsics11write_bytes13runtime_check17h676bfc7336c4bd8cE
00016a2c l    d  .ARM.exidx.text._ZN4core10intrinsics17const_eval_select17h015b543c3f81d79cE	00000000 .ARM.exidx.text._ZN4core10intrinsics17const_eval_select17h015b543c3f81d79cE
00016a2c l    d  .ARM.exidx.text._ZN4core10intrinsics17const_eval_select17h41fe6b117cd2cd5aE	00000000 .ARM.exidx.text._ZN4core10intrinsics17const_eval_select17h41fe6b117cd2cd5aE
00016a2c l    d  .ARM.exidx.text._ZN4core10intrinsics17const_eval_select17h68e7ef67a5102aecE	00000000 .ARM.exidx.text._ZN4core10intrinsics17const_eval_select17h68e7ef67a5102aecE
00016a2c l    d  .ARM.exidx.text._ZN4core10intrinsics17const_eval_select17h8009a97f66a39950E	00000000 .ARM.exidx.text._ZN4core10intrinsics17const_eval_select17h8009a97f66a39950E
00016a2c l    d  .ARM.exidx.text._ZN4core10intrinsics17const_eval_select17ha3ffe22ae3a1c2f8E	00000000 .ARM.exidx.text._ZN4core10intrinsics17const_eval_select17ha3ffe22ae3a1c2f8E
00016a2c l    d  .ARM.exidx.text._ZN4core10intrinsics17const_eval_select17hb0822b569c9aeb4cE	00000000 .ARM.exidx.text._ZN4core10intrinsics17const_eval_select17hb0822b569c9aeb4cE
00016a2c l    d  .ARM.exidx.text._ZN4core3mem4swap17h452343371b57d963E	00000000 .ARM.exidx.text._ZN4core3mem4swap17h452343371b57d963E
00016a2c l    d  .ARM.exidx.text._ZN4core3mem7replace17h517b6fe9151f1a70E	00000000 .ARM.exidx.text._ZN4core3mem7replace17h517b6fe9151f1a70E
00016a2c l    d  .ARM.exidx.text._ZN4core3mem7replace17h597251809dff5828E	00000000 .ARM.exidx.text._ZN4core3mem7replace17h597251809dff5828E
00016a2c l    d  .ARM.exidx.text._ZN4core3mem7replace17hb3b3ec1c42c6a29fE	00000000 .ARM.exidx.text._ZN4core3mem7replace17hb3b3ec1c42c6a29fE
00016a2c l    d  .ARM.exidx.text._ZN4core3ptr8metadata8metadata17h3c59b893e207686aE	00000000 .ARM.exidx.text._ZN4core3ptr8metadata8metadata17h3c59b893e207686aE
00016a2c l    d  .ARM.exidx.text._ZN4core3ptr8metadata8metadata17h6e0e6941870f5ff5E	00000000 .ARM.exidx.text._ZN4core3ptr8metadata8metadata17h6e0e6941870f5ff5E
00016a2c l    d  .ARM.exidx.text._ZN4core3ptr8metadata8metadata17hb8875a23a1e846f0E	00000000 .ARM.exidx.text._ZN4core3ptr8metadata8metadata17hb8875a23a1e846f0E
00016a2c l    d  .ARM.exidx.text._ZN4core3ptr8metadata14from_raw_parts17h2f6ebd559309ba48E	00000000 .ARM.exidx.text._ZN4core3ptr8metadata14from_raw_parts17h2f6ebd559309ba48E
00016a2c l    d  .ARM.exidx.text._ZN4core3ptr8metadata14from_raw_parts17h46f219276bb9ceb2E	00000000 .ARM.exidx.text._ZN4core3ptr8metadata14from_raw_parts17h46f219276bb9ceb2E
00016a2c l    d  .ARM.exidx.text._ZN4core3ptr8metadata14from_raw_parts17h5617291b34a7c9beE	00000000 .ARM.exidx.text._ZN4core3ptr8metadata14from_raw_parts17h5617291b34a7c9beE
00016a2c l    d  .ARM.exidx.text._ZN4core3ptr8metadata14from_raw_parts17haf24b97d7c3c8fe2E	00000000 .ARM.exidx.text._ZN4core3ptr8metadata14from_raw_parts17haf24b97d7c3c8fe2E
00016a2c l    d  .ARM.exidx.text._ZN4core3ptr8non_null16NonNull$LT$T$GT$13new_unchecked17h0ee93a64da3b0115E	00000000 .ARM.exidx.text._ZN4core3ptr8non_null16NonNull$LT$T$GT$13new_unchecked17h0ee93a64da3b0115E
00016a2c l    d  .ARM.exidx.text._ZN4core3ptr8non_null16NonNull$LT$T$GT$13new_unchecked17h311ebeac35d490ecE	00000000 .ARM.exidx.text._ZN4core3ptr8non_null16NonNull$LT$T$GT$13new_unchecked17h311ebeac35d490ecE
00016a2c l    d  .ARM.exidx.text._ZN4core3ptr8non_null16NonNull$LT$T$GT$13new_unchecked17h9e203cabf018418aE	00000000 .ARM.exidx.text._ZN4core3ptr8non_null16NonNull$LT$T$GT$13new_unchecked17h9e203cabf018418aE
00016a2c l    d  .ARM.exidx.text._ZN4core3ptr8non_null16NonNull$LT$T$GT$13new_unchecked17h9fac1d850925ce4dE	00000000 .ARM.exidx.text._ZN4core3ptr8non_null16NonNull$LT$T$GT$13new_unchecked17h9fac1d850925ce4dE
00016a2c l    d  .ARM.exidx.text._ZN4core3ptr8non_null16NonNull$LT$T$GT$13new_unchecked17ha617d323a7fc3e1eE	00000000 .ARM.exidx.text._ZN4core3ptr8non_null16NonNull$LT$T$GT$13new_unchecked17ha617d323a7fc3e1eE
00016a2c l    d  .ARM.exidx.text._ZN4core3ptr8non_null16NonNull$LT$T$GT$13new_unchecked17he5acd71300b46a98E	00000000 .ARM.exidx.text._ZN4core3ptr8non_null16NonNull$LT$T$GT$13new_unchecked17he5acd71300b46a98E
00016a2c l    d  .ARM.exidx.text._ZN4core3ptr8non_null16NonNull$LT$T$GT$6as_ptr17h3c04a1b813cf7ee8E	00000000 .ARM.exidx.text._ZN4core3ptr8non_null16NonNull$LT$T$GT$6as_ptr17h3c04a1b813cf7ee8E
00016a2c l    d  .ARM.exidx.text._ZN4core3ptr8non_null16NonNull$LT$T$GT$6as_ptr17h761e972d0d67cfa0E	00000000 .ARM.exidx.text._ZN4core3ptr8non_null16NonNull$LT$T$GT$6as_ptr17h761e972d0d67cfa0E
00016a2c l    d  .ARM.exidx.text._ZN4core3ptr8non_null16NonNull$LT$T$GT$6as_ptr17hd1053c8517587e17E	00000000 .ARM.exidx.text._ZN4core3ptr8non_null16NonNull$LT$T$GT$6as_ptr17hd1053c8517587e17E
00016a2c l    d  .ARM.exidx.text._ZN4core3ptr8non_null16NonNull$LT$T$GT$6as_ptr17he636665efe449a92E	00000000 .ARM.exidx.text._ZN4core3ptr8non_null16NonNull$LT$T$GT$6as_ptr17he636665efe449a92E
00016a2c l    d  .ARM.exidx.text._ZN4core3ptr8non_null16NonNull$LT$T$GT$6as_ptr17he93dfc44e8018818E	00000000 .ARM.exidx.text._ZN4core3ptr8non_null16NonNull$LT$T$GT$6as_ptr17he93dfc44e8018818E
00016a2c l    d  .ARM.exidx.text._ZN4core3ptr8non_null16NonNull$LT$T$GT$6as_ptr17hf9d79c67c5818bafE	00000000 .ARM.exidx.text._ZN4core3ptr8non_null16NonNull$LT$T$GT$6as_ptr17hf9d79c67c5818bafE
00016a2c l    d  .ARM.exidx.text._ZN4core3ptr9const_ptr33_$LT$impl$u20$$BP$const$u20$T$GT$7is_null17h01921eafcee4a16bE	00000000 .ARM.exidx.text._ZN4core3ptr9const_ptr33_$LT$impl$u20$$BP$const$u20$T$GT$7is_null17h01921eafcee4a16bE
00016a2c l    d  .ARM.exidx.text._ZN4core3ptr9const_ptr33_$LT$impl$u20$$BP$const$u20$T$GT$7is_null17h099dd4bded18252fE	00000000 .ARM.exidx.text._ZN4core3ptr9const_ptr33_$LT$impl$u20$$BP$const$u20$T$GT$7is_null17h099dd4bded18252fE
00016a2c l    d  .ARM.exidx.text._ZN4core3ptr9const_ptr33_$LT$impl$u20$$BP$const$u20$T$GT$7is_null17h8bf2c1c38017a24bE	00000000 .ARM.exidx.text._ZN4core3ptr9const_ptr33_$LT$impl$u20$$BP$const$u20$T$GT$7is_null17h8bf2c1c38017a24bE
00016a2c l    d  .ARM.exidx.text._ZN4core3ptr9const_ptr33_$LT$impl$u20$$BP$const$u20$T$GT$7is_null17ha263ef11114199f5E	00000000 .ARM.exidx.text._ZN4core3ptr9const_ptr33_$LT$impl$u20$$BP$const$u20$T$GT$7is_null17ha263ef11114199f5E
00016a2c l    d  .ARM.exidx.text._ZN4core3ptr9const_ptr33_$LT$impl$u20$$BP$const$u20$T$GT$7is_null17ha3dab16996a599e5E	00000000 .ARM.exidx.text._ZN4core3ptr9const_ptr33_$LT$impl$u20$$BP$const$u20$T$GT$7is_null17ha3dab16996a599e5E
00016a2c l    d  .ARM.exidx.text._ZN4core3ptr9const_ptr33_$LT$impl$u20$$BP$const$u20$T$GT$4cast17h1ad786fa4cfa8018E	00000000 .ARM.exidx.text._ZN4core3ptr9const_ptr33_$LT$impl$u20$$BP$const$u20$T$GT$4cast17h1ad786fa4cfa8018E
00016a2c l    d  .ARM.exidx.text._ZN4core3ptr9const_ptr33_$LT$impl$u20$$BP$const$u20$T$GT$4cast17h1d12769d8025b878E	00000000 .ARM.exidx.text._ZN4core3ptr9const_ptr33_$LT$impl$u20$$BP$const$u20$T$GT$4cast17h1d12769d8025b878E
00016a2c l    d  .ARM.exidx.text._ZN4core3ptr9const_ptr33_$LT$impl$u20$$BP$const$u20$T$GT$4cast17h606afd092da50d67E	00000000 .ARM.exidx.text._ZN4core3ptr9const_ptr33_$LT$impl$u20$$BP$const$u20$T$GT$4cast17h606afd092da50d67E
00016a2c l    d  .ARM.exidx.text._ZN4core3ptr9const_ptr33_$LT$impl$u20$$BP$const$u20$T$GT$4cast17hcedaa77a0aa3b0b5E	00000000 .ARM.exidx.text._ZN4core3ptr9const_ptr33_$LT$impl$u20$$BP$const$u20$T$GT$4cast17hcedaa77a0aa3b0b5E
00016a2c l    d  .ARM.exidx.text._ZN4core3ptr9const_ptr33_$LT$impl$u20$$BP$const$u20$T$GT$4cast17hda8d7474972e149fE	00000000 .ARM.exidx.text._ZN4core3ptr9const_ptr33_$LT$impl$u20$$BP$const$u20$T$GT$4cast17hda8d7474972e149fE
00016a2c l    d  .ARM.exidx.text._ZN4core3ptr9const_ptr33_$LT$impl$u20$$BP$const$u20$T$GT$13guaranteed_eq17h5fbdb62c96a7f5f1E	00000000 .ARM.exidx.text._ZN4core3ptr9const_ptr33_$LT$impl$u20$$BP$const$u20$T$GT$13guaranteed_eq17h5fbdb62c96a7f5f1E
00016a2c l    d  .ARM.exidx.text._ZN4core3ptr9const_ptr43_$LT$impl$u20$$BP$const$u20$$u5b$T$u5d$$GT$3len17h49bd0a8aa184075eE	00000000 .ARM.exidx.text._ZN4core3ptr9const_ptr43_$LT$impl$u20$$BP$const$u20$$u5b$T$u5d$$GT$3len17h49bd0a8aa184075eE
00016a2c l    d  .ARM.exidx.text._ZN4core3ptr9const_ptr43_$LT$impl$u20$$BP$const$u20$$u5b$T$u5d$$GT$3len17h8c5325d91ce47adcE	00000000 .ARM.exidx.text._ZN4core3ptr9const_ptr43_$LT$impl$u20$$BP$const$u20$$u5b$T$u5d$$GT$3len17h8c5325d91ce47adcE
00016a2c l    d  .ARM.exidx.text._ZN4core3ptr9const_ptr43_$LT$impl$u20$$BP$const$u20$$u5b$T$u5d$$GT$3len17habc3883e5b7bf186E	00000000 .ARM.exidx.text._ZN4core3ptr9const_ptr43_$LT$impl$u20$$BP$const$u20$$u5b$T$u5d$$GT$3len17habc3883e5b7bf186E
00016a2c l    d  .ARM.exidx.text._ZN4core3ptr9const_ptr43_$LT$impl$u20$$BP$const$u20$$u5b$T$u5d$$GT$6as_ptr17h4fe380040f4b7310E	00000000 .ARM.exidx.text._ZN4core3ptr9const_ptr43_$LT$impl$u20$$BP$const$u20$$u5b$T$u5d$$GT$6as_ptr17h4fe380040f4b7310E
00016a2c l    d  .ARM.exidx.text._ZN4core3ptr9const_ptr43_$LT$impl$u20$$BP$const$u20$$u5b$T$u5d$$GT$6as_ptr17h6657ebba067a132bE	00000000 .ARM.exidx.text._ZN4core3ptr9const_ptr43_$LT$impl$u20$$BP$const$u20$$u5b$T$u5d$$GT$6as_ptr17h6657ebba067a132bE
00016a2c l    d  .ARM.exidx.text._ZN4core3ptr9const_ptr43_$LT$impl$u20$$BP$const$u20$$u5b$T$u5d$$GT$6as_ptr17h73d8ecc888b4838aE	00000000 .ARM.exidx.text._ZN4core3ptr9const_ptr43_$LT$impl$u20$$BP$const$u20$$u5b$T$u5d$$GT$6as_ptr17h73d8ecc888b4838aE
00016a2c l    d  .ARM.exidx.text._ZN4core3ptr9const_ptr43_$LT$impl$u20$$BP$const$u20$$u5b$T$u5d$$GT$6as_ptr17hac7f6cf6a075aa09E	00000000 .ARM.exidx.text._ZN4core3ptr9const_ptr43_$LT$impl$u20$$BP$const$u20$$u5b$T$u5d$$GT$6as_ptr17hac7f6cf6a075aa09E
00016a2c l    d  .ARM.exidx.text._ZN4core3ptr9const_ptr43_$LT$impl$u20$$BP$const$u20$$u5b$T$u5d$$GT$6as_ptr17hf6615c2fc9303a1fE	00000000 .ARM.exidx.text._ZN4core3ptr9const_ptr43_$LT$impl$u20$$BP$const$u20$$u5b$T$u5d$$GT$6as_ptr17hf6615c2fc9303a1fE
00016a2c l    d  .ARM.exidx.text._ZN4core3ptr7mut_ptr31_$LT$impl$u20$$BP$mut$u20$T$GT$7is_null17h3b9b5ff4a0433e48E	00000000 .ARM.exidx.text._ZN4core3ptr7mut_ptr31_$LT$impl$u20$$BP$mut$u20$T$GT$7is_null17h3b9b5ff4a0433e48E
00016a2c l    d  .ARM.exidx.text._ZN4core3ptr7mut_ptr31_$LT$impl$u20$$BP$mut$u20$T$GT$7is_null17h90840b4ddc66cc04E	00000000 .ARM.exidx.text._ZN4core3ptr7mut_ptr31_$LT$impl$u20$$BP$mut$u20$T$GT$7is_null17h90840b4ddc66cc04E
00016a2c l    d  .ARM.exidx.text._ZN4core3ptr7mut_ptr31_$LT$impl$u20$$BP$mut$u20$T$GT$7is_null17hc32b3f5d78eeade4E	00000000 .ARM.exidx.text._ZN4core3ptr7mut_ptr31_$LT$impl$u20$$BP$mut$u20$T$GT$7is_null17hc32b3f5d78eeade4E
00016a2c l    d  .ARM.exidx.text._ZN4core3ptr7mut_ptr31_$LT$impl$u20$$BP$mut$u20$T$GT$7is_null17hdc47570171e130c6E	00000000 .ARM.exidx.text._ZN4core3ptr7mut_ptr31_$LT$impl$u20$$BP$mut$u20$T$GT$7is_null17hdc47570171e130c6E
00016a2c l    d  .ARM.exidx.text._ZN4core3ptr7mut_ptr31_$LT$impl$u20$$BP$mut$u20$T$GT$7is_null17hdfc7f1fcc93be4b4E	00000000 .ARM.exidx.text._ZN4core3ptr7mut_ptr31_$LT$impl$u20$$BP$mut$u20$T$GT$7is_null17hdfc7f1fcc93be4b4E
00016a2c l    d  .ARM.exidx.text._ZN4core3ptr7mut_ptr31_$LT$impl$u20$$BP$mut$u20$T$GT$7is_null17he2aafd5fc4a2f886E	00000000 .ARM.exidx.text._ZN4core3ptr7mut_ptr31_$LT$impl$u20$$BP$mut$u20$T$GT$7is_null17he2aafd5fc4a2f886E
00016a2c l    d  .ARM.exidx.text._ZN4core3ptr7mut_ptr31_$LT$impl$u20$$BP$mut$u20$T$GT$13guaranteed_eq17h7715c21885c6e098E	00000000 .ARM.exidx.text._ZN4core3ptr7mut_ptr31_$LT$impl$u20$$BP$mut$u20$T$GT$13guaranteed_eq17h7715c21885c6e098E
00016a2c l    d  .ARM.exidx.text._ZN4core3ptr20slice_from_raw_parts17h472b2ea1a48027e0E	00000000 .ARM.exidx.text._ZN4core3ptr20slice_from_raw_parts17h472b2ea1a48027e0E
00016a2c l    d  .ARM.exidx.text._ZN4core3ptr20slice_from_raw_parts17h739fb1d7ea7e2968E	00000000 .ARM.exidx.text._ZN4core3ptr20slice_from_raw_parts17h739fb1d7ea7e2968E
00016a2c l    d  .ARM.exidx.text._ZN4core3ptr20slice_from_raw_parts17h7eb9f3b40e6a6c9aE	00000000 .ARM.exidx.text._ZN4core3ptr20slice_from_raw_parts17h7eb9f3b40e6a6c9aE
00016a2c l    d  .ARM.exidx.text._ZN4core3ptr20slice_from_raw_parts17h9ed24265d259b02cE	00000000 .ARM.exidx.text._ZN4core3ptr20slice_from_raw_parts17h9ed24265d259b02cE
00016a2c l    d  .ARM.exidx.text._ZN4core3ptr19swap_nonoverlapping17hcb191387e6ec01aaE	00000000 .ARM.exidx.text._ZN4core3ptr19swap_nonoverlapping17hcb191387e6ec01aaE
00016a2c l    d  .ARM.exidx.text._ZN4core3ptr23swap_nonoverlapping_one17h067d40ae001e0b5fE	00000000 .ARM.exidx.text._ZN4core3ptr23swap_nonoverlapping_one17h067d40ae001e0b5fE
00016a2c l    d  .ARM.exidx.text._ZN4core3ptr25swap_nonoverlapping_bytes17hf060f760246acaadE	00000000 .ARM.exidx.text._ZN4core3ptr25swap_nonoverlapping_bytes17hf060f760246acaadE
00016a2c l    d  .ARM.exidx.text._ZN4core3ptr4read17h19ff7a152842ec41E	00000000 .ARM.exidx.text._ZN4core3ptr4read17h19ff7a152842ec41E
00016a2c l    d  .ARM.exidx.text._ZN4core3ptr4read17h3473fc0b0283b685E	00000000 .ARM.exidx.text._ZN4core3ptr4read17h3473fc0b0283b685E
00016a2c l    d  .ARM.exidx.text._ZN4core3ptr4read17h82833b6a1cadad05E	00000000 .ARM.exidx.text._ZN4core3ptr4read17h82833b6a1cadad05E
00016a2c l    d  .ARM.exidx.text._ZN4core3ptr5write17h41ed2670b0606b5fE	00000000 .ARM.exidx.text._ZN4core3ptr5write17h41ed2670b0606b5fE
00016a2c l    d  .ARM.exidx.text._ZN4core3ptr5write17hcc50e8a29615fba3E	00000000 .ARM.exidx.text._ZN4core3ptr5write17hcc50e8a29615fba3E
00016a2c l    d  .ARM.exidx.text._ZN4core3ptr5write17hd1ac115afc87545cE	00000000 .ARM.exidx.text._ZN4core3ptr5write17hd1ac115afc87545cE
00016a2c l    d  .ARM.exidx.text._ZN4core3ptr13read_volatile17hc050ce1962d20f3dE	00000000 .ARM.exidx.text._ZN4core3ptr13read_volatile17hc050ce1962d20f3dE
00016a2c l    d  .ARM.exidx.text._ZN4core3ptr12align_offset17h7dced9cb56e93b5fE	00000000 .ARM.exidx.text._ZN4core3ptr12align_offset17h7dced9cb56e93b5fE
00016a2c l    d  .ARM.exidx.text._ZN4core3ptr12align_offset7mod_inv17h2dd2e6f553a56476E	00000000 .ARM.exidx.text._ZN4core3ptr12align_offset7mod_inv17h2dd2e6f553a56476E
00016a2c l    d  .ARM.exidx.text._ZN4core3cmp3Ord3min17h4dfc62cab0572f9aE	00000000 .ARM.exidx.text._ZN4core3cmp3Ord3min17h4dfc62cab0572f9aE
00016a2c l    d  .ARM.exidx.text._ZN4core3cmp3min17h6d687506da1e36f6E	00000000 .ARM.exidx.text._ZN4core3cmp3min17h6d687506da1e36f6E
00016a2c l    d  .ARM.exidx.text._ZN4core3cmp6min_by17h96db7358e1a3abc5E	00000000 .ARM.exidx.text._ZN4core3cmp6min_by17h96db7358e1a3abc5E
00016a2c l    d  .ARM.exidx.text._ZN50_$LT$T$u20$as$u20$core..convert..From$LT$T$GT$$GT$4from17h6610ac7b74997422E	00000000 .ARM.exidx.text._ZN50_$LT$T$u20$as$u20$core..convert..From$LT$T$GT$$GT$4from17h6610ac7b74997422E
00016a2c l    d  .ARM.exidx.text._ZN50_$LT$T$u20$as$u20$core..convert..From$LT$T$GT$$GT$4from17hec8ef8de88f19ff9E	00000000 .ARM.exidx.text._ZN50_$LT$T$u20$as$u20$core..convert..From$LT$T$GT$$GT$4from17hec8ef8de88f19ff9E
00016a2c l    d  .ARM.exidx.text._ZN36_$LT$T$u20$as$u20$core..any..Any$GT$7type_id17hd04d48d4412c3c49E	00000000 .ARM.exidx.text._ZN36_$LT$T$u20$as$u20$core..any..Any$GT$7type_id17hd04d48d4412c3c49E
00016a2c l    d  .ARM.exidx.text._ZN4core3any6TypeId2of17ha643ce6bef11a2fdE	00000000 .ARM.exidx.text._ZN4core3any6TypeId2of17ha643ce6bef11a2fdE
00016a2c l    d  .ARM.exidx.text._ZN4core5array98_$LT$impl$u20$core..iter..traits..collect..IntoIterator$u20$for$u20$$RF$$u5b$T$u3b$$u20$N$u5d$$GT$9into_iter17h3c7ec5274e531605E	00000000 .ARM.exidx.text._ZN4core5array98_$LT$impl$u20$core..iter..traits..collect..IntoIterator$u20$for$u20$$RF$$u5b$T$u3b$$u20$N$u5d$$GT$9into_iter17h3c7ec5274e531605E
00016a2c l    d  .ARM.exidx.text._ZN4core5array85_$LT$impl$u20$core..ops..index..Index$LT$I$GT$$u20$for$u20$$u5b$T$u3b$$u20$N$u5d$$GT$5index17h014adf7b6a71ea87E	00000000 .ARM.exidx.text._ZN4core5array85_$LT$impl$u20$core..ops..index..Index$LT$I$GT$$u20$for$u20$$u5b$T$u3b$$u20$N$u5d$$GT$5index17h014adf7b6a71ea87E
00016a2c l    d  .ARM.exidx.text._ZN4core4char7convert8from_u3217h24f958a1bed963c3E	00000000 .ARM.exidx.text._ZN4core4char7convert8from_u3217h24f958a1bed963c3E
00016a2c l    d  .ARM.exidx.text._ZN4core4char7convert18from_u32_unchecked17ha5af22e9e29cbbabE	00000000 .ARM.exidx.text._ZN4core4char7convert18from_u32_unchecked17ha5af22e9e29cbbabE
00016a2c l    d  .ARM.exidx.text._ZN4core4char7convert17char_try_from_u3217h6bb3e43a3189a8acE	00000000 .ARM.exidx.text._ZN4core4char7convert17char_try_from_u3217h6bb3e43a3189a8acE
00016a2c l    d  .ARM.exidx.text._ZN4core4char7methods22_$LT$impl$u20$char$GT$8from_u3217h1354ded5383331daE	00000000 .ARM.exidx.text._ZN4core4char7methods22_$LT$impl$u20$char$GT$8from_u3217h1354ded5383331daE
00016a2c l    d  .ARM.exidx.text._ZN4core4iter8adapters9enumerate18Enumerate$LT$I$GT$3new17h30a86619e2211648E	00000000 .ARM.exidx.text._ZN4core4iter8adapters9enumerate18Enumerate$LT$I$GT$3new17h30a86619e2211648E
00016a2c l    d  .ARM.exidx.text._ZN4core4iter8adapters9enumerate18Enumerate$LT$I$GT$3new17h3c91e6ea800288abE	00000000 .ARM.exidx.text._ZN4core4iter8adapters9enumerate18Enumerate$LT$I$GT$3new17h3c91e6ea800288abE
00016a2c l    d  .ARM.exidx.text._ZN110_$LT$core..iter..adapters..enumerate..Enumerate$LT$I$GT$$u20$as$u20$core..iter..traits..iterator..Iterator$GT$4next17h1e2fd37d8b362b23E	00000000 .ARM.exidx.text._ZN110_$LT$core..iter..adapters..enumerate..Enumerate$LT$I$GT$$u20$as$u20$core..iter..traits..iterator..Iterator$GT$4next17h1e2fd37d8b362b23E
00016a2c l    d  .ARM.exidx.text._ZN110_$LT$core..iter..adapters..enumerate..Enumerate$LT$I$GT$$u20$as$u20$core..iter..traits..iterator..Iterator$GT$4next17hddd185bba0331b1dE	00000000 .ARM.exidx.text._ZN110_$LT$core..iter..adapters..enumerate..Enumerate$LT$I$GT$$u20$as$u20$core..iter..traits..iterator..Iterator$GT$4next17hddd185bba0331b1dE
00016a2c l    d  .ARM.exidx.text._ZN4core4iter8adapters6filter19Filter$LT$I$C$P$GT$3new17hda6d6ee773a1a87fE	00000000 .ARM.exidx.text._ZN4core4iter8adapters6filter19Filter$LT$I$C$P$GT$3new17hda6d6ee773a1a87fE
00016a2c l    d  .ARM.exidx.text._ZN108_$LT$core..iter..adapters..filter..Filter$LT$I$C$P$GT$$u20$as$u20$core..iter..traits..iterator..Iterator$GT$5count17h4d419545bff67014E	00000000 .ARM.exidx.text._ZN108_$LT$core..iter..adapters..filter..Filter$LT$I$C$P$GT$$u20$as$u20$core..iter..traits..iterator..Iterator$GT$5count17h4d419545bff67014E
00016a2c l    d  .ARM.exidx.text._ZN108_$LT$core..iter..adapters..filter..Filter$LT$I$C$P$GT$$u20$as$u20$core..iter..traits..iterator..Iterator$GT$5count8to_usize17h24a9eb2d93f67194E	00000000 .ARM.exidx.text._ZN108_$LT$core..iter..adapters..filter..Filter$LT$I$C$P$GT$$u20$as$u20$core..iter..traits..iterator..Iterator$GT$5count8to_usize17h24a9eb2d93f67194E
00016a2c l    d  .ARM.exidx.text._ZN108_$LT$core..iter..adapters..filter..Filter$LT$I$C$P$GT$$u20$as$u20$core..iter..traits..iterator..Iterator$GT$5count8to_usize28_$u7b$$u7b$closure$u7d$$u7d$17h0a32ef45571190ddE	00000000 .ARM.exidx.text._ZN108_$LT$core..iter..adapters..filter..Filter$LT$I$C$P$GT$$u20$as$u20$core..iter..traits..iterator..Iterator$GT$5count8to_usize28_$u7b$$u7b$closure$u7d$$u7d$17h0a32ef45571190ddE
00016a2c l    d  .ARM.exidx.text._ZN4core4iter8adapters3map16Map$LT$I$C$F$GT$3new17h2edd8df264650194E	00000000 .ARM.exidx.text._ZN4core4iter8adapters3map16Map$LT$I$C$F$GT$3new17h2edd8df264650194E
00016a2c l    d  .ARM.exidx.text._ZN4core4iter8adapters3map8map_fold17hbb914d779fa750a4E	00000000 .ARM.exidx.text._ZN4core4iter8adapters3map8map_fold17hbb914d779fa750a4E
00016a2c l    d  .ARM.exidx.text._ZN4core4iter8adapters3map8map_fold28_$u7b$$u7b$closure$u7d$$u7d$17h5d5a7cdf537d9ae3E	00000000 .ARM.exidx.text._ZN4core4iter8adapters3map8map_fold28_$u7b$$u7b$closure$u7d$$u7d$17h5d5a7cdf537d9ae3E
00016a2c l    d  .ARM.exidx.text._ZN102_$LT$core..iter..adapters..map..Map$LT$I$C$F$GT$$u20$as$u20$core..iter..traits..iterator..Iterator$GT$4fold17h1864fdb0ab936070E	00000000 .ARM.exidx.text._ZN102_$LT$core..iter..adapters..map..Map$LT$I$C$F$GT$$u20$as$u20$core..iter..traits..iterator..Iterator$GT$4fold17h1864fdb0ab936070E
00016a2c l    d  .ARM.exidx.text._ZN4core4iter8adapters3rev12Rev$LT$T$GT$3new17hdff58e4042bd065fE	00000000 .ARM.exidx.text._ZN4core4iter8adapters3rev12Rev$LT$T$GT$3new17hdff58e4042bd065fE
00016a2c l    d  .ARM.exidx.text._ZN98_$LT$core..iter..adapters..rev..Rev$LT$I$GT$$u20$as$u20$core..iter..traits..iterator..Iterator$GT$4next17haa679e51fd5c7fb6E	00000000 .ARM.exidx.text._ZN98_$LT$core..iter..adapters..rev..Rev$LT$I$GT$$u20$as$u20$core..iter..traits..iterator..Iterator$GT$4next17haa679e51fd5c7fb6E
00016a2c l    d  .ARM.exidx.text._ZN89_$LT$core..ops..range..Range$LT$T$GT$$u20$as$u20$core..iter..range..RangeIteratorImpl$GT$9spec_next17h3773e4f0e8313430E	00000000 .ARM.exidx.text._ZN89_$LT$core..ops..range..Range$LT$T$GT$$u20$as$u20$core..iter..range..RangeIteratorImpl$GT$9spec_next17h3773e4f0e8313430E
00016a2c l    d  .ARM.exidx.text._ZN4core4iter5range101_$LT$impl$u20$core..iter..traits..iterator..Iterator$u20$for$u20$core..ops..range..Range$LT$A$GT$$GT$4next17h679e961ab2e050c2E	00000000 .ARM.exidx.text._ZN4core4iter5range101_$LT$impl$u20$core..iter..traits..iterator..Iterator$u20$for$u20$core..ops..range..Range$LT$A$GT$$GT$4next17h679e961ab2e050c2E
00016a2c l    d  .ARM.exidx.text._ZN63_$LT$I$u20$as$u20$core..iter..traits..collect..IntoIterator$GT$9into_iter17h50345055115cfa37E	00000000 .ARM.exidx.text._ZN63_$LT$I$u20$as$u20$core..iter..traits..collect..IntoIterator$GT$9into_iter17h50345055115cfa37E
00016a2c l    d  .ARM.exidx.text._ZN63_$LT$I$u20$as$u20$core..iter..traits..collect..IntoIterator$GT$9into_iter17ha824f1c680dbc5d5E	00000000 .ARM.exidx.text._ZN63_$LT$I$u20$as$u20$core..iter..traits..collect..IntoIterator$GT$9into_iter17ha824f1c680dbc5d5E
00016a2c l    d  .ARM.exidx.text._ZN63_$LT$I$u20$as$u20$core..iter..traits..collect..IntoIterator$GT$9into_iter17hb63fe79ffe64174cE	00000000 .ARM.exidx.text._ZN63_$LT$I$u20$as$u20$core..iter..traits..collect..IntoIterator$GT$9into_iter17hb63fe79ffe64174cE
00016a2c l    d  .ARM.exidx.text._ZN63_$LT$I$u20$as$u20$core..iter..traits..collect..IntoIterator$GT$9into_iter17hbb596eea85a0534cE	00000000 .ARM.exidx.text._ZN63_$LT$I$u20$as$u20$core..iter..traits..collect..IntoIterator$GT$9into_iter17hbb596eea85a0534cE
00016a2c l    d  .ARM.exidx.text._ZN63_$LT$I$u20$as$u20$core..iter..traits..collect..IntoIterator$GT$9into_iter17hcd91a9ec3b2efec4E	00000000 .ARM.exidx.text._ZN63_$LT$I$u20$as$u20$core..iter..traits..collect..IntoIterator$GT$9into_iter17hcd91a9ec3b2efec4E
00016a2c l    d  .ARM.exidx.text._ZN4core4iter6traits8iterator8Iterator10advance_by17hefe3ae2eb520656bE	00000000 .ARM.exidx.text._ZN4core4iter6traits8iterator8Iterator10advance_by17hefe3ae2eb520656bE
00016a2c l    d  .ARM.exidx.text._ZN4core4iter6traits8iterator8Iterator3nth17hdc2f8c5e43bea2abE	00000000 .ARM.exidx.text._ZN4core4iter6traits8iterator8Iterator3nth17hdc2f8c5e43bea2abE
00016a2c l    d  .ARM.exidx.text._ZN4core4iter6traits8iterator8Iterator3map17h6fb24ffd73d542ffE	00000000 .ARM.exidx.text._ZN4core4iter6traits8iterator8Iterator3map17h6fb24ffd73d542ffE
00016a2c l    d  .ARM.exidx.text._ZN4core4iter6traits8iterator8Iterator6filter17hb66cd4fc014ab058E	00000000 .ARM.exidx.text._ZN4core4iter6traits8iterator8Iterator6filter17hb66cd4fc014ab058E
00016a2c l    d  .ARM.exidx.text._ZN4core4iter6traits8iterator8Iterator9enumerate17h5694d946cc40cc59E	00000000 .ARM.exidx.text._ZN4core4iter6traits8iterator8Iterator9enumerate17h5694d946cc40cc59E
00016a2c l    d  .ARM.exidx.text._ZN4core4iter6traits8iterator8Iterator9enumerate17h8b3577cd1c43f4beE	00000000 .ARM.exidx.text._ZN4core4iter6traits8iterator8Iterator9enumerate17h8b3577cd1c43f4beE
00016a2c l    d  .ARM.exidx.text._ZN4core4iter6traits8iterator8Iterator4fold17hb835c9ed5bafc7c4E	00000000 .ARM.exidx.text._ZN4core4iter6traits8iterator8Iterator4fold17hb835c9ed5bafc7c4E
00016a2c l    d  .ARM.exidx.text._ZN4core4iter6traits8iterator8Iterator3rev17hf285382833a11cd2E	00000000 .ARM.exidx.text._ZN4core4iter6traits8iterator8Iterator3rev17hf285382833a11cd2E
00016a2c l    d  .ARM.exidx.text._ZN4core4iter6traits8iterator8Iterator3sum17he3b263efd5072654E	00000000 .ARM.exidx.text._ZN4core4iter6traits8iterator8Iterator3sum17he3b263efd5072654E
00016a2c l    d  .ARM.exidx.text._ZN4core6option15Option$LT$T$GT$7is_some17h0f59d8a1a3661378E	00000000 .ARM.exidx.text._ZN4core6option15Option$LT$T$GT$7is_some17h0f59d8a1a3661378E
00016a2c l    d  .ARM.exidx.text._ZN4core6option15Option$LT$T$GT$7is_some17h594b3a26af5e585aE	00000000 .ARM.exidx.text._ZN4core6option15Option$LT$T$GT$7is_some17h594b3a26af5e585aE
00016a2c l    d  .ARM.exidx.text._ZN4core6option15Option$LT$T$GT$7is_none17h9670b1d25feabbc1E	00000000 .ARM.exidx.text._ZN4core6option15Option$LT$T$GT$7is_none17h9670b1d25feabbc1E
00016a2c l    d  .ARM.exidx.text._ZN4core6option15Option$LT$T$GT$6unwrap17hd6e3fde6ca0fdbbcE	00000000 .ARM.exidx.text._ZN4core6option15Option$LT$T$GT$6unwrap17hd6e3fde6ca0fdbbcE
00016a2c l    d  .ARM.exidx.text._ZN4core6option15Option$LT$T$GT$6unwrap17hdd28b3b95a4a07dcE	00000000 .ARM.exidx.text._ZN4core6option15Option$LT$T$GT$6unwrap17hdd28b3b95a4a07dcE
00016a2c l    d  .ARM.exidx.text._ZN4core6option15Option$LT$T$GT$9unwrap_or17h015ab340b13816d4E	00000000 .ARM.exidx.text._ZN4core6option15Option$LT$T$GT$9unwrap_or17h015ab340b13816d4E
00016a2c l    d  .ARM.exidx.text._ZN4core6option15Option$LT$T$GT$16unwrap_unchecked17h26d673577bdd7b53E	00000000 .ARM.exidx.text._ZN4core6option15Option$LT$T$GT$16unwrap_unchecked17h26d673577bdd7b53E
00016a2c l    d  .ARM.exidx.text._ZN4core6option15Option$LT$T$GT$3map17h23edb8605e04aca5E	00000000 .ARM.exidx.text._ZN4core6option15Option$LT$T$GT$3map17h23edb8605e04aca5E
00016a2c l    d  .ARM.exidx.text._ZN4core6option15Option$LT$T$GT$5ok_or17ha3aa47d88639c8c3E	00000000 .ARM.exidx.text._ZN4core6option15Option$LT$T$GT$5ok_or17ha3aa47d88639c8c3E
00016a2c l    d  .ARM.exidx.text._ZN75_$LT$core..option..Option$LT$T$GT$$u20$as$u20$core..ops..try_trait..Try$GT$6branch17h0370284d3a85f031E	00000000 .ARM.exidx.text._ZN75_$LT$core..option..Option$LT$T$GT$$u20$as$u20$core..ops..try_trait..Try$GT$6branch17h0370284d3a85f031E
00016a2c l    d  .ARM.exidx.text._ZN75_$LT$core..option..Option$LT$T$GT$$u20$as$u20$core..ops..try_trait..Try$GT$6branch17h172a407fe4f652a4E	00000000 .ARM.exidx.text._ZN75_$LT$core..option..Option$LT$T$GT$$u20$as$u20$core..ops..try_trait..Try$GT$6branch17h172a407fe4f652a4E
00016a2c l    d  .ARM.exidx.text._ZN75_$LT$core..option..Option$LT$T$GT$$u20$as$u20$core..ops..try_trait..Try$GT$6branch17h1ec5a3c41af1443aE	00000000 .ARM.exidx.text._ZN75_$LT$core..option..Option$LT$T$GT$$u20$as$u20$core..ops..try_trait..Try$GT$6branch17h1ec5a3c41af1443aE
00016a2c l    d  .ARM.exidx.text._ZN75_$LT$core..option..Option$LT$T$GT$$u20$as$u20$core..ops..try_trait..Try$GT$6branch17hef7b8f4425754491E	00000000 .ARM.exidx.text._ZN75_$LT$core..option..Option$LT$T$GT$$u20$as$u20$core..ops..try_trait..Try$GT$6branch17hef7b8f4425754491E
00016a2c l    d  .ARM.exidx.text._ZN84_$LT$core..option..Option$LT$T$GT$$u20$as$u20$core..ops..try_trait..FromResidual$GT$13from_residual17h508954eeadc7c28aE	00000000 .ARM.exidx.text._ZN84_$LT$core..option..Option$LT$T$GT$$u20$as$u20$core..ops..try_trait..FromResidual$GT$13from_residual17h508954eeadc7c28aE
00016a2c l    d  .ARM.exidx.text._ZN84_$LT$core..option..Option$LT$T$GT$$u20$as$u20$core..ops..try_trait..FromResidual$GT$13from_residual17h66d8bfb897ed8223E	00000000 .ARM.exidx.text._ZN84_$LT$core..option..Option$LT$T$GT$$u20$as$u20$core..ops..try_trait..FromResidual$GT$13from_residual17h66d8bfb897ed8223E
00016a2c l    d  .ARM.exidx.text._ZN84_$LT$core..option..Option$LT$T$GT$$u20$as$u20$core..ops..try_trait..FromResidual$GT$13from_residual17he5c01615d13b92aaE	00000000 .ARM.exidx.text._ZN84_$LT$core..option..Option$LT$T$GT$$u20$as$u20$core..ops..try_trait..FromResidual$GT$13from_residual17he5c01615d13b92aaE
00016a2c l    d  .ARM.exidx.text._ZN84_$LT$core..option..Option$LT$T$GT$$u20$as$u20$core..ops..try_trait..FromResidual$GT$13from_residual17hf243c3f500f9a7ebE	00000000 .ARM.exidx.text._ZN84_$LT$core..option..Option$LT$T$GT$$u20$as$u20$core..ops..try_trait..FromResidual$GT$13from_residual17hf243c3f500f9a7ebE
00016a2c l    d  .ARM.exidx.text._ZN4core5panic8location8Location6caller17h599fd882f0ca72d3E	00000000 .ARM.exidx.text._ZN4core5panic8location8Location6caller17h599fd882f0ca72d3E
00016a2c l    d  .ARM.exidx.text._ZN4core5panic10panic_info9PanicInfo20internal_constructor17hff58fc59f9b36707E	00000000 .ARM.exidx.text._ZN4core5panic10panic_info9PanicInfo20internal_constructor17hff58fc59f9b36707E
00016a2c l    d  .ARM.exidx.text._ZN4core9panicking5panic17h70f755644c6683e5E	00000000 .ARM.exidx.text._ZN4core9panicking5panic17h70f755644c6683e5E
00016a2c l    d  .ARM.exidx.text._ZN4core9panicking18panic_bounds_check17h0b43d6a3154b2a88E	00000000 .ARM.exidx.text._ZN4core9panicking18panic_bounds_check17h0b43d6a3154b2a88E
00016a2c l    d  .ARM.exidx.text._ZN4core9panicking9panic_fmt17h22cd6c9efa5fe474E	00000000 .ARM.exidx.text._ZN4core9panicking9panic_fmt17h22cd6c9efa5fe474E
00016a2c l    d  .ARM.exidx.text._ZN4core9panicking13assert_failed17h5e83c24258d73ba7E	00000000 .ARM.exidx.text._ZN4core9panicking13assert_failed17h5e83c24258d73ba7E
00016a2c l    d  .ARM.exidx.text._ZN4core9panicking19assert_failed_inner17ha32612bf0b3c1066E	00000000 .ARM.exidx.text._ZN4core9panicking19assert_failed_inner17ha32612bf0b3c1066E
00016a2c l    d  .ARM.exidx.text._ZN4core6result19Result$LT$T$C$E$GT$2ok17h994d761dd1548f19E	00000000 .ARM.exidx.text._ZN4core6result19Result$LT$T$C$E$GT$2ok17h994d761dd1548f19E
00016a2c l    d  .ARM.exidx.text._ZN79_$LT$core..result..Result$LT$T$C$E$GT$$u20$as$u20$core..ops..try_trait..Try$GT$6branch17hcc6c949fd870dea7E	00000000 .ARM.exidx.text._ZN79_$LT$core..result..Result$LT$T$C$E$GT$$u20$as$u20$core..ops..try_trait..Try$GT$6branch17hcc6c949fd870dea7E
00016a2c l    d  .ARM.exidx.text._ZN79_$LT$core..result..Result$LT$T$C$E$GT$$u20$as$u20$core..ops..try_trait..Try$GT$6branch17hd1d9da8509624ae6E	00000000 .ARM.exidx.text._ZN79_$LT$core..result..Result$LT$T$C$E$GT$$u20$as$u20$core..ops..try_trait..Try$GT$6branch17hd1d9da8509624ae6E
00016a2c l    d  .ARM.exidx.text._ZN79_$LT$core..result..Result$LT$T$C$E$GT$$u20$as$u20$core..ops..try_trait..Try$GT$6branch17hec82a34d0273634fE	00000000 .ARM.exidx.text._ZN79_$LT$core..result..Result$LT$T$C$E$GT$$u20$as$u20$core..ops..try_trait..Try$GT$6branch17hec82a34d0273634fE
00016a2c l    d  .ARM.exidx.text._ZN153_$LT$core..result..Result$LT$T$C$F$GT$$u20$as$u20$core..ops..try_trait..FromResidual$LT$core..result..Result$LT$core..convert..Infallible$C$E$GT$$GT$$GT$13from_residual17h411b96776abd096cE	00000000 .ARM.exidx.text._ZN153_$LT$core..result..Result$LT$T$C$F$GT$$u20$as$u20$core..ops..try_trait..FromResidual$LT$core..result..Result$LT$core..convert..Infallible$C$E$GT$$GT$$GT$13from_residual17h411b96776abd096cE
00016a2c l    d  .ARM.exidx.text._ZN153_$LT$core..result..Result$LT$T$C$F$GT$$u20$as$u20$core..ops..try_trait..FromResidual$LT$core..result..Result$LT$core..convert..Infallible$C$E$GT$$GT$$GT$13from_residual17h54991ea20b922efbE	00000000 .ARM.exidx.text._ZN153_$LT$core..result..Result$LT$T$C$F$GT$$u20$as$u20$core..ops..try_trait..FromResidual$LT$core..result..Result$LT$core..convert..Infallible$C$E$GT$$GT$$GT$13from_residual17h54991ea20b922efbE
00016a2c l    d  .ARM.exidx.text._ZN153_$LT$core..result..Result$LT$T$C$F$GT$$u20$as$u20$core..ops..try_trait..FromResidual$LT$core..result..Result$LT$core..convert..Infallible$C$E$GT$$GT$$GT$13from_residual17h921f7eb520c50607E	00000000 .ARM.exidx.text._ZN153_$LT$core..result..Result$LT$T$C$F$GT$$u20$as$u20$core..ops..try_trait..FromResidual$LT$core..result..Result$LT$core..convert..Infallible$C$E$GT$$GT$$GT$13from_residual17h921f7eb520c50607E
00016a2c l    d  .ARM.exidx.text._ZN4core3fmt3num12GenericRadix7fmt_int17h3d51f26de88d8bbeE	00000000 .ARM.exidx.text._ZN4core3fmt3num12GenericRadix7fmt_int17h3d51f26de88d8bbeE
00016a2c l    d  .ARM.exidx.text._ZN4core3fmt3num12GenericRadix7fmt_int17h51ec0ad097deb597E	00000000 .ARM.exidx.text._ZN4core3fmt3num12GenericRadix7fmt_int17h51ec0ad097deb597E
00016a2c l    d  .ARM.exidx.text._ZN4core3fmt9Formatter3new17h4709c3f5378b429bE	00000000 .ARM.exidx.text._ZN4core3fmt9Formatter3new17h4709c3f5378b429bE
00016a2c l    d  .ARM.exidx.text._ZN4core3fmt12USIZE_MARKER28_$u7b$$u7b$closure$u7d$$u7d$17hc8ead2c0d1435e3eE	00000000 .ARM.exidx.text._ZN4core3fmt12USIZE_MARKER28_$u7b$$u7b$closure$u7d$$u7d$17hc8ead2c0d1435e3eE
00016a2c l    d  .ARM.exidx.text._ZN4core3fmt10ArgumentV13new17h37f891f565a643d9E	00000000 .ARM.exidx.text._ZN4core3fmt10ArgumentV13new17h37f891f565a643d9E
00016a2c l    d  .ARM.exidx.text._ZN4core3fmt10ArgumentV13new17h4c844c993ed35af8E	00000000 .ARM.exidx.text._ZN4core3fmt10ArgumentV13new17h4c844c993ed35af8E
00016a2c l    d  .ARM.exidx.text._ZN4core3fmt10ArgumentV13new17ha876e96e5dc117f4E	00000000 .ARM.exidx.text._ZN4core3fmt10ArgumentV13new17ha876e96e5dc117f4E
00016a2c l    d  .ARM.exidx.text._ZN4core3fmt10ArgumentV13new17hbd460d47a42de93cE	00000000 .ARM.exidx.text._ZN4core3fmt10ArgumentV13new17hbd460d47a42de93cE
00016a2c l    d  .ARM.exidx.text._ZN4core3fmt10ArgumentV13new17hf34e7092f2803bf0E	00000000 .ARM.exidx.text._ZN4core3fmt10ArgumentV13new17hf34e7092f2803bf0E
00016a2c l    d  .ARM.exidx.text._ZN4core3fmt10ArgumentV18as_usize17h90afd2da165caa5cE	00000000 .ARM.exidx.text._ZN4core3fmt10ArgumentV18as_usize17h90afd2da165caa5cE
00016a2c l    d  .ARM.exidx.text._ZN4core3fmt9Arguments6new_v117hd47ebd6f67dc7416E	00000000 .ARM.exidx.text._ZN4core3fmt9Arguments6new_v117hd47ebd6f67dc7416E
00016a2c l    d  .ARM.exidx.text._ZN59_$LT$core..fmt..Arguments$u20$as$u20$core..fmt..Display$GT$3fmt17hce94dc99427bbd49E	00000000 .ARM.exidx.text._ZN59_$LT$core..fmt..Arguments$u20$as$u20$core..fmt..Display$GT$3fmt17hce94dc99427bbd49E
00016a2c l    d  .ARM.exidx.text._ZN4core3fmt5write17h4ea4b5723b208be1E	00000000 .ARM.exidx.text._ZN4core3fmt5write17h4ea4b5723b208be1E
00016a2c l    d  .ARM.exidx.text._ZN4core3fmt3run17h369bc0c920887370E	00000000 .ARM.exidx.text._ZN4core3fmt3run17h369bc0c920887370E
00016a2c l    d  .ARM.exidx.text._ZN4core3fmt8getcount17h0b71ba4dce2ed406E	00000000 .ARM.exidx.text._ZN4core3fmt8getcount17h0b71ba4dce2ed406E
00016a2c l    d  .ARM.exidx.text._ZN4core3fmt11PostPadding3new17hd707ba2e2f281ce5E	00000000 .ARM.exidx.text._ZN4core3fmt11PostPadding3new17hd707ba2e2f281ce5E
00016a2c l    d  .ARM.exidx.text._ZN4core3fmt11PostPadding5write17h749827b00c253280E	00000000 .ARM.exidx.text._ZN4core3fmt11PostPadding5write17h749827b00c253280E
00016a2c l    d  .ARM.exidx.text._ZN4core3fmt9Formatter12pad_integral17h6338b9e6c1af941fE	00000000 .ARM.exidx.text._ZN4core3fmt9Formatter12pad_integral17h6338b9e6c1af941fE
00016a2c l    d  .ARM.exidx.text._ZN4core3fmt9Formatter12pad_integral12write_prefix17h1a1880509098b6f4E	00000000 .ARM.exidx.text._ZN4core3fmt9Formatter12pad_integral12write_prefix17h1a1880509098b6f4E
00016a2c l    d  .ARM.exidx.text._ZN4core3fmt9Formatter3pad17hc7f31b5adf6d1223E	00000000 .ARM.exidx.text._ZN4core3fmt9Formatter3pad17hc7f31b5adf6d1223E
00016a2c l    d  .ARM.exidx.text._ZN4core3fmt9Formatter7padding17h5b11df4d9ea5f2b3E	00000000 .ARM.exidx.text._ZN4core3fmt9Formatter7padding17h5b11df4d9ea5f2b3E
00016a2c l    d  .ARM.exidx.text._ZN4core3fmt9Formatter9sign_plus17h65de438d1db4ba18E	00000000 .ARM.exidx.text._ZN4core3fmt9Formatter9sign_plus17h65de438d1db4ba18E
00016a2c l    d  .ARM.exidx.text._ZN4core3fmt9Formatter9alternate17h4c2d8fc96ccfb258E	00000000 .ARM.exidx.text._ZN4core3fmt9Formatter9alternate17h4c2d8fc96ccfb258E
00016a2c l    d  .ARM.exidx.text._ZN4core3fmt9Formatter19sign_aware_zero_pad17h4ecf0a4eb12c0453E	00000000 .ARM.exidx.text._ZN4core3fmt9Formatter19sign_aware_zero_pad17h4ecf0a4eb12c0453E
00016a2c l    d  .ARM.exidx.text._ZN4core3fmt9Formatter15debug_lower_hex17hc7b3d5e43f482770E	00000000 .ARM.exidx.text._ZN4core3fmt9Formatter15debug_lower_hex17hc7b3d5e43f482770E
00016a2c l    d  .ARM.exidx.text._ZN4core3fmt9Formatter15debug_upper_hex17hda32311426943d1cE	00000000 .ARM.exidx.text._ZN4core3fmt9Formatter15debug_upper_hex17hda32311426943d1cE
00016a2c l    d  .ARM.exidx.text._ZN42_$LT$str$u20$as$u20$core..fmt..Display$GT$3fmt17h85349bd7c20fb183E	00000000 .ARM.exidx.text._ZN42_$LT$str$u20$as$u20$core..fmt..Display$GT$3fmt17h85349bd7c20fb183E
00016a2c l    d  .ARM.exidx.text._ZN4core5slice5index74_$LT$impl$u20$core..ops..index..Index$LT$I$GT$$u20$for$u20$$u5b$T$u5d$$GT$5index17h4b1d96a87e06c058E	00000000 .ARM.exidx.text._ZN4core5slice5index74_$LT$impl$u20$core..ops..index..Index$LT$I$GT$$u20$for$u20$$u5b$T$u5d$$GT$5index17h4b1d96a87e06c058E
00016a2c l    d  .ARM.exidx.text._ZN4core5slice5index26slice_start_index_len_fail17hb5f5521c28632d81E	00000000 .ARM.exidx.text._ZN4core5slice5index26slice_start_index_len_fail17hb5f5521c28632d81E
00016a2c l    d  .ARM.exidx.text._ZN75_$LT$usize$u20$as$u20$core..slice..index..SliceIndex$LT$$u5b$T$u5d$$GT$$GT$3get17h58700fb2e56bcbd1E	00000000 .ARM.exidx.text._ZN75_$LT$usize$u20$as$u20$core..slice..index..SliceIndex$LT$$u5b$T$u5d$$GT$$GT$3get17h58700fb2e56bcbd1E
00016a2c l    d  .ARM.exidx.text._ZN75_$LT$usize$u20$as$u20$core..slice..index..SliceIndex$LT$$u5b$T$u5d$$GT$$GT$3get17h5df82707e94e479aE	00000000 .ARM.exidx.text._ZN75_$LT$usize$u20$as$u20$core..slice..index..SliceIndex$LT$$u5b$T$u5d$$GT$$GT$3get17h5df82707e94e479aE
00016a2c l    d  .ARM.exidx.text._ZN75_$LT$usize$u20$as$u20$core..slice..index..SliceIndex$LT$$u5b$T$u5d$$GT$$GT$13get_unchecked17h3d9905732fe31da8E	00000000 .ARM.exidx.text._ZN75_$LT$usize$u20$as$u20$core..slice..index..SliceIndex$LT$$u5b$T$u5d$$GT$$GT$13get_unchecked17h3d9905732fe31da8E
00016a2c l    d  .ARM.exidx.text._ZN75_$LT$usize$u20$as$u20$core..slice..index..SliceIndex$LT$$u5b$T$u5d$$GT$$GT$13get_unchecked17h63bf3b62c6d08f31E	00000000 .ARM.exidx.text._ZN75_$LT$usize$u20$as$u20$core..slice..index..SliceIndex$LT$$u5b$T$u5d$$GT$$GT$13get_unchecked17h63bf3b62c6d08f31E
00016a2c l    d  .ARM.exidx.text._ZN75_$LT$usize$u20$as$u20$core..slice..index..SliceIndex$LT$$u5b$T$u5d$$GT$$GT$13get_unchecked17h74dc70a76a7a6cf2E	00000000 .ARM.exidx.text._ZN75_$LT$usize$u20$as$u20$core..slice..index..SliceIndex$LT$$u5b$T$u5d$$GT$$GT$13get_unchecked17h74dc70a76a7a6cf2E
00016a2c l    d  .ARM.exidx.text._ZN106_$LT$core..ops..range..Range$LT$usize$GT$$u20$as$u20$core..slice..index..SliceIndex$LT$$u5b$T$u5d$$GT$$GT$13get_unchecked17h1d25b385670d593fE	00000000 .ARM.exidx.text._ZN106_$LT$core..ops..range..Range$LT$usize$GT$$u20$as$u20$core..slice..index..SliceIndex$LT$$u5b$T$u5d$$GT$$GT$13get_unchecked17h1d25b385670d593fE
00016a2c l    d  .ARM.exidx.text._ZN106_$LT$core..ops..range..Range$LT$usize$GT$$u20$as$u20$core..slice..index..SliceIndex$LT$$u5b$T$u5d$$GT$$GT$13get_unchecked17h5dac71fb7055b158E	00000000 .ARM.exidx.text._ZN106_$LT$core..ops..range..Range$LT$usize$GT$$u20$as$u20$core..slice..index..SliceIndex$LT$$u5b$T$u5d$$GT$$GT$13get_unchecked17h5dac71fb7055b158E
00016a2c l    d  .ARM.exidx.text._ZN106_$LT$core..ops..range..Range$LT$usize$GT$$u20$as$u20$core..slice..index..SliceIndex$LT$$u5b$T$u5d$$GT$$GT$13get_unchecked17h6388b663972f65d5E	00000000 .ARM.exidx.text._ZN106_$LT$core..ops..range..Range$LT$usize$GT$$u20$as$u20$core..slice..index..SliceIndex$LT$$u5b$T$u5d$$GT$$GT$13get_unchecked17h6388b663972f65d5E
00016a2c l    d  .ARM.exidx.text._ZN108_$LT$core..ops..range..RangeTo$LT$usize$GT$$u20$as$u20$core..slice..index..SliceIndex$LT$$u5b$T$u5d$$GT$$GT$13get_unchecked17hc56e1446995c5ca8E	00000000 .ARM.exidx.text._ZN108_$LT$core..ops..range..RangeTo$LT$usize$GT$$u20$as$u20$core..slice..index..SliceIndex$LT$$u5b$T$u5d$$GT$$GT$13get_unchecked17hc56e1446995c5ca8E
00016a2c l    d  .ARM.exidx.text._ZN108_$LT$core..ops..range..RangeTo$LT$usize$GT$$u20$as$u20$core..slice..index..SliceIndex$LT$$u5b$T$u5d$$GT$$GT$13get_unchecked17hc613160324722273E	00000000 .ARM.exidx.text._ZN108_$LT$core..ops..range..RangeTo$LT$usize$GT$$u20$as$u20$core..slice..index..SliceIndex$LT$$u5b$T$u5d$$GT$$GT$13get_unchecked17hc613160324722273E
00016a2c l    d  .ARM.exidx.text._ZN110_$LT$core..ops..range..RangeFrom$LT$usize$GT$$u20$as$u20$core..slice..index..SliceIndex$LT$$u5b$T$u5d$$GT$$GT$13get_unchecked17h43d3ddc491b0fe6aE	00000000 .ARM.exidx.text._ZN110_$LT$core..ops..range..RangeFrom$LT$usize$GT$$u20$as$u20$core..slice..index..SliceIndex$LT$$u5b$T$u5d$$GT$$GT$13get_unchecked17h43d3ddc491b0fe6aE
00016a2c l    d  .ARM.exidx.text._ZN110_$LT$core..ops..range..RangeFrom$LT$usize$GT$$u20$as$u20$core..slice..index..SliceIndex$LT$$u5b$T$u5d$$GT$$GT$13get_unchecked17h4b85c12398c9e232E	00000000 .ARM.exidx.text._ZN110_$LT$core..ops..range..RangeFrom$LT$usize$GT$$u20$as$u20$core..slice..index..SliceIndex$LT$$u5b$T$u5d$$GT$$GT$13get_unchecked17h4b85c12398c9e232E
00016a2c l    d  .ARM.exidx.text._ZN110_$LT$core..ops..range..RangeFrom$LT$usize$GT$$u20$as$u20$core..slice..index..SliceIndex$LT$$u5b$T$u5d$$GT$$GT$13get_unchecked17h597bb0e645bb2269E	00000000 .ARM.exidx.text._ZN110_$LT$core..ops..range..RangeFrom$LT$usize$GT$$u20$as$u20$core..slice..index..SliceIndex$LT$$u5b$T$u5d$$GT$$GT$13get_unchecked17h597bb0e645bb2269E
00016a2c l    d  .ARM.exidx.text._ZN110_$LT$core..ops..range..RangeFrom$LT$usize$GT$$u20$as$u20$core..slice..index..SliceIndex$LT$$u5b$T$u5d$$GT$$GT$5index17h7a8182a2d82a4709E	00000000 .ARM.exidx.text._ZN110_$LT$core..ops..range..RangeFrom$LT$usize$GT$$u20$as$u20$core..slice..index..SliceIndex$LT$$u5b$T$u5d$$GT$$GT$5index17h7a8182a2d82a4709E
00016a2c l    d  .ARM.exidx.text._ZN4core5slice4iter87_$LT$impl$u20$core..iter..traits..collect..IntoIterator$u20$for$u20$$RF$$u5b$T$u5d$$GT$9into_iter17h3cc1521738f9d061E	00000000 .ARM.exidx.text._ZN4core5slice4iter87_$LT$impl$u20$core..iter..traits..collect..IntoIterator$u20$for$u20$$RF$$u5b$T$u5d$$GT$9into_iter17h3cc1521738f9d061E
00016a2c l    d  .ARM.exidx.text._ZN4core5slice4iter87_$LT$impl$u20$core..iter..traits..collect..IntoIterator$u20$for$u20$$RF$$u5b$T$u5d$$GT$9into_iter17hbb5dcc1a8a1ccab4E	00000000 .ARM.exidx.text._ZN4core5slice4iter87_$LT$impl$u20$core..iter..traits..collect..IntoIterator$u20$for$u20$$RF$$u5b$T$u5d$$GT$9into_iter17hbb5dcc1a8a1ccab4E
00016a2c l    d  .ARM.exidx.text._ZN4core5slice4iter13Iter$LT$T$GT$3new17h4427525444ee9a6aE	00000000 .ARM.exidx.text._ZN4core5slice4iter13Iter$LT$T$GT$3new17h4427525444ee9a6aE
00016a2c l    d  .ARM.exidx.text._ZN4core5slice4iter13Iter$LT$T$GT$3new17h67d8f23c224d959aE	00000000 .ARM.exidx.text._ZN4core5slice4iter13Iter$LT$T$GT$3new17h67d8f23c224d959aE
00016a2c l    d  .ARM.exidx.text._ZN4core5slice4iter13Iter$LT$T$GT$3new17haa4062221ae42c46E	00000000 .ARM.exidx.text._ZN4core5slice4iter13Iter$LT$T$GT$3new17haa4062221ae42c46E
00016a2c l    d  .ARM.exidx.text._ZN4core5slice4iter13Iter$LT$T$GT$3new17hb77f1747bbaef115E	00000000 .ARM.exidx.text._ZN4core5slice4iter13Iter$LT$T$GT$3new17hb77f1747bbaef115E
00016a2c l    d  .ARM.exidx.text._ZN4core5slice4iter13Iter$LT$T$GT$3new17hbb1f906be78fe598E	00000000 .ARM.exidx.text._ZN4core5slice4iter13Iter$LT$T$GT$3new17hbb1f906be78fe598E
00016a2c l    d  .ARM.exidx.text._ZN4core5slice4iter13Iter$LT$T$GT$8as_slice17h327dee1e392d377aE	00000000 .ARM.exidx.text._ZN4core5slice4iter13Iter$LT$T$GT$8as_slice17h327dee1e392d377aE
00016a2c l    d  .ARM.exidx.text._ZN4core5slice4iter16IterMut$LT$T$GT$3new17h185c59486b1ace69E	00000000 .ARM.exidx.text._ZN4core5slice4iter16IterMut$LT$T$GT$3new17h185c59486b1ace69E
00016a2c l    d  .ARM.exidx.text._ZN4core5slice4iter15Chunks$LT$T$GT$3new17hf45b747296ab98caE	00000000 .ARM.exidx.text._ZN4core5slice4iter15Chunks$LT$T$GT$3new17hf45b747296ab98caE
00016a2c l    d  .ARM.exidx.text._ZN93_$LT$core..slice..iter..Chunks$LT$T$GT$$u20$as$u20$core..iter..traits..iterator..Iterator$GT$4next17h8a48ec6c676315b6E	00000000 .ARM.exidx.text._ZN93_$LT$core..slice..iter..Chunks$LT$T$GT$$u20$as$u20$core..iter..traits..iterator..Iterator$GT$4next17h8a48ec6c676315b6E
00016a2c l    d  .ARM.exidx.text._ZN4core5slice3raw14from_raw_parts17h09828842bb9f998dE	00000000 .ARM.exidx.text._ZN4core5slice3raw14from_raw_parts17h09828842bb9f998dE
00016a2c l    d  .ARM.exidx.text._ZN4core5slice3raw14from_raw_parts17h2c7aceaf3e66256fE	00000000 .ARM.exidx.text._ZN4core5slice3raw14from_raw_parts17h2c7aceaf3e66256fE
00016a2c l    d  .ARM.exidx.text._ZN4core5slice3raw14from_raw_parts17hc225916af7a02989E	00000000 .ARM.exidx.text._ZN4core5slice3raw14from_raw_parts17hc225916af7a02989E
00016a2c l    d  .ARM.exidx.text._ZN4core5slice3raw20debug_check_data_len17h760094dfb564f4e8E	00000000 .ARM.exidx.text._ZN4core5slice3raw20debug_check_data_len17h760094dfb564f4e8E
00016a2c l    d  .ARM.exidx.text._ZN4core5slice3raw20debug_check_data_len17h7668b6c06a10d396E	00000000 .ARM.exidx.text._ZN4core5slice3raw20debug_check_data_len17h7668b6c06a10d396E
00016a2c l    d  .ARM.exidx.text._ZN4core5slice3raw20debug_check_data_len17hb789fe369cea3d77E	00000000 .ARM.exidx.text._ZN4core5slice3raw20debug_check_data_len17hb789fe369cea3d77E
00016a2c l    d  .ARM.exidx.text._ZN4core5slice3raw20debug_check_data_len8rt_check17h45bfb212b6aede9cE	00000000 .ARM.exidx.text._ZN4core5slice3raw20debug_check_data_len8rt_check17h45bfb212b6aede9cE
00016a2c l    d  .ARM.exidx.text._ZN4core5slice3raw20debug_check_data_len8rt_check17h87ae803e467dfe74E	00000000 .ARM.exidx.text._ZN4core5slice3raw20debug_check_data_len8rt_check17h87ae803e467dfe74E
00016a2c l    d  .ARM.exidx.text._ZN4core5slice3raw20debug_check_data_len8rt_check17hce02492c767833a3E	00000000 .ARM.exidx.text._ZN4core5slice3raw20debug_check_data_len8rt_check17hce02492c767833a3E
00016a2c l    d  .ARM.exidx.text._ZN4core5slice29_$LT$impl$u20$$u5b$T$u5d$$GT$8is_empty17h7a896da0465f87a7E	00000000 .ARM.exidx.text._ZN4core5slice29_$LT$impl$u20$$u5b$T$u5d$$GT$8is_empty17h7a896da0465f87a7E
00016a2c l    d  .ARM.exidx.text._ZN4core5slice29_$LT$impl$u20$$u5b$T$u5d$$GT$3get17h5c3858c84abeab5fE	00000000 .ARM.exidx.text._ZN4core5slice29_$LT$impl$u20$$u5b$T$u5d$$GT$3get17h5c3858c84abeab5fE
00016a2c l    d  .ARM.exidx.text._ZN4core5slice29_$LT$impl$u20$$u5b$T$u5d$$GT$3get17h8f5e6bea4c5e54d5E	00000000 .ARM.exidx.text._ZN4core5slice29_$LT$impl$u20$$u5b$T$u5d$$GT$3get17h8f5e6bea4c5e54d5E
00016a2c l    d  .ARM.exidx.text._ZN4core5slice29_$LT$impl$u20$$u5b$T$u5d$$GT$13get_unchecked17h090228384a3ea5a0E	00000000 .ARM.exidx.text._ZN4core5slice29_$LT$impl$u20$$u5b$T$u5d$$GT$13get_unchecked17h090228384a3ea5a0E
00016a2c l    d  .ARM.exidx.text._ZN4core5slice29_$LT$impl$u20$$u5b$T$u5d$$GT$13get_unchecked17h2b9f57321c9ab110E	00000000 .ARM.exidx.text._ZN4core5slice29_$LT$impl$u20$$u5b$T$u5d$$GT$13get_unchecked17h2b9f57321c9ab110E
00016a2c l    d  .ARM.exidx.text._ZN4core5slice29_$LT$impl$u20$$u5b$T$u5d$$GT$13get_unchecked17h4ea222d5e49e8b86E	00000000 .ARM.exidx.text._ZN4core5slice29_$LT$impl$u20$$u5b$T$u5d$$GT$13get_unchecked17h4ea222d5e49e8b86E
00016a2c l    d  .ARM.exidx.text._ZN4core5slice29_$LT$impl$u20$$u5b$T$u5d$$GT$13get_unchecked17h67e4e71b23d961ccE	00000000 .ARM.exidx.text._ZN4core5slice29_$LT$impl$u20$$u5b$T$u5d$$GT$13get_unchecked17h67e4e71b23d961ccE
00016a2c l    d  .ARM.exidx.text._ZN4core5slice29_$LT$impl$u20$$u5b$T$u5d$$GT$13get_unchecked17h9d359a39158dbe67E	00000000 .ARM.exidx.text._ZN4core5slice29_$LT$impl$u20$$u5b$T$u5d$$GT$13get_unchecked17h9d359a39158dbe67E
00016a2c l    d  .ARM.exidx.text._ZN4core5slice29_$LT$impl$u20$$u5b$T$u5d$$GT$13get_unchecked17hb558a5d276703f46E	00000000 .ARM.exidx.text._ZN4core5slice29_$LT$impl$u20$$u5b$T$u5d$$GT$13get_unchecked17hb558a5d276703f46E
00016a2c l    d  .ARM.exidx.text._ZN4core5slice29_$LT$impl$u20$$u5b$T$u5d$$GT$6as_ptr17h4a00a55ffdc398ecE	00000000 .ARM.exidx.text._ZN4core5slice29_$LT$impl$u20$$u5b$T$u5d$$GT$6as_ptr17h4a00a55ffdc398ecE
00016a2c l    d  .ARM.exidx.text._ZN4core5slice29_$LT$impl$u20$$u5b$T$u5d$$GT$6as_ptr17h4c0ffc438ec46671E	00000000 .ARM.exidx.text._ZN4core5slice29_$LT$impl$u20$$u5b$T$u5d$$GT$6as_ptr17h4c0ffc438ec46671E
00016a2c l    d  .ARM.exidx.text._ZN4core5slice29_$LT$impl$u20$$u5b$T$u5d$$GT$6as_ptr17h5a33363efb66d240E	00000000 .ARM.exidx.text._ZN4core5slice29_$LT$impl$u20$$u5b$T$u5d$$GT$6as_ptr17h5a33363efb66d240E
00016a2c l    d  .ARM.exidx.text._ZN4core5slice29_$LT$impl$u20$$u5b$T$u5d$$GT$6as_ptr17h6b8941cd08966201E	00000000 .ARM.exidx.text._ZN4core5slice29_$LT$impl$u20$$u5b$T$u5d$$GT$6as_ptr17h6b8941cd08966201E
00016a2c l    d  .ARM.exidx.text._ZN4core5slice29_$LT$impl$u20$$u5b$T$u5d$$GT$6as_ptr17h992ac04f5ee14697E	00000000 .ARM.exidx.text._ZN4core5slice29_$LT$impl$u20$$u5b$T$u5d$$GT$6as_ptr17h992ac04f5ee14697E
00016a2c l    d  .ARM.exidx.text._ZN4core5slice29_$LT$impl$u20$$u5b$T$u5d$$GT$6as_ptr17he76bcbec392c544eE	00000000 .ARM.exidx.text._ZN4core5slice29_$LT$impl$u20$$u5b$T$u5d$$GT$6as_ptr17he76bcbec392c544eE
00016a2c l    d  .ARM.exidx.text._ZN4core5slice29_$LT$impl$u20$$u5b$T$u5d$$GT$10as_mut_ptr17h0d88c70547a3eecaE	00000000 .ARM.exidx.text._ZN4core5slice29_$LT$impl$u20$$u5b$T$u5d$$GT$10as_mut_ptr17h0d88c70547a3eecaE
00016a2c l    d  .ARM.exidx.text._ZN4core5slice29_$LT$impl$u20$$u5b$T$u5d$$GT$4iter17h0c95fae1e4e64d73E	00000000 .ARM.exidx.text._ZN4core5slice29_$LT$impl$u20$$u5b$T$u5d$$GT$4iter17h0c95fae1e4e64d73E
00016a2c l    d  .ARM.exidx.text._ZN4core5slice29_$LT$impl$u20$$u5b$T$u5d$$GT$4iter17h0e9b2b815f0a80b4E	00000000 .ARM.exidx.text._ZN4core5slice29_$LT$impl$u20$$u5b$T$u5d$$GT$4iter17h0e9b2b815f0a80b4E
00016a2c l    d  .ARM.exidx.text._ZN4core5slice29_$LT$impl$u20$$u5b$T$u5d$$GT$4iter17h15255d3309400647E	00000000 .ARM.exidx.text._ZN4core5slice29_$LT$impl$u20$$u5b$T$u5d$$GT$4iter17h15255d3309400647E
00016a2c l    d  .ARM.exidx.text._ZN4core5slice29_$LT$impl$u20$$u5b$T$u5d$$GT$4iter17h5fc31ae58636ccf6E	00000000 .ARM.exidx.text._ZN4core5slice29_$LT$impl$u20$$u5b$T$u5d$$GT$4iter17h5fc31ae58636ccf6E
00016a2c l    d  .ARM.exidx.text._ZN4core5slice29_$LT$impl$u20$$u5b$T$u5d$$GT$4iter17hc958a26c159f8306E	00000000 .ARM.exidx.text._ZN4core5slice29_$LT$impl$u20$$u5b$T$u5d$$GT$4iter17hc958a26c159f8306E
00016a2c l    d  .ARM.exidx.text._ZN4core5slice29_$LT$impl$u20$$u5b$T$u5d$$GT$8iter_mut17hc7e629f952ad5a61E	00000000 .ARM.exidx.text._ZN4core5slice29_$LT$impl$u20$$u5b$T$u5d$$GT$8iter_mut17hc7e629f952ad5a61E
00016a2c l    d  .ARM.exidx.text._ZN4core5slice29_$LT$impl$u20$$u5b$T$u5d$$GT$6chunks17h27d4d96d35cab058E	00000000 .ARM.exidx.text._ZN4core5slice29_$LT$impl$u20$$u5b$T$u5d$$GT$6chunks17h27d4d96d35cab058E
00016a2c l    d  .ARM.exidx.text._ZN4core5slice29_$LT$impl$u20$$u5b$T$u5d$$GT$19as_chunks_unchecked17ha103be5ba45421e1E	00000000 .ARM.exidx.text._ZN4core5slice29_$LT$impl$u20$$u5b$T$u5d$$GT$19as_chunks_unchecked17ha103be5ba45421e1E
00016a2c l    d  .ARM.exidx.text._ZN4core5slice29_$LT$impl$u20$$u5b$T$u5d$$GT$9as_chunks17h950d980911bc47fbE	00000000 .ARM.exidx.text._ZN4core5slice29_$LT$impl$u20$$u5b$T$u5d$$GT$9as_chunks17h950d980911bc47fbE
00016a2c l    d  .ARM.exidx.text._ZN4core5slice29_$LT$impl$u20$$u5b$T$u5d$$GT$8split_at17h48379e8d17f6fd11E	00000000 .ARM.exidx.text._ZN4core5slice29_$LT$impl$u20$$u5b$T$u5d$$GT$8split_at17h48379e8d17f6fd11E
00016a2c l    d  .ARM.exidx.text._ZN4core5slice29_$LT$impl$u20$$u5b$T$u5d$$GT$8split_at17he87220cefa3c80b2E	00000000 .ARM.exidx.text._ZN4core5slice29_$LT$impl$u20$$u5b$T$u5d$$GT$8split_at17he87220cefa3c80b2E
00016a2c l    d  .ARM.exidx.text._ZN4core5slice29_$LT$impl$u20$$u5b$T$u5d$$GT$18split_at_unchecked17h6060ba5c4226ec4fE	00000000 .ARM.exidx.text._ZN4core5slice29_$LT$impl$u20$$u5b$T$u5d$$GT$18split_at_unchecked17h6060ba5c4226ec4fE
00016a2c l    d  .ARM.exidx.text._ZN4core5slice29_$LT$impl$u20$$u5b$T$u5d$$GT$18split_at_unchecked17h7bc1833861925780E	00000000 .ARM.exidx.text._ZN4core5slice29_$LT$impl$u20$$u5b$T$u5d$$GT$18split_at_unchecked17h7bc1833861925780E
00016a2c l    d  .ARM.exidx.text._ZN4core5slice29_$LT$impl$u20$$u5b$T$u5d$$GT$16align_to_offsets17h3fbc5b4b1927f7e4E	00000000 .ARM.exidx.text._ZN4core5slice29_$LT$impl$u20$$u5b$T$u5d$$GT$16align_to_offsets17h3fbc5b4b1927f7e4E
00016a2c l    d  .ARM.exidx.text._ZN4core5slice29_$LT$impl$u20$$u5b$T$u5d$$GT$16align_to_offsets3gcd17h52ca9ed27e23eecdE	00000000 .ARM.exidx.text._ZN4core5slice29_$LT$impl$u20$$u5b$T$u5d$$GT$16align_to_offsets3gcd17h52ca9ed27e23eecdE
00016a2c l    d  .ARM.exidx.text._ZN4core5slice29_$LT$impl$u20$$u5b$T$u5d$$GT$8align_to17hfcf2be5c78c5ce3bE	00000000 .ARM.exidx.text._ZN4core5slice29_$LT$impl$u20$$u5b$T$u5d$$GT$8align_to17hfcf2be5c78c5ce3bE
00016a2c l    d  .ARM.exidx.text._ZN4core3str8converts19from_utf8_unchecked17h52dbaed8b9b07d57E	00000000 .ARM.exidx.text._ZN4core3str8converts19from_utf8_unchecked17h52dbaed8b9b07d57E
00016a2c l    d  .ARM.exidx.text._ZN4core3str5count11count_chars17hfe9d88bbf5353924E	00000000 .ARM.exidx.text._ZN4core3str5count11count_chars17hfe9d88bbf5353924E
00016a2c l    d  .ARM.exidx.text._ZN4core3str5count14do_count_chars17h7d881dc4ec4d70a8E	00000000 .ARM.exidx.text._ZN4core3str5count14do_count_chars17h7d881dc4ec4d70a8E
00016a2c l    d  .ARM.exidx.text._ZN4core3str5count30contains_non_continuation_byte17h414c6b05581547daE	00000000 .ARM.exidx.text._ZN4core3str5count30contains_non_continuation_byte17h414c6b05581547daE
00016a2c l    d  .ARM.exidx.text._ZN4core3str5count18sum_bytes_in_usize17h6004dc9ac87b2593E	00000000 .ARM.exidx.text._ZN4core3str5count18sum_bytes_in_usize17h6004dc9ac87b2593E
00016a2c l    d  .ARM.exidx.text._ZN4core3str5count23char_count_general_case17he4b6dcb5826225bbE	00000000 .ARM.exidx.text._ZN4core3str5count23char_count_general_case17he4b6dcb5826225bbE
00016a2c l    d  .ARM.exidx.text._ZN4core3str5count23char_count_general_case28_$u7b$$u7b$closure$u7d$$u7d$17h3bfaf0e4922b22e5E	00000000 .ARM.exidx.text._ZN4core3str5count23char_count_general_case28_$u7b$$u7b$closure$u7d$$u7d$17h3bfaf0e4922b22e5E
00016a2c l    d  .ARM.exidx.text._ZN81_$LT$core..str..iter..Chars$u20$as$u20$core..iter..traits..iterator..Iterator$GT$4next17h4ce585fe76b34787E	00000000 .ARM.exidx.text._ZN81_$LT$core..str..iter..Chars$u20$as$u20$core..iter..traits..iterator..Iterator$GT$4next17h4ce585fe76b34787E
00016a2c l    d  .ARM.exidx.text._ZN81_$LT$core..str..iter..Chars$u20$as$u20$core..iter..traits..iterator..Iterator$GT$4next28_$u7b$$u7b$closure$u7d$$u7d$17hd5e273e066f80caaE	00000000 .ARM.exidx.text._ZN81_$LT$core..str..iter..Chars$u20$as$u20$core..iter..traits..iterator..Iterator$GT$4next28_$u7b$$u7b$closure$u7d$$u7d$17hd5e273e066f80caaE
00016a2c l    d  .ARM.exidx.text._ZN81_$LT$core..str..iter..Chars$u20$as$u20$core..iter..traits..iterator..Iterator$GT$5count17h42b30a58c777afecE	00000000 .ARM.exidx.text._ZN81_$LT$core..str..iter..Chars$u20$as$u20$core..iter..traits..iterator..Iterator$GT$5count17h42b30a58c777afecE
00016a2c l    d  .ARM.exidx.text._ZN4core3str4iter5Chars6as_str17hbf2654c7ec81d8fcE	00000000 .ARM.exidx.text._ZN4core3str4iter5Chars6as_str17hbf2654c7ec81d8fcE
00016a2c l    d  .ARM.exidx.text._ZN87_$LT$core..str..iter..CharIndices$u20$as$u20$core..iter..traits..iterator..Iterator$GT$4next17hd773219ae4fca8caE	00000000 .ARM.exidx.text._ZN87_$LT$core..str..iter..CharIndices$u20$as$u20$core..iter..traits..iterator..Iterator$GT$4next17hd773219ae4fca8caE
00016a2c l    d  .ARM.exidx.text._ZN4core3str6traits110_$LT$impl$u20$core..slice..index..SliceIndex$LT$str$GT$$u20$for$u20$core..ops..range..RangeTo$LT$usize$GT$$GT$3get17h38633d9bf2554e71E	00000000 .ARM.exidx.text._ZN4core3str6traits110_$LT$impl$u20$core..slice..index..SliceIndex$LT$str$GT$$u20$for$u20$core..ops..range..RangeTo$LT$usize$GT$$GT$3get17h38633d9bf2554e71E
00016a2c l    d  .ARM.exidx.text._ZN4core3str6traits110_$LT$impl$u20$core..slice..index..SliceIndex$LT$str$GT$$u20$for$u20$core..ops..range..RangeTo$LT$usize$GT$$GT$13get_unchecked17h778130eddf5f472cE	00000000 .ARM.exidx.text._ZN4core3str6traits110_$LT$impl$u20$core..slice..index..SliceIndex$LT$str$GT$$u20$for$u20$core..ops..range..RangeTo$LT$usize$GT$$GT$13get_unchecked17h778130eddf5f472cE
00016a2c l    d  .ARM.exidx.text._ZN4core3str11validations15utf8_first_byte17h807516d75a2ca278E	00000000 .ARM.exidx.text._ZN4core3str11validations15utf8_first_byte17h807516d75a2ca278E
00016a2c l    d  .ARM.exidx.text._ZN4core3str11validations18utf8_acc_cont_byte17hd8201390176fb4d2E	00000000 .ARM.exidx.text._ZN4core3str11validations18utf8_acc_cont_byte17hd8201390176fb4d2E
00016a2c l    d  .ARM.exidx.text._ZN4core3str11validations17utf8_is_cont_byte17hf4225f2dee7ad739E	00000000 .ARM.exidx.text._ZN4core3str11validations17utf8_is_cont_byte17hf4225f2dee7ad739E
00016a2c l    d  .ARM.exidx.text._ZN4core3str11validations15next_code_point17hca9f819efee38a31E	00000000 .ARM.exidx.text._ZN4core3str11validations15next_code_point17hca9f819efee38a31E
00016a2c l    d  .ARM.exidx.text._ZN4core3str21_$LT$impl$u20$str$GT$3len17h14a3611b18a00a0eE	00000000 .ARM.exidx.text._ZN4core3str21_$LT$impl$u20$str$GT$3len17h14a3611b18a00a0eE
00016a2c l    d  .ARM.exidx.text._ZN4core3str21_$LT$impl$u20$str$GT$8is_empty17hd7cf8b576699b70eE	00000000 .ARM.exidx.text._ZN4core3str21_$LT$impl$u20$str$GT$8is_empty17hd7cf8b576699b70eE
00016a2c l    d  .ARM.exidx.text._ZN4core3str21_$LT$impl$u20$str$GT$16is_char_boundary17ha97b2a4a3b95f885E	00000000 .ARM.exidx.text._ZN4core3str21_$LT$impl$u20$str$GT$16is_char_boundary17ha97b2a4a3b95f885E
00016a2c l    d  .ARM.exidx.text._ZN4core3str21_$LT$impl$u20$str$GT$3get17h1ffc82c8130656bdE	00000000 .ARM.exidx.text._ZN4core3str21_$LT$impl$u20$str$GT$3get17h1ffc82c8130656bdE
00016a2c l    d  .ARM.exidx.text._ZN4core3str21_$LT$impl$u20$str$GT$5chars17hbaf4cad00ce48caaE	00000000 .ARM.exidx.text._ZN4core3str21_$LT$impl$u20$str$GT$5chars17hbaf4cad00ce48caaE
00016a2c l    d  .ARM.exidx.text._ZN4core3str21_$LT$impl$u20$str$GT$12char_indices17hd69404982939c15bE	00000000 .ARM.exidx.text._ZN4core3str21_$LT$impl$u20$str$GT$12char_indices17hd69404982939c15bE
00016a2c l    d  .ARM.exidx.text._ZN4core3num23_$LT$impl$u20$usize$GT$11checked_mul17hb7ff3cbd0d4cc03cE	00000000 .ARM.exidx.text._ZN4core3num23_$LT$impl$u20$usize$GT$11checked_mul17hb7ff3cbd0d4cc03cE
00016a2c l    d  .ARM.exidx.text._ZN4core3num23_$LT$impl$u20$usize$GT$14saturating_mul17he0e56fdf767fb9b6E	00000000 .ARM.exidx.text._ZN4core3num23_$LT$impl$u20$usize$GT$14saturating_mul17he0e56fdf767fb9b6E
00016a2c l    d  .ARM.exidx.text._ZN4core5clone5impls54_$LT$impl$u20$core..clone..Clone$u20$for$u20$usize$GT$5clone17hd939152c9612436bE	00000000 .ARM.exidx.text._ZN4core5clone5impls54_$LT$impl$u20$core..clone..Clone$u20$for$u20$usize$GT$5clone17hd939152c9612436bE
00016a2c l    d  .ARM.exidx.text._ZN4core3cmp5impls56_$LT$impl$u20$core..cmp..PartialEq$u20$for$u20$usize$GT$2eq17h72e042646ebe0583E	00000000 .ARM.exidx.text._ZN4core3cmp5impls56_$LT$impl$u20$core..cmp..PartialEq$u20$for$u20$usize$GT$2eq17h72e042646ebe0583E
00016a2c l    d  .ARM.exidx.text._ZN4core3cmp5impls57_$LT$impl$u20$core..cmp..PartialOrd$u20$for$u20$usize$GT$2lt17h50e18a8ad36b70d1E	00000000 .ARM.exidx.text._ZN4core3cmp5impls57_$LT$impl$u20$core..cmp..PartialOrd$u20$for$u20$usize$GT$2lt17h50e18a8ad36b70d1E
00016a2c l    d  .ARM.exidx.text._ZN4core3cmp5impls57_$LT$impl$u20$core..cmp..PartialOrd$u20$for$u20$usize$GT$2ge17h3b07ee89d904bc72E	00000000 .ARM.exidx.text._ZN4core3cmp5impls57_$LT$impl$u20$core..cmp..PartialOrd$u20$for$u20$usize$GT$2ge17h3b07ee89d904bc72E
00016a2c l    d  .ARM.exidx.text._ZN4core3cmp5impls50_$LT$impl$u20$core..cmp..Ord$u20$for$u20$usize$GT$3cmp17h3d79425c57ffc708E	00000000 .ARM.exidx.text._ZN4core3cmp5impls50_$LT$impl$u20$core..cmp..Ord$u20$for$u20$usize$GT$3cmp17h3d79425c57ffc708E
00016a2c l    d  .ARM.exidx.text._ZN47_$LT$usize$u20$as$u20$core..ops..arith..Sub$GT$3sub17h64ad1807df18bbb0E	00000000 .ARM.exidx.text._ZN47_$LT$usize$u20$as$u20$core..ops..arith..Sub$GT$3sub17h64ad1807df18bbb0E
00016a2c l    d  .ARM.exidx.text._ZN47_$LT$usize$u20$as$u20$core..ops..arith..Div$GT$3div17h2df646bc9efd9019E	00000000 .ARM.exidx.text._ZN47_$LT$usize$u20$as$u20$core..ops..arith..Div$GT$3div17h2df646bc9efd9019E
00016a2c l    d  .ARM.exidx.text._ZN47_$LT$usize$u20$as$u20$core..ops..arith..Rem$GT$3rem17hed0e05905b88c63fE	00000000 .ARM.exidx.text._ZN47_$LT$usize$u20$as$u20$core..ops..arith..Rem$GT$3rem17hed0e05905b88c63fE
00016a2c l    d  .ARM.exidx.text._ZN49_$LT$usize$u20$as$u20$core..iter..range..Step$GT$17forward_unchecked17hc9da2c4e7235d338E	00000000 .ARM.exidx.text._ZN49_$LT$usize$u20$as$u20$core..iter..range..Step$GT$17forward_unchecked17hc9da2c4e7235d338E
00016a2c l    d  .ARM.exidx.text._ZN56_$LT$usize$u20$as$u20$core..iter..traits..accum..Sum$GT$3sum17h175bd0e46bcbfc09E	00000000 .ARM.exidx.text._ZN56_$LT$usize$u20$as$u20$core..iter..traits..accum..Sum$GT$3sum17h175bd0e46bcbfc09E
00016a2c l    d  .ARM.exidx.text._ZN56_$LT$usize$u20$as$u20$core..iter..traits..accum..Sum$GT$3sum28_$u7b$$u7b$closure$u7d$$u7d$17h354570db4f1bd5a0E	00000000 .ARM.exidx.text._ZN56_$LT$usize$u20$as$u20$core..iter..traits..accum..Sum$GT$3sum28_$u7b$$u7b$closure$u7d$$u7d$17h354570db4f1bd5a0E
00016a2c l    d  .ARM.exidx.text._ZN49_$LT$u8$u20$as$u20$core..fmt..num..DisplayInt$GT$6to_u3217h4b043bbad09ceab7E	00000000 .ARM.exidx.text._ZN49_$LT$u8$u20$as$u20$core..fmt..num..DisplayInt$GT$6to_u3217h4b043bbad09ceab7E
00016a2c l    d  .ARM.exidx.text._ZN52_$LT$usize$u20$as$u20$core..fmt..num..DisplayInt$GT$4zero17h71a2b1b2c5062d51E	00000000 .ARM.exidx.text._ZN52_$LT$usize$u20$as$u20$core..fmt..num..DisplayInt$GT$4zero17h71a2b1b2c5062d51E
00016a2c l    d  .ARM.exidx.text._ZN52_$LT$usize$u20$as$u20$core..fmt..num..DisplayInt$GT$7from_u817h534d523d1617fc6eE	00000000 .ARM.exidx.text._ZN52_$LT$usize$u20$as$u20$core..fmt..num..DisplayInt$GT$7from_u817h534d523d1617fc6eE
00016a2c l    d  .ARM.exidx.text._ZN52_$LT$usize$u20$as$u20$core..fmt..num..DisplayInt$GT$5to_u817hc1b2240e79eebfa1E	00000000 .ARM.exidx.text._ZN52_$LT$usize$u20$as$u20$core..fmt..num..DisplayInt$GT$5to_u817hc1b2240e79eebfa1E
00016a2c l    d  .ARM.exidx.text._ZN52_$LT$usize$u20$as$u20$core..fmt..num..DisplayInt$GT$6to_u3217hfd0c5150a38d32f4E	00000000 .ARM.exidx.text._ZN52_$LT$usize$u20$as$u20$core..fmt..num..DisplayInt$GT$6to_u3217hfd0c5150a38d32f4E
00016a2c l    d  .ARM.exidx.text._ZN73_$LT$core..fmt..num..LowerHex$u20$as$u20$core..fmt..num..GenericRadix$GT$5digit17hb059fe59c40e6289E	00000000 .ARM.exidx.text._ZN73_$LT$core..fmt..num..LowerHex$u20$as$u20$core..fmt..num..GenericRadix$GT$5digit17hb059fe59c40e6289E
00016a2c l    d  .ARM.exidx.text._ZN73_$LT$core..fmt..num..UpperHex$u20$as$u20$core..fmt..num..GenericRadix$GT$5digit17heaf3f1595d42a858E	00000000 .ARM.exidx.text._ZN73_$LT$core..fmt..num..UpperHex$u20$as$u20$core..fmt..num..GenericRadix$GT$5digit17heaf3f1595d42a858E
00016a2c l    d  .ARM.exidx.text._ZN4core3fmt3num55_$LT$impl$u20$core..fmt..LowerHex$u20$for$u20$usize$GT$3fmt17h82b1da44512da453E	00000000 .ARM.exidx.text._ZN4core3fmt3num55_$LT$impl$u20$core..fmt..LowerHex$u20$for$u20$usize$GT$3fmt17h82b1da44512da453E
00016a2c l    d  .ARM.exidx.text._ZN4core3fmt3num55_$LT$impl$u20$core..fmt..UpperHex$u20$for$u20$usize$GT$3fmt17h1d5a8f33dd1750ccE	00000000 .ARM.exidx.text._ZN4core3fmt3num55_$LT$impl$u20$core..fmt..UpperHex$u20$for$u20$usize$GT$3fmt17h1d5a8f33dd1750ccE
00016a2c l    d  .ARM.exidx.text._ZN4core3fmt3num52_$LT$impl$u20$core..fmt..Debug$u20$for$u20$usize$GT$3fmt17h8f80d87d397c4613E	00000000 .ARM.exidx.text._ZN4core3fmt3num52_$LT$impl$u20$core..fmt..Debug$u20$for$u20$usize$GT$3fmt17h8f80d87d397c4613E
00016a2c l    d  .ARM.exidx.text._ZN4core3fmt3num3imp7fmt_u3217h9e0b25e1b2d1183fE	00000000 .ARM.exidx.text._ZN4core3fmt3num3imp7fmt_u3217h9e0b25e1b2d1183fE
00016a2c l    d  .ARM.exidx.text._ZN4core3fmt3num3imp51_$LT$impl$u20$core..fmt..Display$u20$for$u20$u8$GT$3fmt17h1daad30d62911f99E	00000000 .ARM.exidx.text._ZN4core3fmt3num3imp51_$LT$impl$u20$core..fmt..Display$u20$for$u20$u8$GT$3fmt17h1daad30d62911f99E
00016a2c l    d  .ARM.exidx.text._ZN4core3fmt3num3imp54_$LT$impl$u20$core..fmt..Display$u20$for$u20$usize$GT$3fmt17he15d94aa45306f36E	00000000 .ARM.exidx.text._ZN4core3fmt3num3imp54_$LT$impl$u20$core..fmt..Display$u20$for$u20$usize$GT$3fmt17he15d94aa45306f36E
00016a2c l    d  .ARM.exidx.text._ZN4core3fmt10ArgumentV111new_display17h5becac182c5242eeE	00000000 .ARM.exidx.text._ZN4core3fmt10ArgumentV111new_display17h5becac182c5242eeE
00016a2c l    d  .ARM.exidx.text._ZN4core3fmt10ArgumentV111new_display17h62eda62979a94284E	00000000 .ARM.exidx.text._ZN4core3fmt10ArgumentV111new_display17h62eda62979a94284E
00016a2c l    d  .ARM.exidx.text._ZN4core3fmt10ArgumentV111new_display17h667da9250b75896aE	00000000 .ARM.exidx.text._ZN4core3fmt10ArgumentV111new_display17h667da9250b75896aE
00016a2c l    d  .ARM.exidx.text._ZN4core3fmt10ArgumentV111new_display17h70b2dfacf2c69a11E	00000000 .ARM.exidx.text._ZN4core3fmt10ArgumentV111new_display17h70b2dfacf2c69a11E
00016a2c l    d  .ARM.exidx.text._ZN4core3fmt10ArgumentV19new_debug17h8fa7896cd18c0858E	00000000 .ARM.exidx.text._ZN4core3fmt10ArgumentV19new_debug17h8fa7896cd18c0858E
00016a2c l    d  .ARM.exidx.text._ZN42_$LT$$RF$T$u20$as$u20$core..fmt..Debug$GT$3fmt17ha166fa1a8c15bd6cE	00000000 .ARM.exidx.text._ZN42_$LT$$RF$T$u20$as$u20$core..fmt..Debug$GT$3fmt17ha166fa1a8c15bd6cE
00016a2c l    d  .ARM.exidx.text._ZN42_$LT$$RF$T$u20$as$u20$core..fmt..Debug$GT$3fmt17hcd3d43c7379a307dE	00000000 .ARM.exidx.text._ZN42_$LT$$RF$T$u20$as$u20$core..fmt..Debug$GT$3fmt17hcd3d43c7379a307dE
00016a2c l    d  .ARM.exidx.text._ZN44_$LT$$RF$T$u20$as$u20$core..fmt..Display$GT$3fmt17h328b3198ae6deeeeE	00000000 .ARM.exidx.text._ZN44_$LT$$RF$T$u20$as$u20$core..fmt..Display$GT$3fmt17h328b3198ae6deeeeE
00016a2c l    d  .ARM.exidx.text._ZN91_$LT$core..slice..iter..Iter$LT$T$GT$$u20$as$u20$core..iter..traits..iterator..Iterator$GT$4next17h09592dbd374f3d62E	00000000 .ARM.exidx.text._ZN91_$LT$core..slice..iter..Iter$LT$T$GT$$u20$as$u20$core..iter..traits..iterator..Iterator$GT$4next17h09592dbd374f3d62E
00016a2c l    d  .ARM.exidx.text._ZN91_$LT$core..slice..iter..Iter$LT$T$GT$$u20$as$u20$core..iter..traits..iterator..Iterator$GT$4next17h385cdd3a3cf20cddE	00000000 .ARM.exidx.text._ZN91_$LT$core..slice..iter..Iter$LT$T$GT$$u20$as$u20$core..iter..traits..iterator..Iterator$GT$4next17h385cdd3a3cf20cddE
00016a2c l    d  .ARM.exidx.text._ZN91_$LT$core..slice..iter..Iter$LT$T$GT$$u20$as$u20$core..iter..traits..iterator..Iterator$GT$4next17h42b8e2d1e4f97919E	00000000 .ARM.exidx.text._ZN91_$LT$core..slice..iter..Iter$LT$T$GT$$u20$as$u20$core..iter..traits..iterator..Iterator$GT$4next17h42b8e2d1e4f97919E
00016a2c l    d  .ARM.exidx.text._ZN91_$LT$core..slice..iter..Iter$LT$T$GT$$u20$as$u20$core..iter..traits..iterator..Iterator$GT$4next17h8b9620239a978897E	00000000 .ARM.exidx.text._ZN91_$LT$core..slice..iter..Iter$LT$T$GT$$u20$as$u20$core..iter..traits..iterator..Iterator$GT$4next17h8b9620239a978897E
00016a2c l    d  .ARM.exidx.text._ZN91_$LT$core..slice..iter..Iter$LT$T$GT$$u20$as$u20$core..iter..traits..iterator..Iterator$GT$4next17he4c19282d38a2c08E	00000000 .ARM.exidx.text._ZN91_$LT$core..slice..iter..Iter$LT$T$GT$$u20$as$u20$core..iter..traits..iterator..Iterator$GT$4next17he4c19282d38a2c08E
00016a2c l    d  .ARM.exidx.text._ZN109_$LT$core..slice..iter..IterMut$LT$T$GT$$u20$as$u20$core..iter..traits..double_ended..DoubleEndedIterator$GT$9next_back17h7431d0be338170dbE	00000000 .ARM.exidx.text._ZN109_$LT$core..slice..iter..IterMut$LT$T$GT$$u20$as$u20$core..iter..traits..double_ended..DoubleEndedIterator$GT$9next_back17h7431d0be338170dbE
00016a2c l    d  .ARM.exidx.text._ZN17compiler_builtins3int19specialized_div_rem11zero_div_fn17hf03c95b0b3dbbf31E	00000000 .ARM.exidx.text._ZN17compiler_builtins3int19specialized_div_rem11zero_div_fn17hf03c95b0b3dbbf31E
00016a2c l    d  .ARM.exidx.text._ZN4core4hint21unreachable_unchecked17hf4c0656ed966dd2fE	00000000 .ARM.exidx.text._ZN4core4hint21unreachable_unchecked17hf4c0656ed966dd2fE
00016a2c l    d  .ARM.exidx.text.memcpy	00000000 .ARM.exidx.text.memcpy
00016a2c l    d  .ARM.exidx.text.memset	00000000 .ARM.exidx.text.memset
00016a2c l    d  .ARM.exidx.text.__aeabi_uidivmod	00000000 .ARM.exidx.text.__aeabi_uidivmod
00016a2c l    d  .ARM.exidx.text.__aeabi_memcpy	00000000 .ARM.exidx.text.__aeabi_memcpy
00016a2c l    d  .ARM.exidx.text.__aeabi_memcpy4	00000000 .ARM.exidx.text.__aeabi_memcpy4
00016a2c l    d  .ARM.exidx.text.__aeabi_memset	00000000 .ARM.exidx.text.__aeabi_memset
00016a2c l    d  .ARM.exidx.text._ZN17compiler_builtins3int19specialized_div_rem23u32_normalization_shift17h0a74ed9fc00af064E	00000000 .ARM.exidx.text._ZN17compiler_builtins3int19specialized_div_rem23u32_normalization_shift17h0a74ed9fc00af064E
00016a2c l    d  .ARM.exidx.text._ZN17compiler_builtins3int19specialized_div_rem11u32_div_rem17hd87563ff3b0b2a9aE	00000000 .ARM.exidx.text._ZN17compiler_builtins3int19specialized_div_rem11u32_div_rem17hd87563ff3b0b2a9aE
00016a2c l    d  .ARM.exidx.text._ZN17compiler_builtins3int4udiv9__udivsi317h54b52e769a6ea9c3E	00000000 .ARM.exidx.text._ZN17compiler_builtins3int4udiv9__udivsi317h54b52e769a6ea9c3E
00016a2c l    d  .ARM.exidx.text.__aeabi_uidiv	00000000 .ARM.exidx.text.__aeabi_uidiv
00016a2c l    d  .ARM.exidx.text._ZN17compiler_builtins3int4udiv12__udivmodsi417h365cb561a3167aa7E	00000000 .ARM.exidx.text._ZN17compiler_builtins3int4udiv12__udivmodsi417h365cb561a3167aa7E
00016a2c l    d  .ARM.exidx.text.__udivmodsi4	00000000 .ARM.exidx.text.__udivmodsi4
00000000 l    d  .debug_abbrev	00000000 .debug_abbrev
00000000 l    d  .debug_info	00000000 .debug_info
00000000 l    d  .debug_aranges	00000000 .debug_aranges
00000000 l    d  .debug_ranges	00000000 .debug_ranges
00000000 l    d  .debug_str	00000000 .debug_str
00000000 l    d  .debug_pubnames	00000000 .debug_pubnames
00000000 l    d  .debug_pubtypes	00000000 .debug_pubtypes
00000000 l    d  .ARM.attributes	00000000 .ARM.attributes
00000000 l    d  .debug_frame	00000000 .debug_frame
00000000 l    d  .debug_line	00000000 .debug_line
00000000 l    d  .debug_loc	00000000 .debug_loc
00000000 l    df *ABS*	00000000 1eihgfbmkqsi2lvl
00008000 l       .text	00000000 $a.0
00008024 l       .text	00000000 $a.1
00008034 l     F .text	00000118 _ZN3nox7println17hc70cef11652a5ddbE
00008034 l       .text	00000000 $a.2
00008354 l     F .text	00000034 _ZN4core3str21_$LT$impl$u20$str$GT$3len17h4b2f759e4820fcddE
00008148 l       .text	00000000 $d.3
0000814c l       .text	00000000 $a.4
00008328 l       .text	00000000 $d.5
00015078 l     O .rodata	00000008 _ZN3nox6_rmain6string17h7e0f3c84a46fa9a1E
00015030 l     O .rodata	00000021 str.0
00008354 l       .text	00000000 $a.6
00000000 l    df *ABS*	00000000 4v0l7joi6rm6c8b7
00008388 l       .text	00000000 $a.0
000083c0 l       .text	00000000 $a.1
00008594 l       .text	00000000 $d.2
00015120 l     O .rodata	00000023 str.2
000150f0 l     O .rodata	0000001c str.1
000150a0 l     O .rodata	00000021 str.0
000085b8 l       .text	00000000 $a.3
000085d8 l       .text	00000000 $a.4
000085f8 l       .text	00000000 $a.6
0000866c l       .text	00000000 $d.7
00008678 l       .text	00000000 $a.8
000086ec l       .text	00000000 $d.9
000086f8 l       .text	00000000 $a.13
00008750 l       .text	00000000 $a.14
000087f4 l       .text	00000000 $a.17
00008804 l       .text	00000000 $a.18
00015180 l     O .rodata	00000021 str.4
00008814 l       .text	00000000 $a.22
00008838 l       .text	00000000 $d.23
0000883c l       .text	00000000 $a.24
000088d8 l       .text	00000000 $d.25
000088e0 l       .text	00000000 $a.26
0000892c l       .text	00000000 $d.27
00008934 l       .text	00000000 $a.28
00008a98 l       .text	00000000 $d.29
00008abc l       .text	00000000 $a.34
00008b28 l       .text	00000000 $d.35
00008b2c l       .text	00000000 $a.39
00008b88 l       .text	00000000 $d.40
00008b8c l       .text	00000000 $a.43
0000903c l     F .text	00000014 _ZN4core5clone5impls52_$LT$impl$u20$core..clone..Clone$u20$for$u20$u32$GT$5clone17h5e0109765ee16457E
00008c1c l       .text	00000000 $a.55
00008cd0 l       .text	00000000 $d.56
00008cd8 l       .text	00000000 $a.57
00008d20 l       .text	00000000 $a.58
00008d68 l       .text	00000000 $a.59
00008db8 l       .text	00000000 $a.60
00008e08 l       .text	00000000 $a.61
00008e30 l       .text	00000000 $a.62
00008e58 l       .text	00000000 $a.63
000090cc l     F .text	00000014 _ZN4core7convert3num63_$LT$impl$u20$core..convert..From$LT$u8$GT$$u20$for$u20$u32$GT$4from17ha5d75d29dd56cfafE
00008e7c l       .text	00000000 $a.64
00009098 l     F .text	00000034 _ZN4core3cmp5impls55_$LT$impl$u20$core..cmp..PartialOrd$u20$for$u20$i32$GT$2lt17hce9a9fd1a84b56daE
00009050 l     F .text	00000014 _ZN4core5clone5impls52_$LT$impl$u20$core..clone..Clone$u20$for$u20$i32$GT$5clone17hebcf0f3ee497b849E
00009114 l     F .text	00000034 _ZN47_$LT$i32$u20$as$u20$core..iter..range..Step$GT$17forward_unchecked17h1a629ec05f83e395E
00008f1c l       .text	00000000 $a.65
00009064 l     F .text	00000034 _ZN4core3cmp5impls55_$LT$impl$u20$core..cmp..PartialOrd$u20$for$u20$u32$GT$2lt17h2b7fc589dc418b15E
000090e0 l     F .text	00000034 _ZN47_$LT$u32$u20$as$u20$core..iter..range..Step$GT$17forward_unchecked17h7320daeaeed6d3dcE
00008fbc l       .text	00000000 $a.66
00008fe8 l       .text	00000000 $a.67
00009014 l       .text	00000000 $a.68
00009028 l       .text	00000000 $a.69
0000903c l       .text	00000000 $a.71
00009050 l       .text	00000000 $a.72
00009064 l       .text	00000000 $a.73
00009098 l       .text	00000000 $a.74
000090cc l       .text	00000000 $a.75
000090e0 l       .text	00000000 $a.76
00009114 l       .text	00000000 $a.77
00000000 l    df *ABS*	00000000 core.42dd3c36-cgu.0
00009148 l     F .text	00000030 _ZN4core3ops8function6FnOnce9call_once17h02077f446692cad1E
00009148 l       .text	00000000 $a.2
00009178 l     F .text	00000020 _ZN4core3ops8function6FnOnce9call_once17h0b830900cfc8e13fE
00009178 l       .text	00000000 $a.3
00009198 l     F .text	00000030 _ZN4core3ops8function6FnOnce9call_once17h10c329ac813edc41E
00009198 l       .text	00000000 $a.4
000091c8 l     F .text	0000003c _ZN4core3ops8function6FnOnce9call_once17h652a5010643b2035E
000091c8 l       .text	00000000 $a.5
0000ce08 l     F .text	00000030 _ZN4core3fmt12USIZE_MARKER28_$u7b$$u7b$closure$u7d$$u7d$17hc8ead2c0d1435e3eE
00009204 l     F .text	00000020 _ZN4core3ops8function6FnOnce9call_once17had4262aec2f581dfE
00009204 l       .text	00000000 $a.7
00009224 l     F .text	00000020 _ZN4core3ops8function6FnOnce9call_once17hca23baf9ed158dd8E
00009224 l       .text	00000000 $a.9
00009244 l     F .text	00000030 _ZN4core3ops8function6FnOnce9call_once17hd97bd0814c696285E
00009244 l       .text	00000000 $a.11
00011e6c l     F .text	00000074 _ZN4core3cmp5impls50_$LT$impl$u20$core..cmp..Ord$u20$for$u20$usize$GT$3cmp17h3d79425c57ffc708E
00009274 l     F .text	00000020 _ZN4core3ops8function6FnOnce9call_once17hef1f5979641ae403E
00009274 l       .text	00000000 $a.12
00009294 l     F .text	00000010 _ZN4core3ptr30drop_in_place$LT$$RF$usize$GT$17h7f854e86168e2e61E
00009294 l       .text	00000000 $a.57
000092a4 l     F .text	00000010 _ZN4core3ptr88drop_in_place$LT$core..panic..panic_info..PanicInfo..internal_constructor..NoPayload$GT$17hec2b155977c27d61E
000092a4 l       .text	00000000 $a.118
000151d0 l     O .rodata	00000021 str.0
00015200 l     O .rodata	0000001c str.1
00015220 l     O .rodata	00000021 str.2
00015250 l     O .rodata	00000023 str.3
00015280 l     O .rodata	00000024 str.4
000152b0 l     O .rodata	0000001f str.5
00015430 l     O .rodata	0000001f str.6
00015470 l     O .rodata	00000039 str.8
00015450 l     O .rodata	00000019 str.7
00011a48 l     F .text	00000034 _ZN4core3str21_$LT$impl$u20$str$GT$3len17h14a3611b18a00a0eE
000092b4 l       .text	00000000 $a.372
00011a7c l     F .text	00000030 _ZN4core3str21_$LT$impl$u20$str$GT$8is_empty17hd7cf8b576699b70eE
0000d03c l     F .text	00000134 _ZN4core3fmt9Arguments6new_v117hd47ebd6f67dc7416E
000092d4 l     F .text	00000004 _ZN4core4hint21unreachable_unchecked17h18b8e30063cbc1c9E
000092d4 l       .text	00000000 $a.397
000092d8 l       .text	00000000 $a.398
00009364 l       .text	00000000 $d.399
0000936c l       .text	00000000 $a.400
000093f8 l       .text	00000000 $d.401
00009400 l       .text	00000000 $a.404
0000947c l       .text	00000000 $d.405
00009484 l       .text	00000000 $a.406
00011cb0 l     F .text	000000b8 _ZN4core3num23_$LT$impl$u20$usize$GT$11checked_mul17hb7ff3cbd0d4cc03cE
00009598 l       .text	00000000 $d.407
000095a8 l       .text	00000000 $a.408
000096bc l       .text	00000000 $d.409
000096cc l       .text	00000000 $a.410
00009720 l       .text	00000000 $a.411
00009770 l       .text	00000000 $a.412
00009844 l       .text	00000000 $a.413
00009918 l       .text	00000000 $a.414
0000996c l       .text	00000000 $a.415
000099d0 l       .text	00000000 $d.416
000099dc l       .text	00000000 $a.417
000099fc l       .text	00000000 $a.418
00009a1c l       .text	00000000 $a.419
00009a60 l       .text	00000000 $a.420
00009a80 l       .text	00000000 $a.422
00009aa0 l       .text	00000000 $a.423
00009ae4 l       .text	00000000 $a.427
00009b04 l       .text	00000000 $a.429
00009b54 l       .text	00000000 $a.431
00009b9c l       .text	00000000 $a.432
00009be4 l       .text	00000000 $a.434
00009c04 l       .text	00000000 $a.435
00009c24 l       .text	00000000 $a.436
00009c44 l       .text	00000000 $a.438
00009c78 l       .text	00000000 $a.439
00009cac l       .text	00000000 $a.441
00009ce0 l       .text	00000000 $a.442
00009d14 l       .text	00000000 $a.447
00009d2c l       .text	00000000 $a.449
00009d44 l       .text	00000000 $a.452
00009d5c l       .text	00000000 $a.453
00009d74 l       .text	00000000 $a.454
00009d8c l       .text	00000000 $a.456
00009da4 l       .text	00000000 $a.458
00009db4 l       .text	00000000 $a.461
00009dc4 l       .text	00000000 $a.464
00009dd4 l       .text	00000000 $a.465
00009de4 l       .text	00000000 $a.466
00009df4 l       .text	00000000 $a.467
00009e04 l       .text	00000000 $a.469
00009e3c l       .text	00000000 $a.470
00009e74 l       .text	00000000 $a.474
00009eac l       .text	00000000 $a.476
00009ee4 l       .text	00000000 $a.477
00009f1c l       .text	00000000 $a.480
00009f2c l       .text	00000000 $a.481
00009f3c l       .text	00000000 $a.483
00009f4c l       .text	00000000 $a.485
00009f5c l       .text	00000000 $a.486
00009f6c l       .text	00000000 $a.487
00009fa4 l       .text	00000000 $a.491
00009fcc l       .text	00000000 $a.493
00009ff4 l       .text	00000000 $a.494
0000a01c l       .text	00000000 $a.495
0000a030 l       .text	00000000 $a.496
0000a044 l       .text	00000000 $a.497
0000a058 l       .text	00000000 $a.500
0000a06c l       .text	00000000 $a.503
0000a080 l       .text	00000000 $a.504
0000a0b8 l       .text	00000000 $a.507
0000a0f0 l       .text	00000000 $a.509
0000a128 l       .text	00000000 $a.511
0000a160 l       .text	00000000 $a.512
0000a198 l       .text	00000000 $a.513
0000a1d0 l       .text	00000000 $a.514
0000a208 l       .text	00000000 $a.516
0000a250 l       .text	00000000 $a.517
0000a298 l       .text	00000000 $a.518
0000a2e0 l       .text	00000000 $a.520
0000a328 l       .text	00000000 $a.525
0000a43c l     F .text	00000298 _ZN4core3ptr25swap_nonoverlapping_bytes17hf060f760246acaadE
0000a3ac l       .text	00000000 $d.526
0000a3b4 l       .text	00000000 $a.527
0000a43c l       .text	00000000 $a.528
0000a6c0 l       .text	00000000 $d.529
0000a6d4 l       .text	00000000 $a.531
0000a724 l       .text	00000000 $a.532
0000a774 l       .text	00000000 $a.533
0000a7c8 l       .text	00000000 $a.536
0000a7f0 l       .text	00000000 $a.539
0000a818 l       .text	00000000 $a.540
0000a840 l       .text	00000000 $a.542
0000a898 l       .text	00000000 $a.543
0000aaec l     F .text	00000160 _ZN4core3ptr12align_offset7mod_inv17h2dd2e6f553a56476E
0000aaec l       .text	00000000 $a.544
0000ac44 l       .text	00000000 $d.545
0000ac4c l       .text	00000000 $a.549
0000ac74 l       .text	00000000 $a.555
0000ac9c l       .text	00000000 $a.556
0000ad64 l       .text	00000000 $a.569
0000ad74 l       .text	00000000 $a.571
000124f0 l     F .text	000000a4 _ZN4core3fmt3num52_$LT$impl$u20$core..fmt..Debug$u20$for$u20$usize$GT$3fmt17h8f80d87d397c4613E
0000ad80 l       .text	00000000 $a.599
0000adac l       .text	00000000 $a.613
0000adf4 l       .text	00000000 $d.614
0000adfc l       .text	00000000 $a.618
0000ae2c l       .text	00000000 $a.619
00010bd0 l     F .text	00000038 _ZN4core3str8converts19from_utf8_unchecked17h52dbaed8b9b07d57E
0000ae68 l     F .text	0000006c _ZN4core4char7convert8from_u3217h24f958a1bed963c3E
0000ae68 l       .text	00000000 $a.662
0000af10 l     F .text	000000bc _ZN4core4char7convert17char_try_from_u3217h6bb3e43a3189a8acE
0000aed4 l     F .text	0000003c _ZN4core4char7convert18from_u32_unchecked17ha5af22e9e29cbbabE
0000aed4 l       .text	00000000 $a.663
0000afcc l     F .text	00000024 _ZN4core4char7methods22_$LT$impl$u20$char$GT$8from_u3217h1354ded5383331daE
0000af0c l       .text	00000000 $d.664
0000af10 l       .text	00000000 $a.668
0000afcc l       .text	00000000 $a.676
0000aff0 l       .text	00000000 $a.762
0000b020 l       .text	00000000 $a.763
0000b050 l       .text	00000000 $a.764
0000b138 l       .text	00000000 $d.765
0000b140 l       .text	00000000 $a.770
0000b228 l       .text	00000000 $d.771
0000b230 l       .text	00000000 $a.772
0000b254 l       .text	00000000 $a.777
0000b2ac l       .text	00000000 $a.778
0000b2b8 l       .text	00000000 $a.779
00011320 l     F .text	0000003c _ZN4core3str5count23char_count_general_case28_$u7b$$u7b$closure$u7d$$u7d$17h3bfaf0e4922b22e5E
0000b2fc l       .text	00000000 $a.853
0000b320 l       .text	00000000 $a.867
0000b32c l       .text	00000000 $a.868
0001202c l     F .text	0000004c _ZN56_$LT$usize$u20$as$u20$core..iter..traits..accum..Sum$GT$3sum28_$u7b$$u7b$closure$u7d$$u7d$17h354570db4f1bd5a0E
0000b394 l       .text	00000000 $a.881
0000b3e0 l       .text	00000000 $a.890
0000b404 l       .text	00000000 $a.896
0000b428 l       .text	00000000 $a.921
00011e04 l     F .text	00000034 _ZN4core3cmp5impls57_$LT$impl$u20$core..cmp..PartialOrd$u20$for$u20$usize$GT$2lt17h50e18a8ad36b70d1E
00011dc8 l     F .text	00000014 _ZN4core5clone5impls54_$LT$impl$u20$core..clone..Clone$u20$for$u20$usize$GT$5clone17hd939152c9612436bE
00011fcc l     F .text	00000034 _ZN49_$LT$usize$u20$as$u20$core..iter..range..Step$GT$17forward_unchecked17hc9da2c4e7235d338E
0000b4c8 l       .text	00000000 $a.925
0000b4f4 l       .text	00000000 $a.937
0000b518 l       .text	00000000 $a.946
0000b52c l       .text	00000000 $a.949
0000b550 l       .text	00000000 $a.950
0000b574 l       .text	00000000 $a.951
0000b588 l       .text	00000000 $a.962
00011444 l     F .text	000001fc _ZN87_$LT$core..str..iter..CharIndices$u20$as$u20$core..iter..traits..iterator..Iterator$GT$4next17hd773219ae4fca8caE
0000b6ac l       .text	00000000 $d.963
0000b6b0 l       .text	00000000 $a.965
0000b748 l       .text	00000000 $a.970
0000b778 l       .text	00000000 $a.973
0000b7a8 l       .text	00000000 $a.976
0000b7c8 l       .text	00000000 $a.977
0001135c l     F .text	0000003c _ZN81_$LT$core..str..iter..Chars$u20$as$u20$core..iter..traits..iterator..Iterator$GT$4next17h4ce585fe76b34787E
0000b7e8 l       .text	00000000 $a.1023
0000b874 l       .text	00000000 $a.1030
0000b8a4 l       .text	00000000 $a.1034
0000b8cc l       .text	00000000 $a.1041
0000b908 l       .text	00000000 $a.1043
0000b944 l       .text	00000000 $a.1049
0000b970 l       .text	00000000 $a.1055
0000b9bc l       .text	00000000 $d.1056
0000b9c0 l       .text	00000000 $a.1057
0000ba10 l       .text	00000000 $d.1058
0000ba14 l       .text	00000000 $a.1061
0000bac0 l       .text	00000000 $a.1069
0000bb40 l       .text	00000000 $d.1070
0000bb44 l       .text	00000000 $a.1074
00011398 l     F .text	00000024 _ZN81_$LT$core..str..iter..Chars$u20$as$u20$core..iter..traits..iterator..Iterator$GT$4next28_$u7b$$u7b$closure$u7d$$u7d$17hd5e273e066f80caaE
0000bbe0 l       .text	00000000 $a.1099
0000bc8c l       .text	00000000 $a.1123
0000bce0 l       .text	00000000 $a.1125
0000bd34 l       .text	00000000 $a.1127
0000bd88 l       .text	00000000 $a.1131
0000bdcc l       .text	00000000 $a.1139
0000bde8 l       .text	00000000 $a.1140
0000be10 l       .text	00000000 $a.1142
0000be34 l       .text	00000000 $a.1143
0000be58 l       .text	00000000 $a.1144
0000be78 l     F .text	0000003c _ZN4core5panic10panic_info9PanicInfo20internal_constructor17hff58fc59f9b36707E
0000be78 l       .text	00000000 $a.1151
0000beac l       .text	00000000 $d.1152
0000beb4 l       .text	00000000 $a.1159
0000bf00 l       .text	00000000 $d.1160
0000bf04 l       .text	00000000 $a.1164
0000bf8c l       .text	00000000 $d.1165
0000bf90 l       .text	00000000 $a.1168
0000bfd4 l       .text	00000000 $a.1175
0000c020 l       .text	00000000 $d.1176
0000c024 l       .text	00000000 $a.1182
0000c25c l       .text	00000000 $d.1183
0000c270 l       .text	00000000 $a.1185
0000c2cc l       .text	00000000 $a.1209
0000c34c l       .text	00000000 $a.1210
0000c390 l       .text	00000000 $a.1213
0000c404 l       .text	00000000 $a.1219
0000c428 l       .text	00000000 $a.1220
0000c45c l       .text	00000000 $a.1223
0000c49c l       .text	00000000 $a.1362
00011e38 l     F .text	00000034 _ZN4core3cmp5impls57_$LT$impl$u20$core..cmp..PartialOrd$u20$for$u20$usize$GT$2ge17h3b07ee89d904bc72E
00011f74 l     F .text	00000058 _ZN47_$LT$usize$u20$as$u20$core..ops..arith..Rem$GT$3rem17hed0e05905b88c63fE
00011f28 l     F .text	0000004c _ZN47_$LT$usize$u20$as$u20$core..ops..arith..Div$GT$3div17h2df646bc9efd9019E
00011ddc l     F .text	00000028 _ZN4core3cmp5impls56_$LT$impl$u20$core..cmp..PartialEq$u20$for$u20$usize$GT$2eq17h72e042646ebe0583E
00011ee0 l     F .text	00000048 _ZN47_$LT$usize$u20$as$u20$core..ops..arith..Sub$GT$3sub17h64ad1807df18bbb0E
0000c910 l       .text	00000000 $d.1363
0000c924 l       .text	00000000 $a.1364
0000cd98 l       .text	00000000 $d.1365
00015bd8 l     O .rodata	00000004 _ZN4core3fmt3num14DEC_DIGITS_LUT17ha48736067067750cE
0000cdac l       .text	00000000 $a.1412
0000ce08 l       .text	00000000 $a.1413
0000ce38 l       .text	00000000 $a.1414
0000ce8c l       .text	00000000 $a.1417
0000cee0 l       .text	00000000 $a.1422
0000cf34 l       .text	00000000 $a.1424
0000cf88 l       .text	00000000 $a.1425
0000cfdc l     F .text	00000060 _ZN4core3fmt10ArgumentV18as_usize17h90afd2da165caa5cE
0000cfdc l       .text	00000000 $a.1429
0000d038 l       .text	00000000 $d.1430
0000d03c l       .text	00000000 $a.1431
0000d15c l       .text	00000000 $d.1432
0000d170 l       .text	00000000 $a.1437
0000d1b8 l       .text	00000000 $a.1438
0000d6a4 l     F .text	00000130 _ZN4core3fmt3run17h369bc0c920887370E
0000d684 l       .text	00000000 $d.1439
0000d6a4 l       .text	00000000 $a.1440
0000d7d4 l     F .text	000000ec _ZN4core3fmt8getcount17h0b71ba4dce2ed406E
0000d7cc l       .text	00000000 $d.1441
0000d7d4 l       .text	00000000 $a.1442
0000d8b8 l       .text	00000000 $d.1443
0000d8c0 l     F .text	00000024 _ZN4core3fmt11PostPadding3new17hd707ba2e2f281ce5E
0000d8c0 l       .text	00000000 $a.1444
0000d8e4 l     F .text	000000f8 _ZN4core3fmt11PostPadding5write17h749827b00c253280E
0000d8e4 l       .text	00000000 $a.1445
0000d9d8 l       .text	00000000 $d.1446
0000d9dc l       .text	00000000 $a.1448
00011be4 l     F .text	0000006c _ZN4core3str21_$LT$impl$u20$str$GT$5chars17hbaf4cad00ce48caaE
000113bc l     F .text	00000044 _ZN81_$LT$core..str..iter..Chars$u20$as$u20$core..iter..traits..iterator..Iterator$GT$5count17h42b30a58c777afecE
0000e12c l     F .text	000000e4 _ZN4core3fmt9Formatter12pad_integral12write_prefix17h1a1880509098b6f4E
0000e58c l     F .text	00000214 _ZN4core3fmt9Formatter7padding17h5b11df4d9ea5f2b3E
0000e0ec l       .text	00000000 $d.1449
0000e12c l       .text	00000000 $a.1450
0000e20c l       .text	00000000 $d.1451
0000e210 l       .text	00000000 $a.1452
00011c50 l     F .text	00000060 _ZN4core3str21_$LT$impl$u20$str$GT$12char_indices17hd69404982939c15bE
0000e57c l       .text	00000000 $d.1453
0000e58c l       .text	00000000 $a.1454
0000e5f4 l       .text	00000000 $d.1455
0000e604 l       .text	00000000 $a.1456
0000e794 l       .text	00000000 $d.1457
0000e7a0 l       .text	00000000 $a.1472
0000e7b8 l       .text	00000000 $a.1474
0000e7d4 l       .text	00000000 $a.1475
0000e7f0 l       .text	00000000 $a.1476
0000e80c l       .text	00000000 $a.1477
0000e828 l       .text	00000000 $a.1495
0000e868 l       .text	00000000 $a.1552
0000e8ac l       .text	00000000 $a.1565
0000e934 l       .text	00000000 $d.1566
0000e938 l       .text	00000000 $a.1575
0000e9a0 l       .text	00000000 $a.1576
0000ea08 l       .text	00000000 $a.1580
0000ea7c l       .text	00000000 $a.1581
0000eaf0 l       .text	00000000 $a.1582
0000eb64 l       .text	00000000 $a.1586
0000ec2c l       .text	00000000 $d.1587
0000ec34 l       .text	00000000 $a.1588
0000ecfc l       .text	00000000 $d.1589
0000ed04 l       .text	00000000 $a.1590
0000edcc l       .text	00000000 $d.1591
0000edd4 l       .text	00000000 $a.1609
0000ee24 l       .text	00000000 $a.1610
0000ee74 l       .text	00000000 $a.1619
0000eef0 l       .text	00000000 $a.1620
0000ef6c l       .text	00000000 $a.1621
0000efe8 l       .text	00000000 $a.1625
0000f058 l       .text	00000000 $a.1641
0000f088 l       .text	00000000 $a.1645
0000f0b8 l       .text	00000000 $a.1653
0000f198 l       .text	00000000 $a.1654
0000f278 l       .text	00000000 $a.1655
0000f358 l       .text	00000000 $a.1657
0000f438 l       .text	00000000 $a.1658
0000f518 l       .text	00000000 $a.1660
0000f5b8 l       .text	00000000 $a.1663
0000f698 l       .text	00000000 $a.1667
0000f6bc l       .text	00000000 $a.1668
0000f798 l       .text	00000000 $d.1669
0000f79c l       .text	00000000 $a.1670
0000f7e4 l       .text	00000000 $a.1671
0000f82c l       .text	00000000 $a.1673
00011d68 l     F .text	00000060 _ZN4core3num23_$LT$impl$u20$usize$GT$14saturating_mul17he0e56fdf767fb9b6E
0000f874 l       .text	00000000 $a.1676
0000f8fc l       .text	00000000 $d.1677
0000f908 l       .text	00000000 $a.1678
0000f990 l       .text	00000000 $d.1679
0000f99c l       .text	00000000 $a.1680
0000fa24 l       .text	00000000 $d.1681
0000fa30 l       .text	00000000 $a.1682
0000fa94 l       .text	00000000 $d.1683
0000faa0 l       .text	00000000 $a.1684
0000fb04 l       .text	00000000 $d.1685
0000fb10 l       .text	00000000 $a.1686
0000fb74 l       .text	00000000 $d.1687
0000fb80 l       .text	00000000 $a.1691
0000fb9c l       .text	00000000 $a.1696
0000fbd8 l       .text	00000000 $a.1697
0000fc14 l       .text	00000000 $a.1700
0000fc58 l       .text	00000000 $a.1701
0000fc9c l       .text	00000000 $a.1702
0000fcd8 l       .text	00000000 $a.1703
0000fd1c l       .text	00000000 $a.1705
0000fd60 l       .text	00000000 $a.1707
0000fd9c l       .text	00000000 $a.1709
0000fdb0 l       .text	00000000 $a.1710
0000fdc4 l       .text	00000000 $a.1711
0000fdd8 l       .text	00000000 $a.1712
0000fdec l       .text	00000000 $a.1715
0000fe00 l       .text	00000000 $a.1717
0000fe14 l       .text	00000000 $a.1719
0000fe28 l       .text	00000000 $a.1722
0000fe58 l       .text	00000000 $a.1723
0000fe88 l       .text	00000000 $a.1724
0000feb8 l       .text	00000000 $a.1726
0000fee8 l       .text	00000000 $a.1728
0000ff18 l       .text	00000000 $a.1732
0000ff48 l       .text	00000000 $a.1734
0001000c l       .text	00000000 $d.1735
00010014 l       .text	00000000 $a.1736
000101a8 l       .text	00000000 $d.1737
000101b8 l       .text	00000000 $a.1738
0001032c l       .text	00000000 $d.1739
00010344 l       .text	00000000 $a.1740
000103b0 l       .text	00000000 $d.1741
000103b4 l       .text	00000000 $a.1742
00010420 l       .text	00000000 $d.1743
00010424 l       .text	00000000 $a.1744
000104c0 l       .text	00000000 $a.1745
0001055c l       .text	00000000 $a.1779
000106e8 l     F .text	00000264 _ZN4core5slice29_$LT$impl$u20$$u5b$T$u5d$$GT$16align_to_offsets3gcd17h52ca9ed27e23eecdE
000106cc l       .text	00000000 $d.1780
000106e8 l       .text	00000000 $a.1783
00010930 l       .text	00000000 $d.1784
0001094c l       .text	00000000 $a.1787
00010bc0 l       .text	00000000 $d.1788
00010bd0 l       .text	00000000 $a.1793
00010c08 l     F .text	00000094 _ZN4core3str5count11count_chars17hfe9d88bbf5353924E
00010c08 l       .text	00000000 $a.1795
00010c9c l       .text	00000000 $a.1796
00011230 l     F .text	00000098 _ZN4core3str5count18sum_bytes_in_usize17h6004dc9ac87b2593E
000111e4 l     F .text	0000004c _ZN4core3str5count30contains_non_continuation_byte17h414c6b05581547daE
000111cc l       .text	00000000 $d.1797
000111e4 l       .text	00000000 $a.1798
0001122c l       .text	00000000 $d.1799
00011230 l       .text	00000000 $a.1800
000112c0 l       .text	00000000 $d.1801
000112c8 l       .text	00000000 $a.1802
00011320 l       .text	00000000 $a.1803
000117f4 l     F .text	00000020 _ZN4core3str11validations17utf8_is_cont_byte17hf4225f2dee7ad739E
0001135c l       .text	00000000 $a.1808
00011398 l       .text	00000000 $a.1809
000113bc l       .text	00000000 $a.1810
00011400 l     F .text	00000044 _ZN4core3str4iter5Chars6as_str17hbf2654c7ec81d8fcE
00011400 l       .text	00000000 $a.1813
00011444 l       .text	00000000 $a.1814
00011630 l       .text	00000000 $d.1815
00011aac l     F .text	000000f4 _ZN4core3str21_$LT$impl$u20$str$GT$16is_char_boundary17ha97b2a4a3b95f885E
00011640 l     F .text	000000a0 _ZN4core3str6traits110_$LT$impl$u20$core..slice..index..SliceIndex$LT$str$GT$$u20$for$u20$core..ops..range..RangeTo$LT$usize$GT$$GT$3get17h38633d9bf2554e71E
00011640 l       .text	00000000 $a.1831
000116e0 l     F .text	00000074 _ZN4core3str6traits110_$LT$impl$u20$core..slice..index..SliceIndex$LT$str$GT$$u20$for$u20$core..ops..range..RangeTo$LT$usize$GT$$GT$13get_unchecked17h778130eddf5f472cE
000116e0 l       .text	00000000 $a.1832
00011754 l     F .text	00000068 _ZN4core3str11validations15utf8_first_byte17h807516d75a2ca278E
00011754 l       .text	00000000 $a.1838
000117b4 l       .text	00000000 $d.1839
000117bc l     F .text	00000038 _ZN4core3str11validations18utf8_acc_cont_byte17hd8201390176fb4d2E
000117bc l       .text	00000000 $a.1840
000117f4 l       .text	00000000 $a.1841
00011814 l       .text	00000000 $a.1842
00011a3c l       .text	00000000 $d.1843
00011a48 l       .text	00000000 $a.1875
00011a7c l       .text	00000000 $a.1876
00011aac l       .text	00000000 $a.1877
00011ba0 l       .text	00000000 $a.1881
00011be4 l       .text	00000000 $a.1882
00011c50 l       .text	00000000 $a.1883
00011cb0 l       .text	00000000 $a.2211
00011d68 l       .text	00000000 $a.2212
00011dc8 l       .text	00000000 $a.2294
00011ddc l       .text	00000000 $a.2301
00011e04 l       .text	00000000 $a.2308
00011e38 l       .text	00000000 $a.2309
00011e6c l       .text	00000000 $a.2311
00011ee0 l       .text	00000000 $a.2337
00011f20 l       .text	00000000 $d.2338
00011f28 l       .text	00000000 $a.2349
00011f6c l       .text	00000000 $d.2350
00011f74 l       .text	00000000 $a.2361
00011fc4 l       .text	00000000 $d.2362
00011fcc l       .text	00000000 $a.2465
00012000 l       .text	00000000 $a.2467
0001202c l       .text	00000000 $a.2468
00012070 l       .text	00000000 $d.2469
00012078 l       .text	00000000 $a.2586
0001208c l       .text	00000000 $a.2617
00012094 l       .text	00000000 $a.2618
000120a8 l       .text	00000000 $a.2619
000120bc l       .text	00000000 $a.2621
000120d0 l       .text	00000000 $a.2628
00012284 l       .text	00000000 $d.2629
000122a4 l       .text	00000000 $a.2630
00012458 l       .text	00000000 $d.2631
00012478 l       .text	00000000 $a.2644
000124b0 l       .text	00000000 $d.2645
000124b4 l       .text	00000000 $a.2646
000124ec l       .text	00000000 $d.2647
000124f0 l       .text	00000000 $a.2737
00012594 l     F .text	00000658 _ZN4core3fmt3num3imp7fmt_u3217h9e0b25e1b2d1183fE
00012594 l       .text	00000000 $a.2738
00012bc4 l       .text	00000000 $d.2739
00016700 l     O .rodata	00000030 str.9
00012bec l       .text	00000000 $a.2741
00012c88 l       .text	00000000 $a.2747
00012d28 l       .text	00000000 $a.2790
00012d58 l       .text	00000000 $d.2791
00012d5c l       .text	00000000 $a.2792
00012d8c l       .text	00000000 $d.2793
00012d90 l       .text	00000000 $a.2794
00012dc0 l       .text	00000000 $d.2795
00012dc4 l       .text	00000000 $a.2796
00012df4 l       .text	00000000 $d.2797
00012df8 l       .text	00000000 $a.2802
00012e28 l       .text	00000000 $d.2803
00012e2c l       .text	00000000 $a.2876
00012e68 l       .text	00000000 $a.2891
00012e98 l       .text	00000000 $a.2911
00012ed4 l       .text	00000000 $a.2934
00012fec l       .text	00000000 $a.2936
00013104 l       .text	00000000 $a.2937
0001321c l       .text	00000000 $a.2940
00013334 l       .text	00000000 $a.2942
0001344c l       .text	00000000 $a.2986
00013564 l       .text	00000000 $d.2987
00000000 l    df *ABS*	00000000 compiler_builtins.667650fd-cgu.0
00016740 l     O .rodata	00000021 str.0
00016770 l     O .rodata	00000021 str.2
0001356c l     F .text	00000008 _ZN17compiler_builtins3int19specialized_div_rem11zero_div_fn17hf03c95b0b3dbbf31E
0001356c l       .text	00000000 $a.71
00013574 l     F .text	00000004 _ZN4core4hint21unreachable_unchecked17hf4c0656ed966dd2fE
000167d0 l     O .rodata	00000024 str.5
000167a0 l     O .rodata	00000023 str.4
00013574 l       .text	00000000 $a.123
00013578 l       .text	00000000 $a.124
00013b1c l       .text	00000000 $d.125
00013b44 l       .text	00000000 $a.128
00013ee8 l       .text	00000000 $d.129
00013f04 l       .text	00000000 $a.151
00013f24 l       .text	00000000 $a.155
00013f48 l       .text	00000000 $a.156
00014034 l       .text	00000000 $d.157
0001403c l       .text	00000000 $a.162
0001406c l     F .text	00000138 _ZN17compiler_builtins3int19specialized_div_rem23u32_normalization_shift17h0a74ed9fc00af064E
0001406c l       .text	00000000 $a.392
00014198 l       .text	00000000 $d.393
000141a4 l     F .text	00000448 _ZN17compiler_builtins3int19specialized_div_rem11u32_div_rem17hd87563ff3b0b2a9aE
000141a4 l       .text	00000000 $a.404
000145dc l       .text	00000000 $d.405
000145ec l       .text	00000000 $a.484
00014614 l       .text	00000000 $a.486
0001463c l       .text	00000000 $a.489
000146a0 l       .text	00000000 $a.490
00016a24 l       .ARM.exidx.text.rust_begin_unwind	00000000 $d
00015000 l       .rodata	00000000 $d
0001500c l       .rodata	00000000 $d
0001501c l       .rodata	00000000 $d
00015030 l       .rodata	00000000 $d
00015054 l       .rodata	00000000 $d
00015064 l       .rodata	00000000 $d
00015074 l       .rodata	00000000 $d
00015078 l       .rodata	00000000 $d
00015080 l       .rodata	00000000 $d
0001508c l       .rodata	00000000 $d
000150a0 l       .rodata	00000000 $d
000150c4 l       .rodata	00000000 $d
000150d4 l       .rodata	00000000 $d
000150f0 l       .rodata	00000000 $d
0001510c l       .rodata	00000000 $d
00015120 l       .rodata	00000000 $d
00015144 l       .rodata	00000000 $d
00015154 l       .rodata	00000000 $d
00015164 l       .rodata	00000000 $d
00015180 l       .rodata	00000000 $d
000151a1 l       .rodata	00000000 $d
000151b0 l       .rodata	00000000 $d
000151c0 l       .rodata	00000000 $d
000151d0 l       .rodata	00000000 $d
00015200 l       .rodata	00000000 $d
00015220 l       .rodata	00000000 $d
00015250 l       .rodata	00000000 $d
00015280 l       .rodata	00000000 $d
000152b0 l       .rodata	00000000 $d
000152d0 l       .rodata	00000000 $d
00015430 l       .rodata	00000000 $d
00015450 l       .rodata	00000000 $d
00015470 l       .rodata	00000000 $d
000154ac l       .rodata	00000000 $d
00015538 l       .rodata	00000000 $d
000155b0 l       .rodata	00000000 $d
000155c0 l       .rodata	00000000 $d
000155d0 l       .rodata	00000000 $d
000155e0 l       .rodata	00000000 $d
000155f0 l       .rodata	00000000 $d
00015620 l       .rodata	00000000 $d
00015628 l       .rodata	00000000 $d
00015638 l       .rodata	00000000 $d
000156b0 l       .rodata	00000000 $d
000156c0 l       .rodata	00000000 $d
000156d0 l       .rodata	00000000 $d
000156e0 l       .rodata	00000000 $d
000156f0 l       .rodata	00000000 $d
000157a0 l       .rodata	00000000 $d
000157b0 l       .rodata	00000000 $d
0001582c l       .rodata	00000000 $d
0001583c l       .rodata	00000000 $d
000158c4 l       .rodata	00000000 $d
000158d4 l       .rodata	00000000 $d
00015958 l       .rodata	00000000 $d
00015968 l       .rodata	00000000 $d
00015994 l       .rodata	00000000 $d
000159a4 l       .rodata	00000000 $d
000159b8 l       .rodata	00000000 $d
000159c8 l       .rodata	00000000 $d
000159d8 l       .rodata	00000000 $d
000159df l       .rodata	00000000 $d
000159e1 l       .rodata	00000000 $d
000159e3 l       .rodata	00000000 $d
000159fc l       .rodata	00000000 $d
00015a0e l       .rodata	00000000 $d
00015a1a l       .rodata	00000000 $d
00015a20 l       .rodata	00000000 $d
00015a40 l       .rodata	00000000 $d
00015a44 l       .rodata	00000000 $d
00015a64 l       .rodata	00000000 $d
00015a66 l       .rodata	00000000 $d
00015adc l       .rodata	00000000 $d
00015aec l       .rodata	00000000 $d
00015afc l       .rodata	00000000 $d
00015b0c l       .rodata	00000000 $d
00015b0e l       .rodata	00000000 $d
00015bd8 l       .rodata	00000000 $d
00015bdc l       .rodata	00000000 $d
00015be0 l       .rodata	00000000 $d
00015c58 l       .rodata	00000000 $d
00015c68 l       .rodata	00000000 $d
00015c74 l       .rodata	00000000 $d
00015c7c l       .rodata	00000000 $d
00015c8c l       .rodata	00000000 $d
00015c9c l       .rodata	00000000 $d
00015cac l       .rodata	00000000 $d
00015cbc l       .rodata	00000000 $d
00015ccc l       .rodata	00000000 $d
00015cdc l       .rodata	00000000 $d
00015cec l       .rodata	00000000 $d
00015cfc l       .rodata	00000000 $d
00015d28 l       .rodata	00000000 $d
00015d38 l       .rodata	00000000 $d
00015d48 l       .rodata	00000000 $d
00015d58 l       .rodata	00000000 $d
00015d68 l       .rodata	00000000 $d
00015d78 l       .rodata	00000000 $d
00015d88 l       .rodata	00000000 $d
00015d98 l       .rodata	00000000 $d
00015da8 l       .rodata	00000000 $d
00015db8 l       .rodata	00000000 $d
00015dc8 l       .rodata	00000000 $d
00015dd8 l       .rodata	00000000 $d
00015de8 l       .rodata	00000000 $d
00015df8 l       .rodata	00000000 $d
00015e08 l       .rodata	00000000 $d
00015e18 l       .rodata	00000000 $d
00015e28 l       .rodata	00000000 $d
00015e38 l       .rodata	00000000 $d
00015e48 l       .rodata	00000000 $d
00015e58 l       .rodata	00000000 $d
00015e68 l       .rodata	00000000 $d
00015e78 l       .rodata	00000000 $d
00015e88 l       .rodata	00000000 $d
00015e98 l       .rodata	00000000 $d
00015eaa l       .rodata	00000000 $d
00015ecc l       .rodata	00000000 $d
00015edc l       .rodata	00000000 $d
00015f58 l       .rodata	00000000 $d
00015f68 l       .rodata	00000000 $d
00015fe0 l       .rodata	00000000 $d
00015ff0 l       .rodata	00000000 $d
00016030 l       .rodata	00000000 $d
00016038 l       .rodata	00000000 $d
000160b0 l       .rodata	00000000 $d
000160c0 l       .rodata	00000000 $d
000160ec l       .rodata	00000000 $d
000160f4 l       .rodata	00000000 $d
00016104 l       .rodata	00000000 $d
0001617c l       .rodata	00000000 $d
0001618c l       .rodata	00000000 $d
0001619c l       .rodata	00000000 $d
000161ac l       .rodata	00000000 $d
000161bc l       .rodata	00000000 $d
000161cc l       .rodata	00000000 $d
000161dc l       .rodata	00000000 $d
00016200 l       .rodata	00000000 $d
00016210 l       .rodata	00000000 $d
00016220 l       .rodata	00000000 $d
00016230 l       .rodata	00000000 $d
00016240 l       .rodata	00000000 $d
00016250 l       .rodata	00000000 $d
00016260 l       .rodata	00000000 $d
00016270 l       .rodata	00000000 $d
00016280 l       .rodata	00000000 $d
00016290 l       .rodata	00000000 $d
000162a0 l       .rodata	00000000 $d
00016318 l       .rodata	00000000 $d
00016328 l       .rodata	00000000 $d
00016338 l       .rodata	00000000 $d
00016348 l       .rodata	00000000 $d
00016358 l       .rodata	00000000 $d
00016368 l       .rodata	00000000 $d
00016378 l       .rodata	00000000 $d
000163f0 l       .rodata	00000000 $d
00016400 l       .rodata	00000000 $d
00016410 l       .rodata	00000000 $d
00016490 l       .rodata	00000000 $d
000164a0 l       .rodata	00000000 $d
000164b0 l       .rodata	00000000 $d
000164c0 l       .rodata	00000000 $d
000164d0 l       .rodata	00000000 $d
00016548 l       .rodata	00000000 $d
00016558 l       .rodata	00000000 $d
00016568 l       .rodata	00000000 $d
00016578 l       .rodata	00000000 $d
000165f8 l       .rodata	00000000 $d
00016608 l       .rodata	00000000 $d
00016624 l       .rodata	00000000 $d
00016634 l       .rodata	00000000 $d
00016644 l       .rodata	00000000 $d
00016654 l       .rodata	00000000 $d
00016664 l       .rodata	00000000 $d
00016668 l       .rodata	00000000 $d
00016678 l       .rodata	00000000 $d
00016688 l       .rodata	00000000 $d
00016698 l       .rodata	00000000 $d
000166a8 l       .rodata	00000000 $d
000166b8 l       .rodata	00000000 $d
000166ec l       .rodata	00000000 $d
00016700 l       .rodata	00000000 $d
00016730 l       .rodata	00000000 $d
00016740 l       .rodata	00000000 $d
00016770 l       .rodata	00000000 $d
000167a0 l       .rodata	00000000 $d
000167d0 l       .rodata	00000000 $d
000167f4 l       .rodata	00000000 $d
00016864 l       .rodata	00000000 $d
00016874 l       .rodata	00000000 $d
00016884 l       .rodata	00000000 $d
00016894 l       .rodata	00000000 $d
000168a4 l       .rodata	00000000 $d
000168b4 l       .rodata	00000000 $d
000168c4 l       .rodata	00000000 $d
000168d4 l       .rodata	00000000 $d
000168e4 l       .rodata	00000000 $d
000168f4 l       .rodata	00000000 $d
00016904 l       .rodata	00000000 $d
00016970 l       .rodata	00000000 $d
00016980 l       .rodata	00000000 $d
00016a04 l       .rodata	00000000 $d
00016a14 l       .rodata	00000000 $d
0000ae2c g     F .text	0000003c _ZN4core5array85_$LT$impl$u20$core..ops..index..Index$LT$I$GT$$u20$for$u20$$u5b$T$u3b$$u20$N$u5d$$GT$5index17h014adf7b6a71ea87E
00009d14 g     F .text	00000018 _ZN4core3ptr8non_null16NonNull$LT$T$GT$13new_unchecked17h0ee93a64da3b0115E
0000f99c g     F .text	00000094 _ZN4core5slice3raw20debug_check_data_len17hb789fe369cea3d77E
0000814c g     F .text	00000208 _rmain
0001094c g     F .text	00000284 _ZN4core5slice29_$LT$impl$u20$$u5b$T$u5d$$GT$8align_to17hfcf2be5c78c5ce3bE
0000fbd8 g     F .text	0000003c _ZN4core5slice29_$LT$impl$u20$$u5b$T$u5d$$GT$3get17h8f5e6bea4c5e54d5E
0000a080 g     F .text	00000038 _ZN4core3ptr7mut_ptr31_$LT$impl$u20$$BP$mut$u20$T$GT$7is_null17h3b9b5ff4a0433e48E
00013334 g     F .text	00000118 _ZN91_$LT$core..slice..iter..Iter$LT$T$GT$$u20$as$u20$core..iter..traits..iterator..Iterator$GT$4next17he4c19282d38a2c08E
0000b320 g     F .text	0000000c _ZN4core4iter8adapters3map8map_fold17hbb914d779fa750a4E
0000ce8c g     F .text	00000054 _ZN4core3fmt10ArgumentV13new17h4c844c993ed35af8E
00009f1c g     F .text	00000010 _ZN4core3ptr9const_ptr33_$LT$impl$u20$$BP$const$u20$T$GT$4cast17h1ad786fa4cfa8018E
0000eef0 g     F .text	0000007c _ZN110_$LT$core..ops..range..RangeFrom$LT$usize$GT$$u20$as$u20$core..slice..index..SliceIndex$LT$$u5b$T$u5d$$GT$$GT$13get_unchecked17h4b85c12398c9e232E
0000b050 g     F .text	000000f0 _ZN110_$LT$core..iter..adapters..enumerate..Enumerate$LT$I$GT$$u20$as$u20$core..iter..traits..iterator..Iterator$GT$4next17h1e2fd37d8b362b23E
0000bbe0 g     F .text	000000ac _ZN4core6option15Option$LT$T$GT$5ok_or17ha3aa47d88639c8c3E
00012d90 g     F .text	00000034 _ZN4core3fmt10ArgumentV111new_display17h667da9250b75896aE
00009a60 g     F .text	00000020 _ZN4core10intrinsics17const_eval_select17h8009a97f66a39950E
0000e9a0 g     F .text	00000068 _ZN75_$LT$usize$u20$as$u20$core..slice..index..SliceIndex$LT$$u5b$T$u5d$$GT$$GT$3get17h5df82707e94e479aE
00008cd8 g     F .text	00000048 _ZN4core3mem7replace17h2a549129a5a79e26E
0000ea7c g     F .text	00000074 _ZN75_$LT$usize$u20$as$u20$core..slice..index..SliceIndex$LT$$u5b$T$u5d$$GT$$GT$13get_unchecked17h63bf3b62c6d08f31E
0000ed04 g     F .text	000000d0 _ZN106_$LT$core..ops..range..Range$LT$usize$GT$$u20$as$u20$core..slice..index..SliceIndex$LT$$u5b$T$u5d$$GT$$GT$13get_unchecked17h6388b663972f65d5E
0000b230 g     F .text	00000024 _ZN4core4iter8adapters6filter19Filter$LT$I$C$P$GT$3new17hda6d6ee773a1a87fE
00009f6c g     F .text	00000038 _ZN4core3ptr9const_ptr33_$LT$impl$u20$$BP$const$u20$T$GT$13guaranteed_eq17h5fbdb62c96a7f5f1E
0000e8ac g     F .text	0000008c _ZN4core5slice5index26slice_start_index_len_fail17hb5f5521c28632d81E
0000f518 g     F .text	000000a0 _ZN4core5slice4iter13Iter$LT$T$GT$8as_slice17h327dee1e392d377aE
0000edd4 g     F .text	00000050 _ZN108_$LT$core..ops..range..RangeTo$LT$usize$GT$$u20$as$u20$core..slice..index..SliceIndex$LT$$u5b$T$u5d$$GT$$GT$13get_unchecked17hc56e1446995c5ca8E
0000b944 g     F .text	0000002c _ZN4core6option15Option$LT$T$GT$7is_none17h9670b1d25feabbc1E
0000a030 g     F .text	00000014 _ZN4core3ptr9const_ptr43_$LT$impl$u20$$BP$const$u20$$u5b$T$u5d$$GT$6as_ptr17h6657ebba067a132bE
00008f1c g     F .text	000000a0 _ZN89_$LT$core..ops..range..Range$LT$T$GT$$u20$as$u20$core..iter..range..RangeIteratorImpl$GT$9spec_next17hff9691de6daba183E
0000ee24 g     F .text	00000050 _ZN108_$LT$core..ops..range..RangeTo$LT$usize$GT$$u20$as$u20$core..slice..index..SliceIndex$LT$$u5b$T$u5d$$GT$$GT$13get_unchecked17hc613160324722273E
00017000 g       *ABS*	00000000 _sidata
00009dd4 g     F .text	00000010 _ZN4core3ptr8non_null16NonNull$LT$T$GT$6as_ptr17he636665efe449a92E
0000fee8 g     F .text	00000030 _ZN4core5slice29_$LT$impl$u20$$u5b$T$u5d$$GT$4iter17hc958a26c159f8306E
00009b9c g     F .text	00000048 _ZN4core3mem7replace17hb3b3ec1c42c6a29fE
0000bb44 g     F .text	0000009c _ZN4core6option15Option$LT$T$GT$3map17h23edb8605e04aca5E
00009ae4 g     F .text	00000020 _ZN4core3mem4swap17h452343371b57d963E
0000ac4c g     F .text	00000028 _ZN4core3cmp3Ord3min17h4dfc62cab0572f9aE
0000f438 g     F .text	000000e0 _ZN4core5slice4iter13Iter$LT$T$GT$3new17hbb1f906be78fe598E
00009e74 g     F .text	00000038 _ZN4core3ptr9const_ptr33_$LT$impl$u20$$BP$const$u20$T$GT$7is_null17h8bf2c1c38017a24bE
0000cf88 g     F .text	00000054 _ZN4core3fmt10ArgumentV13new17hf34e7092f2803bf0E
000085d8 g     F .text	00000020 gpio_set_output
00008390 g       .text	00000000 PUT8
0000c924 g     F .text	00000488 _ZN4core3fmt3num12GenericRadix7fmt_int17h51ec0ad097deb597E
0000c270 g     F .text	0000005c _ZN4core6result19Result$LT$T$C$E$GT$2ok17h994d761dd1548f19E
0000e210 g     F .text	0000037c _ZN4core3fmt9Formatter3pad17hc7f31b5adf6d1223E
0000c49c g     F .text	00000488 _ZN4core3fmt3num12GenericRadix7fmt_int17h3d51f26de88d8bbeE
0000a208 g     F .text	00000048 _ZN4core3ptr20slice_from_raw_parts17h472b2ea1a48027e0E
000085f8 g     F .text	00000080 gpio_set_on
0000b7e8 g     F .text	0000008c _ZN4core4iter6traits8iterator8Iterator4fold17hb835c9ed5bafc7c4E
000083c0 g     F .text	000001f8 gpio_set_function
0000b2ac g     F .text	0000000c _ZN108_$LT$core..iter..adapters..filter..Filter$LT$I$C$P$GT$$u20$as$u20$core..iter..traits..iterator..Iterator$GT$5count8to_usize17h24a9eb2d93f67194E
0000f088 g     F .text	00000030 _ZN4core5slice4iter87_$LT$impl$u20$core..iter..traits..collect..IntoIterator$u20$for$u20$$RF$$u5b$T$u5d$$GT$9into_iter17hbb5dcc1a8a1ccab4E
00008398 g       .text	00000000 get32
00009c04 g     F .text	00000020 _ZN4core3ptr8metadata8metadata17h6e0e6941870f5ff5E
00012ed4 g     F .text	00000118 _ZN91_$LT$core..slice..iter..Iter$LT$T$GT$$u20$as$u20$core..iter..traits..iterator..Iterator$GT$4next17h09592dbd374f3d62E
00000000 g       *ABS*	00000000 __bss_size
0000d9dc g     F .text	00000750 _ZN4core3fmt9Formatter12pad_integral17h6338b9e6c1af941fE
00010014 g     F .text	000001a4 _ZN4core5slice29_$LT$impl$u20$$u5b$T$u5d$$GT$19as_chunks_unchecked17ha103be5ba45421e1E
0000b970 g     F .text	00000050 _ZN4core6option15Option$LT$T$GT$6unwrap17hd6e3fde6ca0fdbbcE
00013578  w    F .text	000005cc .hidden memcpy
000112c8 g     F .text	00000058 _ZN4core3str5count23char_count_general_case17he4b6dcb5826225bbE
0000fc14 g     F .text	00000044 _ZN4core5slice29_$LT$impl$u20$$u5b$T$u5d$$GT$13get_unchecked17h090228384a3ea5a0E
0000b020 g     F .text	00000030 _ZN4core4iter8adapters9enumerate18Enumerate$LT$I$GT$3new17h3c91e6ea800288abE
0000a160 g     F .text	00000038 _ZN4core3ptr7mut_ptr31_$LT$impl$u20$$BP$mut$u20$T$GT$7is_null17hdfc7f1fcc93be4b4E
0000e80c g     F .text	0000001c _ZN4core3fmt9Formatter15debug_upper_hex17hda32311426943d1cE
0000cdac g     F .text	0000005c _ZN4core3fmt9Formatter3new17h4709c3f5378b429bE
0000b874 g     F .text	00000030 _ZN4core4iter6traits8iterator8Iterator3rev17hf285382833a11cd2E
00017000 g       .ARM.exidx.text.__udivmodsi4	00000000 __rodata_end
0000a724 g     F .text	00000050 _ZN4core3ptr4read17h3473fc0b0283b685E
0000b3e0 g     F .text	00000024 _ZN4core4iter8adapters3rev12Rev$LT$T$GT$3new17hdff58e4042bd065fE
0001403c  w    F .text	00000030 .hidden __aeabi_memset
0000c390 g     F .text	00000074 _ZN79_$LT$core..result..Result$LT$T$C$E$GT$$u20$as$u20$core..ops..try_trait..Try$GT$6branch17hec82a34d0273634fE
0000ef6c g     F .text	0000007c _ZN110_$LT$core..ops..range..RangeFrom$LT$usize$GT$$u20$as$u20$core..slice..index..SliceIndex$LT$$u5b$T$u5d$$GT$$GT$13get_unchecked17h597bb0e645bb2269E
0000fdd8 g     F .text	00000014 _ZN4core5slice29_$LT$impl$u20$$u5b$T$u5d$$GT$6as_ptr17h6b8941cd08966201E
0000e7f0 g     F .text	0000001c _ZN4core3fmt9Formatter15debug_lower_hex17hc7b3d5e43f482770E
000096cc g     F .text	00000054 _ZN4core10intrinsics19copy_nonoverlapping17h0629c929e1c61b12E
0000a0b8 g     F .text	00000038 _ZN4core3ptr7mut_ptr31_$LT$impl$u20$$BP$mut$u20$T$GT$7is_null17h90840b4ddc66cc04E
00012478 g     F .text	0000003c _ZN4core3fmt3num55_$LT$impl$u20$core..fmt..LowerHex$u20$for$u20$usize$GT$3fmt17h82b1da44512da453E
00013f24  w    F .text	00000024 .hidden __aeabi_memcpy
00009d8c g     F .text	00000018 _ZN4core3ptr8non_null16NonNull$LT$T$GT$13new_unchecked17he5acd71300b46a98E
00009ff4 g     F .text	00000028 _ZN4core3ptr9const_ptr43_$LT$impl$u20$$BP$const$u20$$u5b$T$u5d$$GT$3len17habc3883e5b7bf186E
000099fc g     F .text	00000020 _ZN4core10intrinsics17const_eval_select17h41fe6b117cd2cd5aE
0000bc8c g     F .text	00000054 _ZN75_$LT$core..option..Option$LT$T$GT$$u20$as$u20$core..ops..try_trait..Try$GT$6branch17h0370284d3a85f031E
00009720 g     F .text	00000050 _ZN4core10intrinsics19copy_nonoverlapping17hb935fbdf8fc9b991E
0000f058 g     F .text	00000030 _ZN4core5slice4iter87_$LT$impl$u20$core..iter..traits..collect..IntoIterator$u20$for$u20$$RF$$u5b$T$u5d$$GT$9into_iter17h3cc1521738f9d061E
0000fe88 g     F .text	00000030 _ZN4core5slice29_$LT$impl$u20$$u5b$T$u5d$$GT$4iter17h15255d3309400647E
00008398 g       .text	00000000 GET32
0000b778 g     F .text	00000030 _ZN4core4iter6traits8iterator8Iterator6filter17hb66cd4fc014ab058E
0000bf90 g     F .text	00000044 _ZN4core9panicking9panic_fmt17h22cd6c9efa5fe474E
0000f698 g     F .text	00000024 _ZN4core5slice4iter15Chunks$LT$T$GT$3new17hf45b747296ab98caE
00011ba0 g     F .text	00000044 _ZN4core3str21_$LT$impl$u20$str$GT$3get17h1ffc82c8130656bdE
00008388 g       .text	00000000 PUT32
0000be58 g     F .text	00000020 _ZN4core5panic8location8Location6caller17h599fd882f0ca72d3E
00012d5c g     F .text	00000034 _ZN4core3fmt10ArgumentV111new_display17h62eda62979a94284E
0000ce38 g     F .text	00000054 _ZN4core3fmt10ArgumentV13new17h37f891f565a643d9E
0000fe28 g     F .text	00000030 _ZN4core5slice29_$LT$impl$u20$$u5b$T$u5d$$GT$4iter17h0c95fae1e4e64d73E
0000a06c g     F .text	00000014 _ZN4core3ptr9const_ptr43_$LT$impl$u20$$BP$const$u20$$u5b$T$u5d$$GT$6as_ptr17hf6615c2fc9303a1fE
0000ff18 g     F .text	00000030 _ZN4core5slice29_$LT$impl$u20$$u5b$T$u5d$$GT$8iter_mut17hc7e629f952ad5a61E
00009c44 g     F .text	00000034 _ZN4core3ptr8metadata14from_raw_parts17h2f6ebd559309ba48E
00009014 g     F .text	00000014 _ZN63_$LT$I$u20$as$u20$core..iter..traits..collect..IntoIterator$GT$9into_iter17hb497da6472b3af60E
000120d0 g     F .text	000001d4 _ZN73_$LT$core..fmt..num..LowerHex$u20$as$u20$core..fmt..num..GenericRadix$GT$5digit17hb059fe59c40e6289E
00009eac g     F .text	00000038 _ZN4core3ptr9const_ptr33_$LT$impl$u20$$BP$const$u20$T$GT$7is_null17ha263ef11114199f5E
000092b4 g     F .text	00000020 _ZN4core3num20_$LT$impl$u20$u8$GT$21is_utf8_char_boundary17h9c9d7c574f60edcfE
00009df4 g     F .text	00000010 _ZN4core3ptr8non_null16NonNull$LT$T$GT$6as_ptr17hf9d79c67c5818bafE
00013f48  w    F .text	000000f4 .hidden __aeabi_memcpy4
0000a7f0 g     F .text	00000028 _ZN4core3ptr5write17hcc50e8a29615fba3E
00017000 g       .ARM.exidx.text.__udivmodsi4	00000000 __bss_end
00009fa4 g     F .text	00000028 _ZN4core3ptr9const_ptr43_$LT$impl$u20$$BP$const$u20$$u5b$T$u5d$$GT$3len17h49bd0a8aa184075eE
0000a898 g     F .text	00000254 _ZN4core3ptr12align_offset17h7dced9cb56e93b5fE
0000ec34 g     F .text	000000d0 _ZN106_$LT$core..ops..range..Range$LT$usize$GT$$u20$as$u20$core..slice..index..SliceIndex$LT$$u5b$T$u5d$$GT$$GT$13get_unchecked17h5dac71fb7055b158E
00012e68 g     F .text	00000030 _ZN42_$LT$$RF$T$u20$as$u20$core..fmt..Debug$GT$3fmt17hcd3d43c7379a307dE
000083a8 g       .text	00000000 _dev_barrier
0000b428 g     F .text	000000a0 _ZN89_$LT$core..ops..range..Range$LT$T$GT$$u20$as$u20$core..iter..range..RangeIteratorImpl$GT$9spec_next17h3773e4f0e8313430E
00009dc4 g     F .text	00000010 _ZN4core3ptr8non_null16NonNull$LT$T$GT$6as_ptr17hd1053c8517587e17E
0000feb8 g     F .text	00000030 _ZN4core5slice29_$LT$impl$u20$$u5b$T$u5d$$GT$4iter17h5fc31ae58636ccf6E
0000b32c g     F .text	00000068 _ZN4core4iter8adapters3map8map_fold28_$u7b$$u7b$closure$u7d$$u7d$17h5d5a7cdf537d9ae3E
0000fcd8 g     F .text	00000044 _ZN4core5slice29_$LT$impl$u20$$u5b$T$u5d$$GT$13get_unchecked17h67e4e71b23d961ccE
00009770 g     F .text	000000d4 _ZN4core10intrinsics19copy_nonoverlapping13runtime_check17h04ce58f9c314a303E
000085b8 g     F .text	00000020 gpio_set_uart_func
00008e58 g     F .text	00000024 _ZN50_$LT$T$u20$as$u20$core..convert..Into$LT$U$GT$$GT$4into17ha4c31a43baa65c7bE
00008e7c g     F .text	000000a0 _ZN89_$LT$core..ops..range..Range$LT$T$GT$$u20$as$u20$core..iter..range..RangeIteratorImpl$GT$9spec_next17hda26481f890a5fd6E
00009d74 g     F .text	00000018 _ZN4core3ptr8non_null16NonNull$LT$T$GT$13new_unchecked17ha617d323a7fc3e1eE
00009e04 g     F .text	00000038 _ZN4core3ptr9const_ptr33_$LT$impl$u20$$BP$const$u20$T$GT$7is_null17h01921eafcee4a16bE
00012e2c g     F .text	0000003c _ZN42_$LT$$RF$T$u20$as$u20$core..fmt..Debug$GT$3fmt17ha166fa1a8c15bd6cE
0000fe14 g     F .text	00000014 _ZN4core5slice29_$LT$impl$u20$$u5b$T$u5d$$GT$10as_mut_ptr17h0d88c70547a3eecaE
0000c34c g     F .text	00000044 _ZN79_$LT$core..result..Result$LT$T$C$E$GT$$u20$as$u20$core..ops..try_trait..Try$GT$6branch17hd1d9da8509624ae6E
0000a01c g     F .text	00000014 _ZN4core3ptr9const_ptr43_$LT$impl$u20$$BP$const$u20$$u5b$T$u5d$$GT$6as_ptr17h4fe380040f4b7310E
00009ee4 g     F .text	00000038 _ZN4core3ptr9const_ptr33_$LT$impl$u20$$BP$const$u20$T$GT$7is_null17ha3dab16996a599e5E
0000c428 g     F .text	00000034 _ZN153_$LT$core..result..Result$LT$T$C$F$GT$$u20$as$u20$core..ops..try_trait..FromResidual$LT$core..result..Result$LT$core..convert..Infallible$C$E$GT$$GT$$GT$13from_residual17h54991ea20b922efbE
0000e828 g     F .text	00000040 _ZN42_$LT$str$u20$as$u20$core..fmt..Display$GT$3fmt17h85349bd7c20fb183E
0000f908 g     F .text	00000094 _ZN4core5slice3raw20debug_check_data_len17h7668b6c06a10d396E
00012000 g     F .text	0000002c _ZN56_$LT$usize$u20$as$u20$core..iter..traits..accum..Sum$GT$3sum17h175bd0e46bcbfc09E
0000b9c0 g     F .text	00000054 _ZN4core6option15Option$LT$T$GT$6unwrap17hdd28b3b95a4a07dcE
0000fdc4 g     F .text	00000014 _ZN4core5slice29_$LT$impl$u20$$u5b$T$u5d$$GT$6as_ptr17h5a33363efb66d240E
000086f8 g     F .text	00000058 blink
0000e7a0 g     F .text	00000018 _ZN4core3fmt9Formatter9sign_plus17h65de438d1db4ba18E
00008c1c g     F .text	000000bc reboot
00009db4 g     F .text	00000010 _ZN4core3ptr8non_null16NonNull$LT$T$GT$6as_ptr17h761e972d0d67cfa0E
0000b550 g     F .text	00000024 _ZN63_$LT$I$u20$as$u20$core..iter..traits..collect..IntoIterator$GT$9into_iter17hbb596eea85a0534cE
0000a1d0 g     F .text	00000038 _ZN4core3ptr7mut_ptr31_$LT$impl$u20$$BP$mut$u20$T$GT$13guaranteed_eq17h7715c21885c6e098E
000088e0 g     F .text	00000054 _ZN3nox5timer8delay_ms17hb640b6cf54805f53E
00009c24 g     F .text	00000020 _ZN4core3ptr8metadata8metadata17hb8875a23a1e846f0E
00009da4 g     F .text	00000010 _ZN4core3ptr8non_null16NonNull$LT$T$GT$6as_ptr17h3c04a1b813cf7ee8E
0000a128 g     F .text	00000038 _ZN4core3ptr7mut_ptr31_$LT$impl$u20$$BP$mut$u20$T$GT$7is_null17hdc47570171e130c6E
0001208c g     F .text	00000008 _ZN52_$LT$usize$u20$as$u20$core..fmt..num..DisplayInt$GT$4zero17h71a2b1b2c5062d51E
0000f82c g     F .text	00000048 _ZN4core5slice3raw14from_raw_parts17hc225916af7a02989E
0000c404 g     F .text	00000024 _ZN153_$LT$core..result..Result$LT$T$C$F$GT$$u20$as$u20$core..ops..try_trait..FromResidual$LT$core..result..Result$LT$core..convert..Infallible$C$E$GT$$GT$$GT$13from_residual17h411b96776abd096cE
00015bdc g     O .rodata	00000004 _ZN4core3fmt12USIZE_MARKER17hdf4e1facfcac07c2E
0000f7e4 g     F .text	00000048 _ZN4core5slice3raw14from_raw_parts17h2c7aceaf3e66256fE
00008934 g     F .text	00000188 uart_init
0000cf34 g     F .text	00000054 _ZN4core3fmt10ArgumentV13new17hbd460d47a42de93cE
0000a044 g     F .text	00000014 _ZN4core3ptr9const_ptr43_$LT$impl$u20$$BP$const$u20$$u5b$T$u5d$$GT$6as_ptr17h73d8ecc888b4838aE
00012078 g     F .text	00000014 _ZN49_$LT$u8$u20$as$u20$core..fmt..num..DisplayInt$GT$6to_u3217h4b043bbad09ceab7E
0000ad80 g     F .text	0000002c _ZN36_$LT$T$u20$as$u20$core..any..Any$GT$7type_id17hd04d48d4412c3c49E
00009f2c g     F .text	00000010 _ZN4core3ptr9const_ptr33_$LT$impl$u20$$BP$const$u20$T$GT$4cast17h1d12769d8025b878E
000120a8 g     F .text	00000014 _ZN52_$LT$usize$u20$as$u20$core..fmt..num..DisplayInt$GT$5to_u817hc1b2240e79eebfa1E
0000fb10 g     F .text	00000070 _ZN4core5slice3raw20debug_check_data_len8rt_check17hce02492c767833a3E
00008024 g     F .text	00000010 .hidden rust_begin_unwind
0000b140 g     F .text	000000f0 _ZN110_$LT$core..iter..adapters..enumerate..Enumerate$LT$I$GT$$u20$as$u20$core..iter..traits..iterator..Iterator$GT$4next17hddd185bba0331b1dE
00008000 g       .text	00000000 _start
00017000 g       .ARM.exidx.text.__udivmodsi4	00000000 __end
000083a4 g       .text	00000000 BRANCHTO
0000a840 g     F .text	00000058 _ZN4core3ptr13read_volatile17hc050ce1962d20f3dE
0000bfd4 g     F .text	00000050 _ZN4core9panicking13assert_failed17h5e83c24258d73ba7E
0000eb64 g     F .text	000000d0 _ZN106_$LT$core..ops..range..Range$LT$usize$GT$$u20$as$u20$core..slice..index..SliceIndex$LT$$u5b$T$u5d$$GT$$GT$13get_unchecked17h1d25b385670d593fE
00015000 g       .rodata	00000000 __rodata_start
0000b404 g     F .text	00000024 _ZN98_$LT$core..iter..adapters..rev..Rev$LT$I$GT$$u20$as$u20$core..iter..traits..iterator..Iterator$GT$4next17haa679e51fd5c7fb6E
00009e3c g     F .text	00000038 _ZN4core3ptr9const_ptr33_$LT$impl$u20$$BP$const$u20$T$GT$7is_null17h099dd4bded18252fE
0001344c g     F .text	00000120 _ZN109_$LT$core..slice..iter..IterMut$LT$T$GT$$u20$as$u20$core..iter..traits..double_ended..DoubleEndedIterator$GT$9next_back17h7431d0be338170dbE
000083ac g       .text	00000000 _dmb
000087f4 g     F .text	00000010 _ZN3nox3rpi3nop17h17a184a1429c0195E
00017000 g       .ARM.exidx.text.__udivmodsi4	00000000 __data_end
000083a0 g       .text	00000000 _nop
0000996c g     F .text	00000070 _ZN4core10intrinsics11write_bytes13runtime_check17h676bfc7336c4bd8cE
0000d170 g     F .text	00000048 _ZN59_$LT$core..fmt..Arguments$u20$as$u20$core..fmt..Display$GT$3fmt17hce94dc99427bbd49E
00008e08 g     F .text	00000028 _ZN4core3ptr5write17h2e094ae3f238e065E
0000cee0 g     F .text	00000054 _ZN4core3fmt10ArgumentV13new17ha876e96e5dc117f4E
00017000 g       .ARM.exidx.text.__udivmodsi4	00000000 bss
0000e868 g     F .text	00000044 _ZN4core5slice5index74_$LT$impl$u20$core..ops..index..Index$LT$I$GT$$u20$for$u20$$u5b$T$u5d$$GT$5index17h4b1d96a87e06c058E
0000d1b8 g     F .text	000004ec _ZN4core3fmt5write17h4ea4b5723b208be1E
0000f278 g     F .text	000000e0 _ZN4core5slice4iter13Iter$LT$T$GT$3new17haa4062221ae42c46E
00009a1c g     F .text	00000044 _ZN4core10intrinsics17const_eval_select17h68e7ef67a5102aecE
00008678 g     F .text	00000080 gpio_set_off
00009b54 g     F .text	00000048 _ZN4core3mem7replace17h597251809dff5828E
00009844 g     F .text	000000d4 _ZN4core10intrinsics19copy_nonoverlapping13runtime_check17h200abbf7d42fd906E
0000b4c8 g     F .text	0000002c _ZN4core4iter5range101_$LT$impl$u20$core..iter..traits..iterator..Iterator$u20$for$u20$core..ops..range..Range$LT$A$GT$$GT$4next17h679e961ab2e050c2E
0000a250 g     F .text	00000048 _ZN4core3ptr20slice_from_raw_parts17h739fb1d7ea7e2968E
000092d8 g     F .text	00000094 _ZN4core10intrinsics23is_aligned_and_not_null17h1cf92320775c1a7bE
00009cac g     F .text	00000034 _ZN4core3ptr8metadata14from_raw_parts17h5617291b34a7c9beE
0000a7c8 g     F .text	00000028 _ZN4core3ptr5write17h41ed2670b0606b5fE
0000f5b8 g     F .text	000000e0 _ZN4core5slice4iter16IterMut$LT$T$GT$3new17h185c59486b1ace69E
00012bec g     F .text	0000009c _ZN4core3fmt3num3imp51_$LT$impl$u20$core..fmt..Display$u20$for$u20$u8$GT$3fmt17h1daad30d62911f99E
0000fc58 g     F .text	00000044 _ZN4core5slice29_$LT$impl$u20$$u5b$T$u5d$$GT$13get_unchecked17h2b9f57321c9ab110E
00015000 g       .rodata	00000000 __text_end
0000fdb0 g     F .text	00000014 _ZN4core5slice29_$LT$impl$u20$$u5b$T$u5d$$GT$6as_ptr17h4c0ffc438ec46671E
0000b518 g     F .text	00000014 _ZN63_$LT$I$u20$as$u20$core..iter..traits..collect..IntoIterator$GT$9into_iter17ha824f1c680dbc5d5E
0000ac74 g     F .text	00000028 _ZN4core3cmp3min17h6d687506da1e36f6E
0000a328 g     F .text	0000008c _ZN4core3ptr19swap_nonoverlapping17hcb191387e6ec01aaE
00008750 g     F .text	000000a4 _ZN3nox4gpio7blink_n17hf03cd1aace8836ceE
0000b588 g     F .text	00000128 _ZN4core4iter6traits8iterator8Iterator10advance_by17hefe3ae2eb520656bE
0000883c g     F .text	000000a4 _ZN3nox5timer8delay_us17h916266004d856edeE
0000ba14 g     F .text	000000ac _ZN4core6option15Option$LT$T$GT$9unwrap_or17h015ab340b13816d4E
0000ff48 g     F .text	000000cc _ZN4core5slice29_$LT$impl$u20$$u5b$T$u5d$$GT$6chunks17h27d4d96d35cab058E
0000beb4 g     F .text	00000050 _ZN4core9panicking5panic17h70f755644c6683e5E
00017000 g       .ARM.exidx.text.__udivmodsi4	00000000 __bss_start
00013b44  w    F .text	000003c0 .hidden memset
0000c45c g     F .text	00000040 _ZN153_$LT$core..result..Result$LT$T$C$F$GT$$u20$as$u20$core..ops..try_trait..FromResidual$LT$core..result..Result$LT$core..convert..Infallible$C$E$GT$$GT$$GT$13from_residual17h921f7eb520c50607E
000099dc g     F .text	00000020 _ZN4core10intrinsics17const_eval_select17h015b543c3f81d79cE
0000a2e0 g     F .text	00000048 _ZN4core3ptr20slice_from_raw_parts17h9ed24265d259b02cE
0000fb80 g     F .text	0000001c _ZN4core5slice29_$LT$impl$u20$$u5b$T$u5d$$GT$8is_empty17h7a896da0465f87a7E
00009918 g     F .text	00000054 _ZN4core10intrinsics11write_bytes17h5e8a1fcfeef63718E
0000f358 g     F .text	000000e0 _ZN4core5slice4iter13Iter$LT$T$GT$3new17hb77f1747bbaef115E
0000fd9c g     F .text	00000014 _ZN4core5slice29_$LT$impl$u20$$u5b$T$u5d$$GT$6as_ptr17h4a00a55ffdc398ecE
00014614 g     F .text	00000028 .hidden __aeabi_uidiv
0000bce0 g     F .text	00000054 _ZN75_$LT$core..option..Option$LT$T$GT$$u20$as$u20$core..ops..try_trait..Try$GT$6branch17h172a407fe4f652a4E
0000fd60 g     F .text	0000003c _ZN4core5slice29_$LT$impl$u20$$u5b$T$u5d$$GT$13get_unchecked17hb558a5d276703f46E
000104c0 g     F .text	0000009c _ZN4core5slice29_$LT$impl$u20$$u5b$T$u5d$$GT$18split_at_unchecked17h7bc1833861925780E
0000ad64 g     F .text	00000010 _ZN50_$LT$T$u20$as$u20$core..convert..From$LT$T$GT$$GT$4from17h6610ac7b74997422E
0000a6d4 g     F .text	00000050 _ZN4core3ptr4read17h19ff7a152842ec41E
0000aff0 g     F .text	00000030 _ZN4core4iter8adapters9enumerate18Enumerate$LT$I$GT$3new17h30a86619e2211648E
0000fe00 g     F .text	00000014 _ZN4core5slice29_$LT$impl$u20$$u5b$T$u5d$$GT$6as_ptr17he76bcbec392c544eE
0000e7d4 g     F .text	0000001c _ZN4core3fmt9Formatter19sign_aware_zero_pad17h4ecf0a4eb12c0453E
00008814 g     F .text	00000028 _ZN3nox5timer14timer_get_usec17h38c1b05a309f0ae9E
00008d68 g     F .text	00000050 _ZN4core3ptr4read17h36e834a5b2ca12d7E
0000ea08 g     F .text	00000074 _ZN75_$LT$usize$u20$as$u20$core..slice..index..SliceIndex$LT$$u5b$T$u5d$$GT$$GT$13get_unchecked17h3d9905732fe31da8E
0000fe58 g     F .text	00000030 _ZN4core5slice29_$LT$impl$u20$$u5b$T$u5d$$GT$4iter17h0e9b2b815f0a80b4E
0000a298 g     F .text	00000048 _ZN4core3ptr20slice_from_raw_parts17h7eb9f3b40e6a6c9aE
00012c88 g     F .text	000000a0 _ZN4core3fmt3num3imp54_$LT$impl$u20$core..fmt..Display$u20$for$u20$usize$GT$3fmt17he15d94aa45306f36E
00009f5c g     F .text	00000010 _ZN4core3ptr9const_ptr33_$LT$impl$u20$$BP$const$u20$T$GT$4cast17hda8d7474972e149fE
0000a3b4 g     F .text	00000088 _ZN4core3ptr23swap_nonoverlapping_one17h067d40ae001e0b5fE
0000e938 g     F .text	00000068 _ZN75_$LT$usize$u20$as$u20$core..slice..index..SliceIndex$LT$$u5b$T$u5d$$GT$$GT$3get17h58700fb2e56bcbd1E
00009484 g     F .text	00000124 _ZN4core10intrinsics17is_nonoverlapping17hb33c400eb01e2e83E
0000b908 g     F .text	0000003c _ZN4core6option15Option$LT$T$GT$7is_some17h594b3a26af5e585aE
00011814 g     F .text	00000234 _ZN4core3str11validations15next_code_point17hca9f819efee38a31E
0000bac0 g     F .text	00000084 _ZN4core6option15Option$LT$T$GT$16unwrap_unchecked17h26d673577bdd7b53E
00012094 g     F .text	00000014 _ZN52_$LT$usize$u20$as$u20$core..fmt..num..DisplayInt$GT$7from_u817h534d523d1617fc6eE
00008db8 g     F .text	00000050 _ZN4core3ptr4read17h93906c1c0cfe7984E
00012d28 g     F .text	00000034 _ZN4core3fmt10ArgumentV111new_display17h5becac182c5242eeE
00012fec g     F .text	00000118 _ZN91_$LT$core..slice..iter..Iter$LT$T$GT$$u20$as$u20$core..iter..traits..iterator..Iterator$GT$4next17h385cdd3a3cf20cddE
0000936c g     F .text	00000094 _ZN4core10intrinsics23is_aligned_and_not_null17h6209c0cd9c9d888aE
00008388 g       .text	00000000 put32
0000a818 g     F .text	00000028 _ZN4core3ptr5write17hd1ac115afc87545cE
00009fcc g     F .text	00000028 _ZN4core3ptr9const_ptr43_$LT$impl$u20$$BP$const$u20$$u5b$T$u5d$$GT$3len17h8c5325d91ce47adcE
00008d20 g     F .text	00000048 _ZN4core3mem7replace17h3311c6cdb7da9ee6E
0000f6bc g     F .text	000000e0 _ZN93_$LT$core..slice..iter..Chunks$LT$T$GT$$u20$as$u20$core..iter..traits..iterator..Iterator$GT$4next17h8a48ec6c676315b6E
0000be34 g     F .text	00000024 _ZN84_$LT$core..option..Option$LT$T$GT$$u20$as$u20$core..ops..try_trait..FromResidual$GT$13from_residual17hf243c3f500f9a7ebE
0000b254 g     F .text	00000058 _ZN108_$LT$core..iter..adapters..filter..Filter$LT$I$C$P$GT$$u20$as$u20$core..iter..traits..iterator..Iterator$GT$5count17h4d419545bff67014E
00008fbc g     F .text	0000002c _ZN4core4iter5range101_$LT$impl$u20$core..iter..traits..iterator..Iterator$u20$for$u20$core..ops..range..Range$LT$A$GT$$GT$4next17h8b788d2f259818c9E
0000adfc g     F .text	00000030 _ZN4core5array98_$LT$impl$u20$core..iter..traits..collect..IntoIterator$u20$for$u20$$RF$$u5b$T$u3b$$u20$N$u5d$$GT$9into_iter17h3c7ec5274e531605E
000124b4 g     F .text	0000003c _ZN4core3fmt3num55_$LT$impl$u20$core..fmt..UpperHex$u20$for$u20$usize$GT$3fmt17h1d5a8f33dd1750ccE
0000f874 g     F .text	00000094 _ZN4core5slice3raw20debug_check_data_len17h760094dfb564f4e8E
00013104 g     F .text	00000118 _ZN91_$LT$core..slice..iter..Iter$LT$T$GT$$u20$as$u20$core..iter..traits..iterator..Iterator$GT$4next17h42b8e2d1e4f97919E
0000b2b8 g     F .text	00000044 _ZN108_$LT$core..iter..adapters..filter..Filter$LT$I$C$P$GT$$u20$as$u20$core..iter..traits..iterator..Iterator$GT$5count8to_usize28_$u7b$$u7b$closure$u7d$$u7d$17h0a32ef45571190ddE
0001321c g     F .text	00000118 _ZN91_$LT$core..slice..iter..Iter$LT$T$GT$$u20$as$u20$core..iter..traits..iterator..Iterator$GT$4next17h8b9620239a978897E
000103b4 g     F .text	00000070 _ZN4core5slice29_$LT$impl$u20$$u5b$T$u5d$$GT$8split_at17he87220cefa3c80b2E
00012df8 g     F .text	00000034 _ZN4core3fmt10ArgumentV19new_debug17h8fa7896cd18c0858E
0000fd1c g     F .text	00000044 _ZN4core5slice29_$LT$impl$u20$$u5b$T$u5d$$GT$13get_unchecked17h9d359a39158dbe67E
0000b52c g     F .text	00000024 _ZN63_$LT$I$u20$as$u20$core..iter..traits..collect..IntoIterator$GT$9into_iter17hb63fe79ffe64174cE
0000be10 g     F .text	00000024 _ZN84_$LT$core..option..Option$LT$T$GT$$u20$as$u20$core..ops..try_trait..FromResidual$GT$13from_residual17he5c01615d13b92aaE
00009f4c g     F .text	00000010 _ZN4core3ptr9const_ptr33_$LT$impl$u20$$BP$const$u20$T$GT$4cast17hcedaa77a0aa3b0b5E
00009d2c g     F .text	00000018 _ZN4core3ptr8non_null16NonNull$LT$T$GT$13new_unchecked17h311ebeac35d490ecE
0000a198 g     F .text	00000038 _ZN4core3ptr7mut_ptr31_$LT$impl$u20$$BP$mut$u20$T$GT$7is_null17he2aafd5fc4a2f886E
000083b8 g       .text	00000000 _dsb
00009be4 g     F .text	00000020 _ZN4core3ptr8metadata8metadata17h3c59b893e207686aE
00009400 g     F .text	00000084 _ZN4core10intrinsics23is_aligned_and_not_null17hcdf3ab3f95013724E
00013f04 g     F .text	00000020 .hidden __aeabi_uidivmod
0000fdec g     F .text	00000014 _ZN4core5slice29_$LT$impl$u20$$u5b$T$u5d$$GT$6as_ptr17h992ac04f5ee14697E
00009ce0 g     F .text	00000034 _ZN4core3ptr8metadata14from_raw_parts17haf24b97d7c3c8fe2E
00008e30 g     F .text	00000028 _ZN4core3ptr5write17hf477ee493ee8bacaE
00010424 g     F .text	0000009c _ZN4core5slice29_$LT$impl$u20$$u5b$T$u5d$$GT$18split_at_unchecked17h6060ba5c4226ec4fE
0000b8a4 g     F .text	00000028 _ZN4core4iter6traits8iterator8Iterator3sum17he3b263efd5072654E
0000f0b8 g     F .text	000000e0 _ZN4core5slice4iter13Iter$LT$T$GT$3new17h4427525444ee9a6aE
00008fe8 g     F .text	0000002c _ZN4core4iter5range101_$LT$impl$u20$core..iter..traits..iterator..Iterator$u20$for$u20$core..ops..range..Range$LT$A$GT$$GT$4next17hce08b9d3072f1ae7E
00009028 g     F .text	00000014 _ZN63_$LT$I$u20$as$u20$core..iter..traits..collect..IntoIterator$GT$9into_iter17hb6d6cd24592f553eE
000145ec g     F .text	00000028 .hidden _ZN17compiler_builtins3int4udiv9__udivsi317h54b52e769a6ea9c3E
0000fc9c g     F .text	0000003c _ZN4core5slice29_$LT$impl$u20$$u5b$T$u5d$$GT$13get_unchecked17h4ea222d5e49e8b86E
0000b7c8 g     F .text	00000020 _ZN4core4iter6traits8iterator8Iterator9enumerate17h8b3577cd1c43f4beE
00012e98 g     F .text	0000003c _ZN44_$LT$$RF$T$u20$as$u20$core..fmt..Display$GT$3fmt17h328b3198ae6deeeeE
0000adac g     F .text	00000050 _ZN4core3any6TypeId2of17ha643ce6bef11a2fdE
00009d44 g     F .text	00000018 _ZN4core3ptr8non_null16NonNull$LT$T$GT$13new_unchecked17h9e203cabf018418aE
0000f79c g     F .text	00000048 _ZN4core5slice3raw14from_raw_parts17h09828842bb9f998dE
0000ad74 g     F .text	0000000c _ZN50_$LT$T$u20$as$u20$core..convert..From$LT$T$GT$$GT$4from17hec8ef8de88f19ff9E
000146a0 g     F .text	0000002c .hidden __udivmodsi4
0000ee74 g     F .text	0000007c _ZN110_$LT$core..ops..range..RangeFrom$LT$usize$GT$$u20$as$u20$core..slice..index..SliceIndex$LT$$u5b$T$u5d$$GT$$GT$13get_unchecked17h43d3ddc491b0fe6aE
0000c2cc g     F .text	00000080 _ZN79_$LT$core..result..Result$LT$T$C$E$GT$$u20$as$u20$core..ops..try_trait..Try$GT$6branch17hcc6c949fd870dea7E
00008abc g     F .text	00000070 tx_space_available
0000b748 g     F .text	00000030 _ZN4core4iter6traits8iterator8Iterator3map17h6fb24ffd73d542ffE
0000fa30 g     F .text	00000070 _ZN4core5slice3raw20debug_check_data_len8rt_check17h45bfb212b6aede9cE
00010344 g     F .text	00000070 _ZN4core5slice29_$LT$impl$u20$$u5b$T$u5d$$GT$8split_at17h48379e8d17f6fd11E
0000bde8 g     F .text	00000028 _ZN84_$LT$core..option..Option$LT$T$GT$$u20$as$u20$core..ops..try_trait..FromResidual$GT$13from_residual17h66d8bfb897ed8223E
0000bd88 g     F .text	00000044 _ZN75_$LT$core..option..Option$LT$T$GT$$u20$as$u20$core..ops..try_trait..Try$GT$6branch17hef7b8f4425754491E
00012dc4 g     F .text	00000034 _ZN4core3fmt10ArgumentV111new_display17h70b2dfacf2c69a11E
0000b4f4 g     F .text	00000024 _ZN63_$LT$I$u20$as$u20$core..iter..traits..collect..IntoIterator$GT$9into_iter17h50345055115cfa37E
0000e7b8 g     F .text	0000001c _ZN4core3fmt9Formatter9alternate17h4c2d8fc96ccfb258E
00008804 g     F .text	00000010 _ZN3nox3rpi11dev_barrier17h975e80648f521b27E
00008b2c g     F .text	00000060 write_byte
000122a4 g     F .text	000001d4 _ZN73_$LT$core..fmt..num..UpperHex$u20$as$u20$core..fmt..num..GenericRadix$GT$5digit17heaf3f1595d42a858E
0000bf04 g     F .text	0000008c _ZN4core9panicking18panic_bounds_check17h0b43d6a3154b2a88E
0000efe8 g     F .text	00000070 _ZN110_$LT$core..ops..range..RangeFrom$LT$usize$GT$$u20$as$u20$core..slice..index..SliceIndex$LT$$u5b$T$u5d$$GT$$GT$5index17h7a8182a2d82a4709E
0001055c g     F .text	0000018c _ZN4core5slice29_$LT$impl$u20$$u5b$T$u5d$$GT$16align_to_offsets17h3fbc5b4b1927f7e4E
00009aa0 g     F .text	00000044 _ZN4core10intrinsics17const_eval_select17hb0822b569c9aeb4cE
00009de4 g     F .text	00000010 _ZN4core3ptr8non_null16NonNull$LT$T$GT$6as_ptr17he93dfc44e8018818E
00009c78 g     F .text	00000034 _ZN4core3ptr8metadata14from_raw_parts17h46f219276bb9ceb2E
0000b2fc g     F .text	00000024 _ZN4core4iter8adapters3map16Map$LT$I$C$F$GT$3new17h2edd8df264650194E
0000f198 g     F .text	000000e0 _ZN4core5slice4iter13Iter$LT$T$GT$3new17h67d8f23c224d959aE
00009a80 g     F .text	00000020 _ZN4core10intrinsics17const_eval_select17ha3ffe22ae3a1c2f8E
000095a8 g     F .text	00000124 _ZN4core10intrinsics17is_nonoverlapping17hbdfdb020c59df781E
0000b574 g     F .text	00000014 _ZN63_$LT$I$u20$as$u20$core..iter..traits..collect..IntoIterator$GT$9into_iter17hcd91a9ec3b2efec4E
00017000 g       .ARM.exidx.text.__udivmodsi4	00000000 __data_start
0000eaf0 g     F .text	00000074 _ZN75_$LT$usize$u20$as$u20$core..slice..index..SliceIndex$LT$$u5b$T$u5d$$GT$$GT$13get_unchecked17h74dc70a76a7a6cf2E
000101b8 g     F .text	0000018c _ZN4core5slice29_$LT$impl$u20$$u5b$T$u5d$$GT$9as_chunks17h950d980911bc47fbE
0000bd34 g     F .text	00000054 _ZN75_$LT$core..option..Option$LT$T$GT$$u20$as$u20$core..ops..try_trait..Try$GT$6branch17h1ec5a3c41af1443aE
00008b8c g     F .text	00000090 boot_put32
0000b8cc g     F .text	0000003c _ZN4core6option15Option$LT$T$GT$7is_some17h0f59d8a1a3661378E
0000a0f0 g     F .text	00000038 _ZN4core3ptr7mut_ptr31_$LT$impl$u20$$BP$mut$u20$T$GT$7is_null17hc32b3f5d78eeade4E
0000b6b0 g     F .text	00000098 _ZN4core4iter6traits8iterator8Iterator3nth17hdc2f8c5e43bea2abE
0000fb9c g     F .text	0000003c _ZN4core5slice29_$LT$impl$u20$$u5b$T$u5d$$GT$3get17h5c3858c84abeab5fE
0000faa0 g     F .text	00000070 _ZN4core5slice3raw20debug_check_data_len8rt_check17h87ae803e467dfe74E
0000c024 g     F .text	0000024c _ZN4core9panicking19assert_failed_inner17ha32612bf0b3c1066E
0001463c g     F .text	00000064 .hidden _ZN17compiler_builtins3int4udiv12__udivmodsi417h365cb561a3167aa7E
0000ac9c g     F .text	000000c8 _ZN4core3cmp6min_by17h96db7358e1a3abc5E
0000a058 g     F .text	00000014 _ZN4core3ptr9const_ptr43_$LT$impl$u20$$BP$const$u20$$u5b$T$u5d$$GT$6as_ptr17hac7f6cf6a075aa09E
00009b04 g     F .text	00000050 _ZN4core3mem7replace17h517b6fe9151f1a70E
00009f3c g     F .text	00000010 _ZN4core3ptr9const_ptr33_$LT$impl$u20$$BP$const$u20$T$GT$4cast17h606afd092da50d67E
0000b7a8 g     F .text	00000020 _ZN4core4iter6traits8iterator8Iterator9enumerate17h5694d946cc40cc59E
0000bdcc g     F .text	0000001c _ZN84_$LT$core..option..Option$LT$T$GT$$u20$as$u20$core..ops..try_trait..FromResidual$GT$13from_residual17h508954eeadc7c28aE
0000a774 g     F .text	00000054 _ZN4core3ptr4read17h82833b6a1cadad05E
00010c9c g     F .text	00000548 _ZN4core3str5count14do_count_chars17h7d881dc4ec4d70a8E
0000b394 g     F .text	0000004c _ZN102_$LT$core..iter..adapters..map..Map$LT$I$C$F$GT$$u20$as$u20$core..iter..traits..iterator..Iterator$GT$4fold17h1864fdb0ab936070E
00009d5c g     F .text	00000018 _ZN4core3ptr8non_null16NonNull$LT$T$GT$13new_unchecked17h9fac1d850925ce4dE
000120bc g     F .text	00000014 _ZN52_$LT$usize$u20$as$u20$core..fmt..num..DisplayInt$GT$6to_u3217hfd0c5150a38d32f4E
