
./target/arm-none-eabihf/debug/nox:	file format elf32-littlearm


Disassembly of section .text:

00008000 <_start>:
    8000: 13 10 a0 e3  	mov	r1, #19
    8004: 80 10 81 e3  	orr	r1, r1, #128
    8008: 01 f0 29 e1  	msr	CPSR_fc, r1
    800c: 00 00 a0 e3  	mov	r0, #0
    8010: 1c 0f 0f ee  	mcr	p15, #0, r0, c15, c12, #0
    8014: 95 2f 07 ee  	mcr	p15, #0, r2, c7, c5, #4
    8018: 02 d3 a0 e3  	mov	sp, #134217728
    801c: 00 b0 a0 e3  	mov	r11, #0
    8020: 49 00 00 eb  	bl	#292 <_rmain>

00008024 <rust_begin_unwind>:
    8024: 04 d0 4d e2  	sub	sp, sp, #4
    8028: 00 00 8d e5  	str	r0, [sp]
    802c: ff ff ff ea  	b	#-4 <rust_begin_unwind+0xc>
    8030: fe ff ff ea  	b	#-8 <rust_begin_unwind+0xc>

00008034 <_ZN3nox7println17hc70cef11652a5ddbE>:
    8034: 00 48 2d e9  	push	{r11, lr}
    8038: 60 d0 4d e2  	sub	sp, sp, #96
    803c: 14 10 8d e5  	str	r1, [sp, #20]
    8040: 18 00 8d e5  	str	r0, [sp, #24]
    8044: 38 00 8d e5  	str	r0, [sp, #56]
    8048: 3c 10 8d e5  	str	r1, [sp, #60]
    804c: c0 00 00 eb  	bl	#768 <_ZN4core3str21_$LT$impl$u20$str$GT$3len17h4b2f759e4820fcddE>
    8050: 00 10 a0 e1  	mov	r1, r0
    8054: 1c 10 8d e5  	str	r1, [sp, #28]
    8058: 40 00 8d e5  	str	r0, [sp, #64]
    805c: ff ff ff ea  	b	#-4 <_ZN3nox7println17hc70cef11652a5ddbE+0x2c>
    8060: 14 00 9d e5  	ldr	r0, [sp, #20]
    8064: 18 10 9d e5  	ldr	r1, [sp, #24]
    8068: 50 10 8d e5  	str	r1, [sp, #80]
    806c: 54 00 8d e5  	str	r0, [sp, #84]
    8070: 58 10 8d e5  	str	r1, [sp, #88]
    8074: 5c 00 8d e5  	str	r0, [sp, #92]
    8078: 58 10 9d e5  	ldr	r1, [sp, #88]
    807c: 0c 10 8d e5  	str	r1, [sp, #12]
    8080: 5c 00 9d e5  	ldr	r0, [sp, #92]
    8084: 10 00 8d e5  	str	r0, [sp, #16]
    8088: 44 10 8d e5  	str	r1, [sp, #68]
    808c: 48 00 8d e5  	str	r0, [sp, #72]
    8090: ff ff ff ea  	b	#-4 <_ZN3nox7println17hc70cef11652a5ddbE+0x60>
    8094: 1c 00 9d e5  	ldr	r0, [sp, #28]
    8098: 00 10 a0 e3  	mov	r1, #0
    809c: 20 10 8d e5  	str	r1, [sp, #32]
    80a0: 24 00 8d e5  	str	r0, [sp, #36]
    80a4: 20 00 9d e5  	ldr	r0, [sp, #32]
    80a8: 24 10 9d e5  	ldr	r1, [sp, #36]
    80ac: 19 0d 00 eb  	bl	#13412 <_ZN63_$LT$I$u20$as$u20$core..iter..traits..collect..IntoIterator$GT$9into_iter17ha824f1c680dbc5d5E>
    80b0: 04 00 8d e5  	str	r0, [sp, #4]
    80b4: 08 10 8d e5  	str	r1, [sp, #8]
    80b8: ff ff ff ea  	b	#-4 <_ZN3nox7println17hc70cef11652a5ddbE+0x88>
    80bc: 08 00 9d e5  	ldr	r0, [sp, #8]
    80c0: 04 10 9d e5  	ldr	r1, [sp, #4]
    80c4: 28 10 8d e5  	str	r1, [sp, #40]
    80c8: 2c 00 8d e5  	str	r0, [sp, #44]
    80cc: ff ff ff ea  	b	#-4 <_ZN3nox7println17hc70cef11652a5ddbE+0x9c>
    80d0: 28 00 8d e2  	add	r0, sp, #40
    80d4: fb 0c 00 eb  	bl	#13292 <_ZN4core4iter5range101_$LT$impl$u20$core..iter..traits..iterator..Iterator$u20$for$u20$core..ops..range..Range$LT$A$GT$$GT$4next17h679e961ab2e050c2E>
    80d8: 34 10 8d e5  	str	r1, [sp, #52]
    80dc: 30 00 8d e5  	str	r0, [sp, #48]
    80e0: ff ff ff ea  	b	#-4 <_ZN3nox7println17hc70cef11652a5ddbE+0xb0>
    80e4: 30 00 9d e5  	ldr	r0, [sp, #48]
    80e8: 00 00 50 e3  	cmp	r0, #0
    80ec: 02 00 00 0a  	beq	#8 <_ZN3nox7println17hc70cef11652a5ddbE+0xc8>
    80f0: ff ff ff ea  	b	#-4 <_ZN3nox7println17hc70cef11652a5ddbE+0xc0>
    80f4: 02 00 00 ea  	b	#8 <_ZN3nox7println17hc70cef11652a5ddbE+0xd0>
    80f8: fe de ff e7  	trap
    80fc: 60 d0 8d e2  	add	sp, sp, #96
    8100: 00 88 bd e8  	pop	{r11, pc}
    8104: 10 10 9d e5  	ldr	r1, [sp, #16]
    8108: 34 00 9d e5  	ldr	r0, [sp, #52]
    810c: 00 00 8d e5  	str	r0, [sp]
    8110: 4c 00 8d e5  	str	r0, [sp, #76]
    8114: 01 00 50 e1  	cmp	r0, r1
    8118: 05 00 00 2a  	bhs	#20 <_ZN3nox7println17hc70cef11652a5ddbE+0x100>
    811c: ff ff ff ea  	b	#-4 <_ZN3nox7println17hc70cef11652a5ddbE+0xec>
    8120: 0c 00 9d e5  	ldr	r0, [sp, #12]
    8124: 00 10 9d e5  	ldr	r1, [sp]
    8128: 01 00 d0 e7  	ldrb	r0, [r0, r1]
    812c: 96 02 00 eb  	bl	#2648 <boot_put32>
    8130: e6 ff ff ea  	b	#-104 <_ZN3nox7println17hc70cef11652a5ddbE+0x9c>
    8134: 10 10 9d e5  	ldr	r1, [sp, #16]
    8138: 00 00 9d e5  	ldr	r0, [sp]
    813c: 04 20 9f e5  	ldr	r2, [pc, #4]
    8140: 6f 0f 00 eb  	bl	#15804 <_ZN4core9panicking18panic_bounds_check17h0b43d6a3154b2a88E>
    8144: fe de ff e7  	trap

00008148 <$d.3>:
    8148:	0c 50 01 00	.word	0x0001500c

0000814c <_rmain>:
    814c: 48 d0 4d e2  	sub	sp, sp, #72
    8150: ab 01 00 eb  	bl	#1708 <_ZN3nox3rpi11dev_barrier17h975e80648f521b27E>
    8154: ff ff ff ea  	b	#-4 <_rmain+0xc>
    8158: c8 01 9f e5  	ldr	r0, [pc, #456]
    815c: 00 10 a0 e3  	mov	r1, #0
    8160: 88 00 00 eb  	bl	#544 <put32>
    8164: ff ff ff ea  	b	#-4 <_rmain+0x1c>
    8168: a5 01 00 eb  	bl	#1684 <_ZN3nox3rpi11dev_barrier17h975e80648f521b27E>
    816c: ff ff ff ea  	b	#-4 <_rmain+0x24>
    8170: b4 11 9f e5  	ldr	r1, [pc, #436]
    8174: b4 01 9f e5  	ldr	r0, [pc, #436]
    8178: 01 20 40 e0  	sub	r2, r0, r1
    817c: 14 20 8d e5  	str	r2, [sp, #20]
    8180: 01 00 50 e1  	cmp	r0, r1
    8184: 06 00 00 3a  	blo	#24 <_rmain+0x58>
    8188: ff ff ff ea  	b	#-4 <_rmain+0x40>
    818c: 14 20 9d e5  	ldr	r2, [sp, #20]
    8190: 38 20 8d e5  	str	r2, [sp, #56]
    8194: 90 01 9f e5  	ldr	r0, [pc, #400]
    8198: 00 10 a0 e3  	mov	r1, #0
    819c: dd 05 00 eb  	bl	#6004 <_ZN4core10intrinsics11write_bytes17h5e8a1fcfeef63718E>
    81a0: 04 00 00 ea  	b	#16 <_rmain+0x6c>
    81a4: 9c 01 9f e5  	ldr	r0, [pc, #412]
    81a8: a0 21 9f e5  	ldr	r2, [pc, #416]
    81ac: 21 10 a0 e3  	mov	r1, #33
    81b0: 3f 0f 00 eb  	bl	#15612 <_ZN4core9panicking5panic17h70f755644c6683e5E>
    81b4: fe de ff e7  	trap
    81b8: 74 11 9f e5  	ldr	r1, [pc, #372]
    81bc: 74 01 9f e5  	ldr	r0, [pc, #372]
    81c0: 01 20 40 e0  	sub	r2, r0, r1
    81c4: 10 20 8d e5  	str	r2, [sp, #16]
    81c8: 01 00 50 e1  	cmp	r0, r1
    81cc: 06 00 00 3a  	blo	#24 <_rmain+0xa0>
    81d0: ff ff ff ea  	b	#-4 <_rmain+0x88>
    81d4: 10 20 9d e5  	ldr	r2, [sp, #16]
    81d8: 3c 20 8d e5  	str	r2, [sp, #60]
    81dc: 58 01 9f e5  	ldr	r0, [pc, #344]
    81e0: 4c 11 9f e5  	ldr	r1, [pc, #332]
    81e4: 4d 05 00 eb  	bl	#5428 <_ZN4core10intrinsics19copy_nonoverlapping17hb935fbdf8fc9b991E>
    81e8: 04 00 00 ea  	b	#16 <_rmain+0xb4>
    81ec: 54 01 9f e5  	ldr	r0, [pc, #340]
    81f0: 54 21 9f e5  	ldr	r2, [pc, #340]
    81f4: 21 10 a0 e3  	mov	r1, #33
    81f8: 2d 0f 00 eb  	bl	#15540 <_ZN4core9panicking5panic17h70f755644c6683e5E>
    81fc: fe de ff e7  	trap
    8200: cb 01 00 eb  	bl	#1836 <uart_init>
    8204: ff ff ff ea  	b	#-4 <_rmain+0xbc>
    8208: 15 00 a0 e3  	mov	r0, #21
    820c: 43 00 cd e5  	strb	r0, [sp, #67]
    8210: f0 00 00 eb  	bl	#960 <gpio_set_output>
    8214: ff ff ff ea  	b	#-4 <_rmain+0xcc>
    8218: 15 00 a0 e3  	mov	r0, #21
    821c: 7d 1f a0 e3  	mov	r1, #500
    8220: 03 20 a0 e3  	mov	r2, #3
    8224: 49 01 00 eb  	bl	#1316 <_ZN3nox4gpio7blink_n17hf03cd1aace8836ceE>
    8228: ff ff ff ea  	b	#-4 <_rmain+0xe0>
    822c: 7d 0f a0 e3  	mov	r0, #500
    8230: aa 01 00 eb  	bl	#1704 <_ZN3nox5timer8delay_ms17hb640b6cf54805f53E>
    8234: ff ff ff ea  	b	#-4 <_rmain+0xec>
    8238: 68 00 a0 e3  	mov	r0, #104
    823c: 1a 00 cd e5  	strb	r0, [sp, #26]
    8240: 65 00 a0 e3  	mov	r0, #101
    8244: 1b 00 cd e5  	strb	r0, [sp, #27]
    8248: 6c 00 a0 e3  	mov	r0, #108
    824c: 1c 00 cd e5  	strb	r0, [sp, #28]
    8250: 1d 00 cd e5  	strb	r0, [sp, #29]
    8254: 6f 00 a0 e3  	mov	r0, #111
    8258: 1e 00 cd e5  	strb	r0, [sp, #30]
    825c: 10 00 a0 e3  	mov	r0, #16
    8260: 1f 00 cd e5  	strb	r0, [sp, #31]
    8264: 00 00 a0 e3  	mov	r0, #0
    8268: 20 00 8d e5  	str	r0, [sp, #32]
    826c: 06 00 a0 e3  	mov	r0, #6
    8270: 24 00 8d e5  	str	r0, [sp, #36]
    8274: 20 00 9d e5  	ldr	r0, [sp, #32]
    8278: 24 10 9d e5  	ldr	r1, [sp, #36]
    827c: a5 0c 00 eb  	bl	#12948 <_ZN63_$LT$I$u20$as$u20$core..iter..traits..collect..IntoIterator$GT$9into_iter17ha824f1c680dbc5d5E>
    8280: 08 00 8d e5  	str	r0, [sp, #8]
    8284: 0c 10 8d e5  	str	r1, [sp, #12]
    8288: ff ff ff ea  	b	#-4 <_rmain+0x140>
    828c: 0c 00 9d e5  	ldr	r0, [sp, #12]
    8290: 08 10 9d e5  	ldr	r1, [sp, #8]
    8294: 28 10 8d e5  	str	r1, [sp, #40]
    8298: 2c 00 8d e5  	str	r0, [sp, #44]
    829c: ff ff ff ea  	b	#-4 <_rmain+0x154>
    82a0: 28 00 8d e2  	add	r0, sp, #40
    82a4: 87 0c 00 eb  	bl	#12828 <_ZN4core4iter5range101_$LT$impl$u20$core..iter..traits..iterator..Iterator$u20$for$u20$core..ops..range..Range$LT$A$GT$$GT$4next17h679e961ab2e050c2E>
    82a8: 34 10 8d e5  	str	r1, [sp, #52]
    82ac: 30 00 8d e5  	str	r0, [sp, #48]
    82b0: ff ff ff ea  	b	#-4 <_rmain+0x168>
    82b4: 30 00 9d e5  	ldr	r0, [sp, #48]
    82b8: 00 00 50 e3  	cmp	r0, #0
    82bc: 02 00 00 0a  	beq	#8 <_rmain+0x180>
    82c0: ff ff ff ea  	b	#-4 <_rmain+0x178>
    82c4: 05 00 00 ea  	b	#20 <_rmain+0x194>
    82c8: fe de ff e7  	trap
    82cc: 70 10 9f e5  	ldr	r1, [pc, #112]
    82d0: 00 00 91 e5  	ldr	r0, [r1]
    82d4: 04 10 91 e5  	ldr	r1, [r1, #4]
    82d8: 55 ff ff eb  	bl	#-684 <_ZN3nox7println17hc70cef11652a5ddbE>
    82dc: 0f 00 00 ea  	b	#60 <_rmain+0x1d4>
    82e0: 34 00 9d e5  	ldr	r0, [sp, #52]
    82e4: 04 00 8d e5  	str	r0, [sp, #4]
    82e8: 44 00 8d e5  	str	r0, [sp, #68]
    82ec: 05 00 50 e3  	cmp	r0, #5
    82f0: 05 00 00 8a  	bhi	#20 <_rmain+0x1c0>
    82f4: ff ff ff ea  	b	#-4 <_rmain+0x1ac>
    82f8: 04 10 9d e5  	ldr	r1, [sp, #4]
    82fc: 1a 00 8d e2  	add	r0, sp, #26
    8300: 01 00 d0 e7  	ldrb	r0, [r0, r1]
    8304: 20 02 00 eb  	bl	#2176 <boot_put32>
    8308: e4 ff ff ea  	b	#-112 <_rmain+0x154>
    830c: 04 00 9d e5  	ldr	r0, [sp, #4]
    8310: 28 20 9f e5  	ldr	r2, [pc, #40]
    8314: 06 10 a0 e3  	mov	r1, #6
    8318: f9 0e 00 eb  	bl	#15332 <_ZN4core9panicking18panic_bounds_check17h0b43d6a3154b2a88E>
    831c: fe de ff e7  	trap
    8320: 3d 02 00 eb  	bl	#2292 <reboot>
    8324: fe de ff e7  	trap

00008328 <$d.5>:
    8328:	04 50 21 20	.word	0x20215004
    832c:	00 70 01 00	.word	0x00017000
    8330:	00 70 01 00	.word	0x00017000
    8334:	00 70 01 00	.word	0x00017000
    8338:	00 70 01 00	.word	0x00017000
    833c:	00 70 01 00	.word	0x00017000
    8340:	64 50 01 00	.word	0x00015064
    8344:	78 50 01 00	.word	0x00015078
    8348:	30 50 01 00	.word	0x00015030
    834c:	54 50 01 00	.word	0x00015054
    8350:	1c 50 01 00	.word	0x0001501c

00008354 <_ZN4core3str21_$LT$impl$u20$str$GT$3len17h4b2f759e4820fcddE>:
    8354: 1c d0 4d e2  	sub	sp, sp, #28
    8358: 04 00 8d e5  	str	r0, [sp, #4]
    835c: 08 10 8d e5  	str	r1, [sp, #8]
    8360: 0c 00 8d e5  	str	r0, [sp, #12]
    8364: 10 10 8d e5  	str	r1, [sp, #16]
    8368: 14 00 8d e5  	str	r0, [sp, #20]
    836c: 18 10 8d e5  	str	r1, [sp, #24]
    8370: 18 00 9d e5  	ldr	r0, [sp, #24]
    8374: 00 00 8d e5  	str	r0, [sp]
    8378: ff ff ff ea  	b	#-4 <_ZN4core3str21_$LT$impl$u20$str$GT$3len17h4b2f759e4820fcddE+0x28>
    837c: 00 00 9d e5  	ldr	r0, [sp]
    8380: 1c d0 8d e2  	add	sp, sp, #28
    8384: 1e ff 2f e1  	bx	lr

00008388 <put32>:
    8388: 00 10 80 e5  	str	r1, [r0]
    838c: 1e ff 2f e1  	bx	lr

00008390 <PUT8>:
    8390: 00 10 c0 e5  	strb	r1, [r0]
    8394: 1e ff 2f e1  	bx	lr

00008398 <get32>:
    8398: 00 00 90 e5  	ldr	r0, [r0]
    839c: 1e ff 2f e1  	bx	lr

000083a0 <_nop>:
    83a0: 1e ff 2f e1  	bx	lr

000083a4 <BRANCHTO>:
    83a4: 10 ff 2f e1  	bx	r0

000083a8 <_dev_barrier>:
    83a8: 02 00 00 ea  	b	#8 <_dsb>

000083ac <_dmb>:
    83ac: 00 00 a0 e3  	mov	r0, #0
    83b0: ba 0f 07 ee  	mcr	p15, #0, r0, c7, c10, #5
    83b4: 1e ff 2f e1  	bx	lr

000083b8 <_dsb>:
    83b8: 9a 0f 07 ee  	mcr	p15, #0, r0, c7, c10, #4
    83bc: 1e ff 2f e1  	bx	lr

000083c0 <gpio_set_function>:
    83c0: 00 48 2d e9  	push	{r11, lr}
    83c4: 38 d0 4d e2  	sub	sp, sp, #56
    83c8: 1c 10 8d e5  	str	r1, [sp, #28]
    83cc: 00 20 a0 e1  	mov	r2, r0
    83d0: 72 00 ef e6  	uxtb	r0, r2
    83d4: 02 30 a0 e1  	mov	r3, r2
    83d8: 20 30 8d e5  	str	r3, [sp, #32]
    83dc: 2b 20 cd e5  	strb	r2, [sp, #43]
    83e0: 2c 10 8d e5  	str	r1, [sp, #44]
    83e4: 1f 00 50 e3  	cmp	r0, #31
    83e8: 05 00 00 8a  	bhi	#20 <gpio_set_function+0x44>
    83ec: ff ff ff ea  	b	#-4 <gpio_set_function+0x30>
    83f0: 1c 10 9d e5  	ldr	r1, [sp, #28]
    83f4: 07 00 01 e2  	and	r0, r1, #7
    83f8: 01 00 50 e1  	cmp	r0, r1
    83fc: 02 00 00 0a  	beq	#8 <gpio_set_function+0x4c>
    8400: ff ff ff ea  	b	#-4 <gpio_set_function+0x44>
    8404: 38 d0 8d e2  	add	sp, sp, #56
    8408: 00 88 bd e8  	pop	{r11, pc}
    840c: 20 00 9d e5  	ldr	r0, [sp, #32]
    8410: 70 10 ef e6  	uxtb	r1, r0
    8414: cd 20 a0 e3  	mov	r2, #205
    8418: 81 02 61 e1  	smulbb	r1, r1, r2
    841c: a1 15 a0 e1  	lsr	r1, r1, #11
    8420: 01 11 81 e0  	add	r1, r1, r1, lsl #2
    8424: 81 00 40 e0  	sub	r0, r0, r1, lsl #1
    8428: 80 00 80 e0  	add	r0, r0, r0, lsl #1
    842c: 18 00 8d e5  	str	r0, [sp, #24]
    8430: 00 00 a0 e3  	mov	r0, #0
    8434: 00 00 50 e3  	cmp	r0, #0
    8438: 06 00 00 1a  	bne	#24 <gpio_set_function+0x98>
    843c: ff ff ff ea  	b	#-4 <gpio_set_function+0x80>
    8440: 18 00 9d e5  	ldr	r0, [sp, #24]
    8444: 83 02 00 eb  	bl	#2572 <_ZN50_$LT$T$u20$as$u20$core..convert..Into$LT$U$GT$$GT$4into17ha4c31a43baa65c7bE>
    8448: 00 10 a0 e1  	mov	r1, r0
    844c: 14 10 8d e5  	str	r1, [sp, #20]
    8450: 30 00 8d e5  	str	r0, [sp, #48]
    8454: 04 00 00 ea  	b	#16 <gpio_set_function+0xac>
    8458: 4c 01 9f e5  	ldr	r0, [pc, #332]
    845c: 50 21 9f e5  	ldr	r2, [pc, #336]
    8460: 21 10 a0 e3  	mov	r1, #33
    8464: 92 0e 00 eb  	bl	#14920 <_ZN4core9panicking5panic17h70f755644c6683e5E>
    8468: fe de ff e7  	trap
    846c: 20 00 9d e5  	ldr	r0, [sp, #32]
    8470: 70 00 ef e6  	uxtb	r0, r0
    8474: 18 11 9f e5  	ldr	r1, [pc, #280]
    8478: 90 01 81 e0  	umull	r0, r1, r0, r1
    847c: 7c 00 a0 e3  	mov	r0, #124
    8480: a1 00 00 e0  	and	r0, r0, r1, lsr #1
    8484: 10 00 8d e5  	str	r0, [sp, #16]
    8488: 00 00 a0 e3  	mov	r0, #0
    848c: 00 00 50 e3  	cmp	r0, #0
    8490: 08 00 00 1a  	bne	#32 <gpio_set_function+0xf8>
    8494: ff ff ff ea  	b	#-4 <gpio_set_function+0xd8>
    8498: 10 10 9d e5  	ldr	r1, [sp, #16]
    849c: 02 06 a0 e3  	mov	r0, #2097152
    84a0: 02 02 80 e3  	orr	r0, r0, #536870912
    84a4: 00 00 81 e0  	add	r0, r1, r0
    84a8: 0c 00 8d e5  	str	r0, [sp, #12]
    84ac: 01 00 50 e1  	cmp	r0, r1
    84b0: 0a 00 00 3a  	blo	#40 <gpio_set_function+0x120>
    84b4: 04 00 00 ea  	b	#16 <gpio_set_function+0x10c>
    84b8: ec 00 9f e5  	ldr	r0, [pc, #236]
    84bc: ec 20 9f e5  	ldr	r2, [pc, #236]
    84c0: 21 10 a0 e3  	mov	r1, #33
    84c4: 7a 0e 00 eb  	bl	#14824 <_ZN4core9panicking5panic17h70f755644c6683e5E>
    84c8: fe de ff e7  	trap
    84cc: 0c 00 9d e5  	ldr	r0, [sp, #12]
    84d0: 34 00 8d e5  	str	r0, [sp, #52]
    84d4: af ff ff eb  	bl	#-324 <get32>
    84d8: 24 00 8d e5  	str	r0, [sp, #36]
    84dc: 04 00 00 ea  	b	#16 <gpio_set_function+0x134>
    84e0: bc 00 9f e5  	ldr	r0, [pc, #188]
    84e4: bc 20 9f e5  	ldr	r2, [pc, #188]
    84e8: 1c 10 a0 e3  	mov	r1, #28
    84ec: 70 0e 00 eb  	bl	#14784 <_ZN4core9panicking5panic17h70f755644c6683e5E>
    84f0: fe de ff e7  	trap
    84f4: 14 00 9d e5  	ldr	r0, [sp, #20]
    84f8: 1f 20 00 e2  	and	r2, r0, #31
    84fc: 07 10 a0 e3  	mov	r1, #7
    8500: 11 12 a0 e1  	lsl	r1, r1, r2
    8504: 08 10 8d e5  	str	r1, [sp, #8]
    8508: 1f 10 e0 e3  	mvn	r1, #31
    850c: 01 00 10 e1  	tst	r0, r1
    8510: 0d 00 00 1a  	bne	#52 <gpio_set_function+0x18c>
    8514: ff ff ff ea  	b	#-4 <gpio_set_function+0x158>
    8518: 14 00 9d e5  	ldr	r0, [sp, #20]
    851c: 1c 10 9d e5  	ldr	r1, [sp, #28]
    8520: 08 30 9d e5  	ldr	r3, [sp, #8]
    8524: 24 20 9d e5  	ldr	r2, [sp, #36]
    8528: 03 20 c2 e1  	bic	r2, r2, r3
    852c: 24 20 8d e5  	str	r2, [sp, #36]
    8530: 1f 20 00 e2  	and	r2, r0, #31
    8534: 11 12 a0 e1  	lsl	r1, r1, r2
    8538: 04 10 8d e5  	str	r1, [sp, #4]
    853c: 1f 10 e0 e3  	mvn	r1, #31
    8540: 01 00 10 e1  	tst	r0, r1
    8544: 0d 00 00 1a  	bne	#52 <gpio_set_function+0x1c0>
    8548: 04 00 00 ea  	b	#16 <gpio_set_function+0x1a0>
    854c: 44 00 9f e5  	ldr	r0, [pc, #68]
    8550: 48 20 9f e5  	ldr	r2, [pc, #72]
    8554: 23 10 a0 e3  	mov	r1, #35
    8558: 55 0e 00 eb  	bl	#14676 <_ZN4core9panicking5panic17h70f755644c6683e5E>
    855c: fe de ff e7  	trap
    8560: 0c 00 9d e5  	ldr	r0, [sp, #12]
    8564: 04 20 9d e5  	ldr	r2, [sp, #4]
    8568: 24 10 9d e5  	ldr	r1, [sp, #36]
    856c: 02 10 81 e1  	orr	r1, r1, r2
    8570: 24 10 8d e5  	str	r1, [sp, #36]
    8574: 24 10 9d e5  	ldr	r1, [sp, #36]
    8578: 82 ff ff eb  	bl	#-504 <put32>
    857c: a0 ff ff ea  	b	#-384 <gpio_set_function+0x44>
    8580: 10 00 9f e5  	ldr	r0, [pc, #16]
    8584: 10 20 9f e5  	ldr	r2, [pc, #16]
    8588: 23 10 a0 e3  	mov	r1, #35
    858c: 48 0e 00 eb  	bl	#14624 <_ZN4core9panicking5panic17h70f755644c6683e5E>
    8590: fe de ff e7  	trap

00008594 <$d.2>:
    8594:	cd cc cc cc	.word	0xcccccccd
    8598:	20 51 01 00	.word	0x00015120
    859c:	44 51 01 00	.word	0x00015144
    85a0:	0c 51 01 00	.word	0x0001510c
    85a4:	f0 50 01 00	.word	0x000150f0
    85a8:	d4 50 01 00	.word	0x000150d4
    85ac:	a0 50 01 00	.word	0x000150a0
    85b0:	c4 50 01 00	.word	0x000150c4
    85b4:	8c 50 01 00	.word	0x0001508c

000085b8 <gpio_set_uart_func>:
    85b8: 00 48 2d e9  	push	{r11, lr}
    85bc: 08 d0 4d e2  	sub	sp, sp, #8
    85c0: 07 00 cd e5  	strb	r0, [sp, #7]
    85c4: 02 10 a0 e3  	mov	r1, #2
    85c8: 7c ff ff eb  	bl	#-528 <gpio_set_function>
    85cc: ff ff ff ea  	b	#-4 <gpio_set_uart_func+0x18>
    85d0: 08 d0 8d e2  	add	sp, sp, #8
    85d4: 00 88 bd e8  	pop	{r11, pc}

000085d8 <gpio_set_output>:
    85d8: 00 48 2d e9  	push	{r11, lr}
    85dc: 08 d0 4d e2  	sub	sp, sp, #8
    85e0: 07 00 cd e5  	strb	r0, [sp, #7]
    85e4: 01 10 a0 e3  	mov	r1, #1
    85e8: 74 ff ff eb  	bl	#-560 <gpio_set_function>
    85ec: ff ff ff ea  	b	#-4 <gpio_set_output+0x18>
    85f0: 08 d0 8d e2  	add	sp, sp, #8
    85f4: 00 88 bd e8  	pop	{r11, pc}

000085f8 <gpio_set_on>:
    85f8: 00 48 2d e9  	push	{r11, lr}
    85fc: 10 d0 4d e2  	sub	sp, sp, #16
    8600: 00 10 a0 e1  	mov	r1, r0
    8604: 71 00 ef e6  	uxtb	r0, r1
    8608: 01 20 a0 e1  	mov	r2, r1
    860c: 08 20 8d e5  	str	r2, [sp, #8]
    8610: 0f 10 cd e5  	strb	r1, [sp, #15]
    8614: 1f 00 50 e3  	cmp	r0, #31
    8618: 08 00 00 8a  	bhi	#32 <gpio_set_on+0x48>
    861c: ff ff ff ea  	b	#-4 <gpio_set_on+0x28>
    8620: 08 00 9d e5  	ldr	r0, [sp, #8]
    8624: 1f 20 00 e2  	and	r2, r0, #31
    8628: 01 10 a0 e3  	mov	r1, #1
    862c: 11 12 a0 e1  	lsl	r1, r1, r2
    8630: 04 10 8d e5  	str	r1, [sp, #4]
    8634: e0 00 10 e3  	tst	r0, #224
    8638: 06 00 00 1a  	bne	#24 <gpio_set_on+0x60>
    863c: 01 00 00 ea  	b	#4 <gpio_set_on+0x50>
    8640: 10 d0 8d e2  	add	sp, sp, #16
    8644: 00 88 bd e8  	pop	{r11, pc}
    8648: 04 10 9d e5  	ldr	r1, [sp, #4]
    864c: 18 00 9f e5  	ldr	r0, [pc, #24]
    8650: 4c ff ff eb  	bl	#-720 <put32>
    8654: f9 ff ff ea  	b	#-28 <gpio_set_on+0x48>
    8658: 10 00 9f e5  	ldr	r0, [pc, #16]
    865c: 10 20 9f e5  	ldr	r2, [pc, #16]
    8660: 23 10 a0 e3  	mov	r1, #35
    8664: 12 0e 00 eb  	bl	#14408 <_ZN4core9panicking5panic17h70f755644c6683e5E>
    8668: fe de ff e7  	trap

0000866c <$d.7>:
    866c:	1c 00 20 20	.word	0x2020001c
    8670:	20 51 01 00	.word	0x00015120
    8674:	54 51 01 00	.word	0x00015154

00008678 <gpio_set_off>:
    8678: 00 48 2d e9  	push	{r11, lr}
    867c: 10 d0 4d e2  	sub	sp, sp, #16
    8680: 00 10 a0 e1  	mov	r1, r0
    8684: 71 00 ef e6  	uxtb	r0, r1
    8688: 01 20 a0 e1  	mov	r2, r1
    868c: 08 20 8d e5  	str	r2, [sp, #8]
    8690: 0f 10 cd e5  	strb	r1, [sp, #15]
    8694: 1f 00 50 e3  	cmp	r0, #31
    8698: 08 00 00 8a  	bhi	#32 <gpio_set_off+0x48>
    869c: ff ff ff ea  	b	#-4 <gpio_set_off+0x28>
    86a0: 08 00 9d e5  	ldr	r0, [sp, #8]
    86a4: 1f 20 00 e2  	and	r2, r0, #31
    86a8: 01 10 a0 e3  	mov	r1, #1
    86ac: 11 12 a0 e1  	lsl	r1, r1, r2
    86b0: 04 10 8d e5  	str	r1, [sp, #4]
    86b4: e0 00 10 e3  	tst	r0, #224
    86b8: 06 00 00 1a  	bne	#24 <gpio_set_off+0x60>
    86bc: 01 00 00 ea  	b	#4 <gpio_set_off+0x50>
    86c0: 10 d0 8d e2  	add	sp, sp, #16
    86c4: 00 88 bd e8  	pop	{r11, pc}
    86c8: 04 10 9d e5  	ldr	r1, [sp, #4]
    86cc: 18 00 9f e5  	ldr	r0, [pc, #24]
    86d0: 2c ff ff eb  	bl	#-848 <put32>
    86d4: f9 ff ff ea  	b	#-28 <gpio_set_off+0x48>
    86d8: 10 00 9f e5  	ldr	r0, [pc, #16]
    86dc: 10 20 9f e5  	ldr	r2, [pc, #16]
    86e0: 23 10 a0 e3  	mov	r1, #35
    86e4: f2 0d 00 eb  	bl	#14280 <_ZN4core9panicking5panic17h70f755644c6683e5E>
    86e8: fe de ff e7  	trap

000086ec <$d.9>:
    86ec:	28 00 20 20	.word	0x20200028
    86f0:	20 51 01 00	.word	0x00015120
    86f4:	64 51 01 00	.word	0x00015164

000086f8 <blink>:
    86f8: 00 48 2d e9  	push	{r11, lr}
    86fc: 10 d0 4d e2  	sub	sp, sp, #16
    8700: 00 10 8d e5  	str	r1, [sp]
    8704: 00 20 a0 e1  	mov	r2, r0
    8708: 04 20 8d e5  	str	r2, [sp, #4]
    870c: 0b 00 cd e5  	strb	r0, [sp, #11]
    8710: 0c 10 8d e5  	str	r1, [sp, #12]
    8714: b7 ff ff eb  	bl	#-292 <gpio_set_on>
    8718: ff ff ff ea  	b	#-4 <blink+0x24>
    871c: 00 00 9d e5  	ldr	r0, [sp]
    8720: a0 00 a0 e1  	lsr	r0, r0, #1
    8724: 6d 00 00 eb  	bl	#436 <_ZN3nox5timer8delay_ms17hb640b6cf54805f53E>
    8728: ff ff ff ea  	b	#-4 <blink+0x34>
    872c: 04 00 9d e5  	ldr	r0, [sp, #4]
    8730: d0 ff ff eb  	bl	#-192 <gpio_set_off>
    8734: ff ff ff ea  	b	#-4 <blink+0x40>
    8738: 00 00 9d e5  	ldr	r0, [sp]
    873c: a0 00 a0 e1  	lsr	r0, r0, #1
    8740: 66 00 00 eb  	bl	#408 <_ZN3nox5timer8delay_ms17hb640b6cf54805f53E>
    8744: ff ff ff ea  	b	#-4 <blink+0x50>
    8748: 10 d0 8d e2  	add	sp, sp, #16
    874c: 00 88 bd e8  	pop	{r11, pc}

00008750 <_ZN3nox4gpio7blink_n17hf03cd1aace8836ceE>:
    8750: 00 48 2d e9  	push	{r11, lr}
    8754: 38 d0 4d e2  	sub	sp, sp, #56
    8758: 00 10 8d e5  	str	r1, [sp]
    875c: 00 30 a0 e1  	mov	r3, r0
    8760: 04 30 8d e5  	str	r3, [sp, #4]
    8764: 2b 00 cd e5  	strb	r0, [sp, #43]
    8768: 2c 10 8d e5  	str	r1, [sp, #44]
    876c: 30 20 8d e5  	str	r2, [sp, #48]
    8770: 00 00 a0 e3  	mov	r0, #0
    8774: 10 00 8d e5  	str	r0, [sp, #16]
    8778: 14 20 8d e5  	str	r2, [sp, #20]
    877c: 10 00 9d e5  	ldr	r0, [sp, #16]
    8780: 14 10 9d e5  	ldr	r1, [sp, #20]
    8784: 27 02 00 eb  	bl	#2204 <_ZN63_$LT$I$u20$as$u20$core..iter..traits..collect..IntoIterator$GT$9into_iter17hb6d6cd24592f553eE>
    8788: 08 00 8d e5  	str	r0, [sp, #8]
    878c: 0c 10 8d e5  	str	r1, [sp, #12]
    8790: ff ff ff ea  	b	#-4 <_ZN3nox4gpio7blink_n17hf03cd1aace8836ceE+0x44>
    8794: 0c 00 9d e5  	ldr	r0, [sp, #12]
    8798: 08 10 9d e5  	ldr	r1, [sp, #8]
    879c: 18 10 8d e5  	str	r1, [sp, #24]
    87a0: 1c 00 8d e5  	str	r0, [sp, #28]
    87a4: ff ff ff ea  	b	#-4 <_ZN3nox4gpio7blink_n17hf03cd1aace8836ceE+0x58>
    87a8: 18 00 8d e2  	add	r0, sp, #24
    87ac: 02 02 00 eb  	bl	#2056 <_ZN4core4iter5range101_$LT$impl$u20$core..iter..traits..iterator..Iterator$u20$for$u20$core..ops..range..Range$LT$A$GT$$GT$4next17h8b788d2f259818c9E>
    87b0: 24 10 8d e5  	str	r1, [sp, #36]
    87b4: 20 00 8d e5  	str	r0, [sp, #32]
    87b8: ff ff ff ea  	b	#-4 <_ZN3nox4gpio7blink_n17hf03cd1aace8836ceE+0x6c>
    87bc: 20 00 9d e5  	ldr	r0, [sp, #32]
    87c0: 00 00 50 e3  	cmp	r0, #0
    87c4: 02 00 00 0a  	beq	#8 <_ZN3nox4gpio7blink_n17hf03cd1aace8836ceE+0x84>
    87c8: ff ff ff ea  	b	#-4 <_ZN3nox4gpio7blink_n17hf03cd1aace8836ceE+0x7c>
    87cc: 02 00 00 ea  	b	#8 <_ZN3nox4gpio7blink_n17hf03cd1aace8836ceE+0x8c>
    87d0: fe de ff e7  	trap
    87d4: 38 d0 8d e2  	add	sp, sp, #56
    87d8: 00 88 bd e8  	pop	{r11, pc}
    87dc: 00 10 9d e5  	ldr	r1, [sp]
    87e0: 04 00 9d e5  	ldr	r0, [sp, #4]
    87e4: 24 20 9d e5  	ldr	r2, [sp, #36]
    87e8: 34 20 8d e5  	str	r2, [sp, #52]
    87ec: c1 ff ff eb  	bl	#-252 <blink>
    87f0: ec ff ff ea  	b	#-80 <_ZN3nox4gpio7blink_n17hf03cd1aace8836ceE+0x58>

000087f4 <_ZN3nox3rpi3nop17h17a184a1429c0195E>:
    87f4: 00 48 2d e9  	push	{r11, lr}
    87f8: e8 fe ff eb  	bl	#-1120 <_nop>
    87fc: ff ff ff ea  	b	#-4 <_ZN3nox3rpi3nop17h17a184a1429c0195E+0xc>
    8800: 00 88 bd e8  	pop	{r11, pc}

00008804 <_ZN3nox3rpi11dev_barrier17h975e80648f521b27E>:
    8804: 00 48 2d e9  	push	{r11, lr}
    8808: e6 fe ff eb  	bl	#-1128 <_dev_barrier>
    880c: ff ff ff ea  	b	#-4 <_ZN3nox3rpi11dev_barrier17h975e80648f521b27E+0xc>
    8810: 00 88 bd e8  	pop	{r11, pc}

00008814 <_ZN3nox5timer14timer_get_usec17h38c1b05a309f0ae9E>:
    8814: 00 48 2d e9  	push	{r11, lr}
    8818: 08 d0 4d e2  	sub	sp, sp, #8
    881c: 14 00 9f e5  	ldr	r0, [pc, #20]
    8820: dc fe ff eb  	bl	#-1168 <get32>
    8824: 04 00 8d e5  	str	r0, [sp, #4]
    8828: ff ff ff ea  	b	#-4 <_ZN3nox5timer14timer_get_usec17h38c1b05a309f0ae9E+0x18>
    882c: 04 00 9d e5  	ldr	r0, [sp, #4]
    8830: 08 d0 8d e2  	add	sp, sp, #8
    8834: 00 88 bd e8  	pop	{r11, pc}

00008838 <$d.23>:
    8838:	04 30 00 20	.word	0x20003004

0000883c <_ZN3nox5timer8delay_us17h916266004d856edeE>:
    883c: 00 48 2d e9  	push	{r11, lr}
    8840: 20 d0 4d e2  	sub	sp, sp, #32
    8844: 0c 00 8d e5  	str	r0, [sp, #12]
    8848: 18 00 8d e5  	str	r0, [sp, #24]
    884c: f0 ff ff eb  	bl	#-64 <_ZN3nox5timer14timer_get_usec17h38c1b05a309f0ae9E>
    8850: 00 10 a0 e1  	mov	r1, r0
    8854: 10 10 8d e5  	str	r1, [sp, #16]
    8858: 1c 00 8d e5  	str	r0, [sp, #28]
    885c: ff ff ff ea  	b	#-4 <_ZN3nox5timer8delay_us17h916266004d856edeE+0x24>
    8860: eb ff ff eb  	bl	#-84 <_ZN3nox5timer14timer_get_usec17h38c1b05a309f0ae9E>
    8864: 14 00 8d e5  	str	r0, [sp, #20]
    8868: ff ff ff ea  	b	#-4 <_ZN3nox5timer8delay_us17h916266004d856edeE+0x30>
    886c: 10 10 9d e5  	ldr	r1, [sp, #16]
    8870: 14 00 9d e5  	ldr	r0, [sp, #20]
    8874: 01 20 40 e0  	sub	r2, r0, r1
    8878: 08 20 8d e5  	str	r2, [sp, #8]
    887c: 01 00 50 e1  	cmp	r0, r1
    8880: 05 00 00 3a  	blo	#20 <_ZN3nox5timer8delay_us17h916266004d856edeE+0x60>
    8884: ff ff ff ea  	b	#-4 <_ZN3nox5timer8delay_us17h916266004d856edeE+0x4c>
    8888: 08 00 9d e5  	ldr	r0, [sp, #8]
    888c: 0c 10 9d e5  	ldr	r1, [sp, #12]
    8890: 01 00 50 e1  	cmp	r0, r1
    8894: 07 00 00 3a  	blo	#28 <_ZN3nox5timer8delay_us17h916266004d856edeE+0x7c>
    8898: 04 00 00 ea  	b	#16 <_ZN3nox5timer8delay_us17h916266004d856edeE+0x74>
    889c: 34 00 9f e5  	ldr	r0, [pc, #52]
    88a0: 34 20 9f e5  	ldr	r2, [pc, #52]
    88a4: 21 10 a0 e3  	mov	r1, #33
    88a8: 81 0d 00 eb  	bl	#13828 <_ZN4core9panicking5panic17h70f755644c6683e5E>
    88ac: fe de ff e7  	trap
    88b0: 20 d0 8d e2  	add	sp, sp, #32
    88b4: 00 88 bd e8  	pop	{r11, pc}
    88b8: cd ff ff eb  	bl	#-204 <_ZN3nox3rpi3nop17h17a184a1429c0195E>
    88bc: ff ff ff ea  	b	#-4 <_ZN3nox5timer8delay_us17h916266004d856edeE+0x84>
    88c0: d3 ff ff eb  	bl	#-180 <_ZN3nox5timer14timer_get_usec17h38c1b05a309f0ae9E>
    88c4: 04 00 8d e5  	str	r0, [sp, #4]
    88c8: ff ff ff ea  	b	#-4 <_ZN3nox5timer8delay_us17h916266004d856edeE+0x90>
    88cc: 04 00 9d e5  	ldr	r0, [sp, #4]
    88d0: 14 00 8d e5  	str	r0, [sp, #20]
    88d4: e4 ff ff ea  	b	#-112 <_ZN3nox5timer8delay_us17h916266004d856edeE+0x30>

000088d8 <$d.25>:
    88d8:	80 51 01 00	.word	0x00015180
    88dc:	b0 51 01 00	.word	0x000151b0

000088e0 <_ZN3nox5timer8delay_ms17hb640b6cf54805f53E>:
    88e0: 00 48 2d e9  	push	{r11, lr}
    88e4: 08 d0 4d e2  	sub	sp, sp, #8
    88e8: 04 00 8d e5  	str	r0, [sp, #4]
    88ec: fa 1f a0 e3  	mov	r1, #1000
    88f0: 90 11 80 e0  	umull	r1, r0, r0, r1
    88f4: 00 10 8d e5  	str	r1, [sp]
    88f8: 00 00 50 e3  	cmp	r0, #0
    88fc: 03 00 00 1a  	bne	#12 <_ZN3nox5timer8delay_ms17hb640b6cf54805f53E+0x30>
    8900: ff ff ff ea  	b	#-4 <_ZN3nox5timer8delay_ms17hb640b6cf54805f53E+0x24>
    8904: 00 00 9d e5  	ldr	r0, [sp]
    8908: cb ff ff eb  	bl	#-212 <_ZN3nox5timer8delay_us17h916266004d856edeE>
    890c: 04 00 00 ea  	b	#16 <_ZN3nox5timer8delay_ms17hb640b6cf54805f53E+0x44>
    8910: 14 00 9f e5  	ldr	r0, [pc, #20]
    8914: 14 20 9f e5  	ldr	r2, [pc, #20]
    8918: 21 10 a0 e3  	mov	r1, #33
    891c: 64 0d 00 eb  	bl	#13712 <_ZN4core9panicking5panic17h70f755644c6683e5E>
    8920: fe de ff e7  	trap
    8924: 08 d0 8d e2  	add	sp, sp, #8
    8928: 00 88 bd e8  	pop	{r11, pc}

0000892c <$d.27>:
    892c:	a0 50 01 00	.word	0x000150a0
    8930:	c0 51 01 00	.word	0x000151c0

00008934 <uart_init>:
    8934: 00 48 2d e9  	push	{r11, lr}
    8938: 10 d0 4d e2  	sub	sp, sp, #16
    893c: b0 ff ff eb  	bl	#-320 <_ZN3nox3rpi11dev_barrier17h975e80648f521b27E>
    8940: ff ff ff ea  	b	#-4 <uart_init+0x10>
    8944: 0e 00 a0 e3  	mov	r0, #14
    8948: 1a ff ff eb  	bl	#-920 <gpio_set_uart_func>
    894c: ff ff ff ea  	b	#-4 <uart_init+0x1c>
    8950: 0f 00 a0 e3  	mov	r0, #15
    8954: 17 ff ff eb  	bl	#-932 <gpio_set_uart_func>
    8958: ff ff ff ea  	b	#-4 <uart_init+0x28>
    895c: a8 ff ff eb  	bl	#-352 <_ZN3nox3rpi11dev_barrier17h975e80648f521b27E>
    8960: ff ff ff ea  	b	#-4 <uart_init+0x30>
    8964: 2c 01 9f e5  	ldr	r0, [pc, #300]
    8968: 8a fe ff eb  	bl	#-1496 <get32>
    896c: 04 00 8d e5  	str	r0, [sp, #4]
    8970: ff ff ff ea  	b	#-4 <uart_init+0x40>
    8974: 04 00 9d e5  	ldr	r0, [sp, #4]
    8978: 01 00 80 e3  	orr	r0, r0, #1
    897c: 04 00 8d e5  	str	r0, [sp, #4]
    8980: 04 10 9d e5  	ldr	r1, [sp, #4]
    8984: 0c 01 9f e5  	ldr	r0, [pc, #268]
    8988: 7e fe ff eb  	bl	#-1544 <put32>
    898c: ff ff ff ea  	b	#-4 <uart_init+0x5c>
    8990: 9b ff ff eb  	bl	#-404 <_ZN3nox3rpi11dev_barrier17h975e80648f521b27E>
    8994: ff ff ff ea  	b	#-4 <uart_init+0x64>
    8998: fc 00 9f e5  	ldr	r0, [pc, #252]
    899c: 7d fe ff eb  	bl	#-1548 <get32>
    89a0: 08 00 8d e5  	str	r0, [sp, #8]
    89a4: ff ff ff ea  	b	#-4 <uart_init+0x74>
    89a8: 00 00 a0 e3  	mov	r0, #0
    89ac: 08 00 8d e5  	str	r0, [sp, #8]
    89b0: 08 10 9d e5  	ldr	r1, [sp, #8]
    89b4: e0 00 9f e5  	ldr	r0, [pc, #224]
    89b8: 72 fe ff eb  	bl	#-1592 <put32>
    89bc: ff ff ff ea  	b	#-4 <uart_init+0x8c>
    89c0: d8 00 9f e5  	ldr	r0, [pc, #216]
    89c4: 06 10 a0 e3  	mov	r1, #6
    89c8: 6e fe ff eb  	bl	#-1608 <put32>
    89cc: ff ff ff ea  	b	#-4 <uart_init+0x9c>
    89d0: cc 00 9f e5  	ldr	r0, [pc, #204]
    89d4: 00 10 a0 e3  	mov	r1, #0
    89d8: 6a fe ff eb  	bl	#-1624 <put32>
    89dc: ff ff ff ea  	b	#-4 <uart_init+0xac>
    89e0: c0 00 9f e5  	ldr	r0, [pc, #192]
    89e4: 03 10 a0 e3  	mov	r1, #3
    89e8: 66 fe ff eb  	bl	#-1640 <put32>
    89ec: ff ff ff ea  	b	#-4 <uart_init+0xbc>
    89f0: b4 00 9f e5  	ldr	r0, [pc, #180]
    89f4: 00 10 a0 e3  	mov	r1, #0
    89f8: 62 fe ff eb  	bl	#-1656 <put32>
    89fc: ff ff ff ea  	b	#-4 <uart_init+0xcc>
    8a00: a8 00 9f e5  	ldr	r0, [pc, #168]
    8a04: 0e 10 a0 e3  	mov	r1, #14
    8a08: 01 1c 81 e3  	orr	r1, r1, #256
    8a0c: 5d fe ff eb  	bl	#-1676 <put32>
    8a10: ff ff ff ea  	b	#-4 <uart_init+0xe0>
    8a14: 98 00 9f e5  	ldr	r0, [pc, #152]
    8a18: 00 10 a0 e3  	mov	r1, #0
    8a1c: 59 fe ff eb  	bl	#-1692 <put32>
    8a20: ff ff ff ea  	b	#-4 <uart_init+0xf0>
    8a24: c8 00 a0 e3  	mov	r0, #200
    8a28: ac ff ff eb  	bl	#-336 <_ZN3nox5timer8delay_ms17hb640b6cf54805f53E>
    8a2c: ff ff ff ea  	b	#-4 <uart_init+0xfc>
    8a30: 80 00 9f e5  	ldr	r0, [pc, #128]
    8a34: 03 19 a0 e3  	mov	r1, #49152
    8a38: 52 fe ff eb  	bl	#-1720 <put32>
    8a3c: ff ff ff ea  	b	#-4 <uart_init+0x10c>
    8a40: c8 00 a0 e3  	mov	r0, #200
    8a44: a5 ff ff eb  	bl	#-364 <_ZN3nox5timer8delay_ms17hb640b6cf54805f53E>
    8a48: ff ff ff ea  	b	#-4 <uart_init+0x118>
    8a4c: 64 00 9f e5  	ldr	r0, [pc, #100]
    8a50: 00 10 a0 e3  	mov	r1, #0
    8a54: 4b fe ff eb  	bl	#-1748 <put32>
    8a58: ff ff ff ea  	b	#-4 <uart_init+0x128>
    8a5c: 38 00 9f e5  	ldr	r0, [pc, #56]
    8a60: 4c fe ff eb  	bl	#-1744 <get32>
    8a64: 0c 00 8d e5  	str	r0, [sp, #12]
    8a68: ff ff ff ea  	b	#-4 <uart_init+0x138>
    8a6c: 0c 00 9d e5  	ldr	r0, [sp, #12]
    8a70: 03 00 80 e3  	orr	r0, r0, #3
    8a74: 0c 00 8d e5  	str	r0, [sp, #12]
    8a78: 0c 10 9d e5  	ldr	r1, [sp, #12]
    8a7c: 18 00 9f e5  	ldr	r0, [pc, #24]
    8a80: 40 fe ff eb  	bl	#-1792 <put32>
    8a84: ff ff ff ea  	b	#-4 <uart_init+0x154>
    8a88: 5d ff ff eb  	bl	#-652 <_ZN3nox3rpi11dev_barrier17h975e80648f521b27E>
    8a8c: ff ff ff ea  	b	#-4 <uart_init+0x15c>
    8a90: 10 d0 8d e2  	add	sp, sp, #16
    8a94: 00 88 bd e8  	pop	{r11, pc}

00008a98 <$d.29>:
    8a98:	04 50 21 20	.word	0x20215004
    8a9c:	60 50 21 20	.word	0x20215060
    8aa0:	48 50 21 20	.word	0x20215048
    8aa4:	44 50 21 20	.word	0x20215044
    8aa8:	4c 50 21 20	.word	0x2021504c
    8aac:	50 50 21 20	.word	0x20215050
    8ab0:	68 50 21 20	.word	0x20215068
    8ab4:	94 00 20 20	.word	0x20200094
    8ab8:	98 00 20 20	.word	0x20200098

00008abc <tx_space_available>:
    8abc: 00 48 2d e9  	push	{r11, lr}
    8ac0: 10 d0 4d e2  	sub	sp, sp, #16
    8ac4: 4e ff ff eb  	bl	#-712 <_ZN3nox3rpi11dev_barrier17h975e80648f521b27E>
    8ac8: ff ff ff ea  	b	#-4 <tx_space_available+0x10>
    8acc: 54 00 9f e5  	ldr	r0, [pc, #84]
    8ad0: 30 fe ff eb  	bl	#-1856 <get32>
    8ad4: 04 00 8d e5  	str	r0, [sp, #4]
    8ad8: ff ff ff ea  	b	#-4 <tx_space_available+0x20>
    8adc: 04 00 9d e5  	ldr	r0, [sp, #4]
    8ae0: 02 00 00 e2  	and	r0, r0, #2
    8ae4: 00 00 8d e5  	str	r0, [sp]
    8ae8: 0c 00 8d e5  	str	r0, [sp, #12]
    8aec: 44 ff ff eb  	bl	#-752 <_ZN3nox3rpi11dev_barrier17h975e80648f521b27E>
    8af0: ff ff ff ea  	b	#-4 <tx_space_available+0x38>
    8af4: 00 00 9d e5  	ldr	r0, [sp]
    8af8: 00 00 50 e3  	cmp	r0, #0
    8afc: 03 00 00 1a  	bne	#12 <tx_space_available+0x54>
    8b00: ff ff ff ea  	b	#-4 <tx_space_available+0x48>
    8b04: 00 00 a0 e3  	mov	r0, #0
    8b08: 0b 00 cd e5  	strb	r0, [sp, #11]
    8b0c: 02 00 00 ea  	b	#8 <tx_space_available+0x60>
    8b10: 01 00 a0 e3  	mov	r0, #1
    8b14: 0b 00 cd e5  	strb	r0, [sp, #11]
    8b18: ff ff ff ea  	b	#-4 <tx_space_available+0x60>
    8b1c: 0b 00 dd e5  	ldrb	r0, [sp, #11]
    8b20: 10 d0 8d e2  	add	sp, sp, #16
    8b24: 00 88 bd e8  	pop	{r11, pc}

00008b28 <$d.35>:
    8b28:	64 50 21 20	.word	0x20215064

00008b2c <write_byte>:
    8b2c: 00 48 2d e9  	push	{r11, lr}
    8b30: 10 d0 4d e2  	sub	sp, sp, #16
    8b34: 08 00 8d e5  	str	r0, [sp, #8]
    8b38: 0c 00 8d e5  	str	r0, [sp, #12]
    8b3c: 30 ff ff eb  	bl	#-832 <_ZN3nox3rpi11dev_barrier17h975e80648f521b27E>
    8b40: ff ff ff ea  	b	#-4 <write_byte+0x18>
    8b44: dc ff ff eb  	bl	#-144 <tx_space_available>
    8b48: 04 00 8d e5  	str	r0, [sp, #4]
    8b4c: ff ff ff ea  	b	#-4 <write_byte+0x24>
    8b50: 04 00 9d e5  	ldr	r0, [sp, #4]
    8b54: 01 00 10 e3  	tst	r0, #1
    8b58: 04 00 00 0a  	beq	#16 <write_byte+0x44>
    8b5c: ff ff ff ea  	b	#-4 <write_byte+0x34>
    8b60: 08 10 9d e5  	ldr	r1, [sp, #8]
    8b64: 1c 00 9f e5  	ldr	r0, [pc, #28]
    8b68: 06 fe ff eb  	bl	#-2024 <put32>
    8b6c: 01 00 00 ea  	b	#4 <write_byte+0x4c>
    8b70: 1f ff ff eb  	bl	#-900 <_ZN3nox3rpi3nop17h17a184a1429c0195E>
    8b74: f2 ff ff ea  	b	#-56 <write_byte+0x18>
    8b78: 21 ff ff eb  	bl	#-892 <_ZN3nox3rpi11dev_barrier17h975e80648f521b27E>
    8b7c: ff ff ff ea  	b	#-4 <write_byte+0x54>
    8b80: 10 d0 8d e2  	add	sp, sp, #16
    8b84: 00 88 bd e8  	pop	{r11, pc}

00008b88 <$d.40>:
    8b88:	40 50 21 20	.word	0x20215040

00008b8c <boot_put32>:
    8b8c: 00 48 2d e9  	push	{r11, lr}
    8b90: 18 d0 4d e2  	sub	sp, sp, #24
    8b94: 0c 00 8d e5  	str	r0, [sp, #12]
    8b98: 14 00 8d e5  	str	r0, [sp, #20]
    8b9c: 10 00 8d e5  	str	r0, [sp, #16]
    8ba0: ff ff ff ea  	b	#-4 <boot_put32+0x18>
    8ba4: 10 00 9d e5  	ldr	r0, [sp, #16]
    8ba8: 70 00 ef e6  	uxtb	r0, r0
    8bac: de ff ff eb  	bl	#-136 <write_byte>
    8bb0: ff ff ff ea  	b	#-4 <boot_put32+0x28>
    8bb4: 0c 00 9d e5  	ldr	r0, [sp, #12]
    8bb8: 20 04 a0 e1  	lsr	r0, r0, #8
    8bbc: 08 00 8d e5  	str	r0, [sp, #8]
    8bc0: ff ff ff ea  	b	#-4 <boot_put32+0x38>
    8bc4: 08 00 9d e5  	ldr	r0, [sp, #8]
    8bc8: 70 00 ef e6  	uxtb	r0, r0
    8bcc: d6 ff ff eb  	bl	#-168 <write_byte>
    8bd0: ff ff ff ea  	b	#-4 <boot_put32+0x48>
    8bd4: 0c 00 9d e5  	ldr	r0, [sp, #12]
    8bd8: 20 08 a0 e1  	lsr	r0, r0, #16
    8bdc: 04 00 8d e5  	str	r0, [sp, #4]
    8be0: ff ff ff ea  	b	#-4 <boot_put32+0x58>
    8be4: 04 00 9d e5  	ldr	r0, [sp, #4]
    8be8: 70 00 ef e6  	uxtb	r0, r0
    8bec: ce ff ff eb  	bl	#-200 <write_byte>
    8bf0: ff ff ff ea  	b	#-4 <boot_put32+0x68>
    8bf4: 0c 00 9d e5  	ldr	r0, [sp, #12]
    8bf8: 20 0c a0 e1  	lsr	r0, r0, #24
    8bfc: 00 00 8d e5  	str	r0, [sp]
    8c00: ff ff ff ea  	b	#-4 <boot_put32+0x78>
    8c04: 00 00 9d e5  	ldr	r0, [sp]
    8c08: 70 00 ef e6  	uxtb	r0, r0
    8c0c: c6 ff ff eb  	bl	#-232 <write_byte>
    8c10: ff ff ff ea  	b	#-4 <boot_put32+0x88>
    8c14: 18 d0 8d e2  	add	sp, sp, #24
    8c18: 00 88 bd e8  	pop	{r11, pc}

00008c1c <reboot>:
    8c1c: 28 d0 4d e2  	sub	sp, sp, #40
    8c20: f7 fe ff eb  	bl	#-1060 <_ZN3nox3rpi11dev_barrier17h975e80648f521b27E>
    8c24: ff ff ff ea  	b	#-4 <reboot+0xc>
    8c28: 00 00 a0 e3  	mov	r0, #0
    8c2c: 0c 00 8d e5  	str	r0, [sp, #12]
    8c30: 09 0d a0 e3  	mov	r0, #576
    8c34: 3d 09 80 e3  	orr	r0, r0, #999424
    8c38: 10 00 8d e5  	str	r0, [sp, #16]
    8c3c: 0c 00 9d e5  	ldr	r0, [sp, #12]
    8c40: 10 10 9d e5  	ldr	r1, [sp, #16]
    8c44: f2 00 00 eb  	bl	#968 <_ZN63_$LT$I$u20$as$u20$core..iter..traits..collect..IntoIterator$GT$9into_iter17hb497da6472b3af60E>
    8c48: 04 00 8d e5  	str	r0, [sp, #4]
    8c4c: 08 10 8d e5  	str	r1, [sp, #8]
    8c50: ff ff ff ea  	b	#-4 <reboot+0x38>
    8c54: 08 00 9d e5  	ldr	r0, [sp, #8]
    8c58: 04 10 9d e5  	ldr	r1, [sp, #4]
    8c5c: 14 10 8d e5  	str	r1, [sp, #20]
    8c60: 18 00 8d e5  	str	r0, [sp, #24]
    8c64: ff ff ff ea  	b	#-4 <reboot+0x4c>
    8c68: 14 00 8d e2  	add	r0, sp, #20
    8c6c: dd 00 00 eb  	bl	#884 <_ZN4core4iter5range101_$LT$impl$u20$core..iter..traits..iterator..Iterator$u20$for$u20$core..ops..range..Range$LT$A$GT$$GT$4next17hce08b9d3072f1ae7E>
    8c70: 20 10 8d e5  	str	r1, [sp, #32]
    8c74: 1c 00 8d e5  	str	r0, [sp, #28]
    8c78: ff ff ff ea  	b	#-4 <reboot+0x60>
    8c7c: 1c 00 9d e5  	ldr	r0, [sp, #28]
    8c80: 00 00 50 e3  	cmp	r0, #0
    8c84: 02 00 00 0a  	beq	#8 <reboot+0x78>
    8c88: ff ff ff ea  	b	#-4 <reboot+0x70>
    8c8c: 05 00 00 ea  	b	#20 <reboot+0x8c>
    8c90: fe de ff e7  	trap
    8c94: 34 00 9f e5  	ldr	r0, [pc, #52]
    8c98: 01 10 a0 e3  	mov	r1, #1
    8c9c: 5a 14 81 e3  	orr	r1, r1, #1509949440
    8ca0: b8 fd ff eb  	bl	#-2336 <put32>
    8ca4: 03 00 00 ea  	b	#12 <reboot+0x9c>
    8ca8: 20 00 9d e5  	ldr	r0, [sp, #32]
    8cac: 24 00 8d e5  	str	r0, [sp, #36]
    8cb0: cf fe ff eb  	bl	#-1220 <_ZN3nox3rpi3nop17h17a184a1429c0195E>
    8cb4: eb ff ff ea  	b	#-84 <reboot+0x4c>
    8cb8: 14 00 9f e5  	ldr	r0, [pc, #20]
    8cbc: 20 10 a0 e3  	mov	r1, #32
    8cc0: 5a 14 81 e3  	orr	r1, r1, #1509949440
    8cc4: af fd ff eb  	bl	#-2372 <put32>
    8cc8: ff ff ff ea  	b	#-4 <reboot+0xb0>
    8ccc: fe ff ff ea  	b	#-8 <reboot+0xb0>

00008cd0 <$d.56>:
    8cd0:	24 00 10 20	.word	0x20100024
    8cd4:	1c 00 10 20	.word	0x2010001c

00008cd8 <_ZN4core3mem7replace17h2a549129a5a79e26E>:
    8cd8: 00 48 2d e9  	push	{r11, lr}
    8cdc: 18 d0 4d e2  	sub	sp, sp, #24
    8ce0: 00 10 8d e5  	str	r1, [sp]
    8ce4: 04 00 8d e5  	str	r0, [sp, #4]
    8ce8: 0c 00 8d e5  	str	r0, [sp, #12]
    8cec: 10 10 8d e5  	str	r1, [sp, #16]
    8cf0: 30 00 00 eb  	bl	#192 <_ZN4core3ptr4read17h93906c1c0cfe7984E>
    8cf4: 00 10 a0 e1  	mov	r1, r0
    8cf8: 08 10 8d e5  	str	r1, [sp, #8]
    8cfc: 14 00 8d e5  	str	r0, [sp, #20]
    8d00: ff ff ff ea  	b	#-4 <_ZN4core3mem7replace17h2a549129a5a79e26E+0x2c>
    8d04: 00 10 9d e5  	ldr	r1, [sp]
    8d08: 04 00 9d e5  	ldr	r0, [sp, #4]
    8d0c: 47 00 00 eb  	bl	#284 <_ZN4core3ptr5write17hf477ee493ee8bacaE>
    8d10: ff ff ff ea  	b	#-4 <_ZN4core3mem7replace17h2a549129a5a79e26E+0x3c>
    8d14: 08 00 9d e5  	ldr	r0, [sp, #8]
    8d18: 18 d0 8d e2  	add	sp, sp, #24
    8d1c: 00 88 bd e8  	pop	{r11, pc}

00008d20 <_ZN4core3mem7replace17h3311c6cdb7da9ee6E>:
    8d20: 00 48 2d e9  	push	{r11, lr}
    8d24: 18 d0 4d e2  	sub	sp, sp, #24
    8d28: 00 10 8d e5  	str	r1, [sp]
    8d2c: 04 00 8d e5  	str	r0, [sp, #4]
    8d30: 0c 00 8d e5  	str	r0, [sp, #12]
    8d34: 10 10 8d e5  	str	r1, [sp, #16]
    8d38: 0a 00 00 eb  	bl	#40 <_ZN4core3ptr4read17h36e834a5b2ca12d7E>
    8d3c: 00 10 a0 e1  	mov	r1, r0
    8d40: 08 10 8d e5  	str	r1, [sp, #8]
    8d44: 14 00 8d e5  	str	r0, [sp, #20]
    8d48: ff ff ff ea  	b	#-4 <_ZN4core3mem7replace17h3311c6cdb7da9ee6E+0x2c>
    8d4c: 00 10 9d e5  	ldr	r1, [sp]
    8d50: 04 00 9d e5  	ldr	r0, [sp, #4]
    8d54: 2b 00 00 eb  	bl	#172 <_ZN4core3ptr5write17h2e094ae3f238e065E>
    8d58: ff ff ff ea  	b	#-4 <_ZN4core3mem7replace17h3311c6cdb7da9ee6E+0x3c>
    8d5c: 08 00 9d e5  	ldr	r0, [sp, #8]
    8d60: 18 d0 8d e2  	add	sp, sp, #24
    8d64: 00 88 bd e8  	pop	{r11, pc}

00008d68 <_ZN4core3ptr4read17h36e834a5b2ca12d7E>:
    8d68: 20 d0 4d e2  	sub	sp, sp, #32
    8d6c: 04 00 8d e5  	str	r0, [sp, #4]
    8d70: 0c 00 8d e5  	str	r0, [sp, #12]
    8d74: 10 00 9d e5  	ldr	r0, [sp, #16]
    8d78: 08 00 8d e5  	str	r0, [sp, #8]
    8d7c: ff ff ff ea  	b	#-4 <_ZN4core3ptr4read17h36e834a5b2ca12d7E+0x18>
    8d80: 08 00 8d e2  	add	r0, sp, #8
    8d84: 14 00 8d e5  	str	r0, [sp, #20]
    8d88: ff ff ff ea  	b	#-4 <_ZN4core3ptr4read17h36e834a5b2ca12d7E+0x24>
    8d8c: 04 00 9d e5  	ldr	r0, [sp, #4]
    8d90: 00 00 90 e5  	ldr	r0, [r0]
    8d94: 08 00 8d e5  	str	r0, [sp, #8]
    8d98: 08 00 9d e5  	ldr	r0, [sp, #8]
    8d9c: 00 00 8d e5  	str	r0, [sp]
    8da0: 18 00 8d e5  	str	r0, [sp, #24]
    8da4: 1c 00 8d e5  	str	r0, [sp, #28]
    8da8: ff ff ff ea  	b	#-4 <_ZN4core3ptr4read17h36e834a5b2ca12d7E+0x44>
    8dac: 00 00 9d e5  	ldr	r0, [sp]
    8db0: 20 d0 8d e2  	add	sp, sp, #32
    8db4: 1e ff 2f e1  	bx	lr

00008db8 <_ZN4core3ptr4read17h93906c1c0cfe7984E>:
    8db8: 20 d0 4d e2  	sub	sp, sp, #32
    8dbc: 04 00 8d e5  	str	r0, [sp, #4]
    8dc0: 0c 00 8d e5  	str	r0, [sp, #12]
    8dc4: 10 00 9d e5  	ldr	r0, [sp, #16]
    8dc8: 08 00 8d e5  	str	r0, [sp, #8]
    8dcc: ff ff ff ea  	b	#-4 <_ZN4core3ptr4read17h93906c1c0cfe7984E+0x18>
    8dd0: 08 00 8d e2  	add	r0, sp, #8
    8dd4: 14 00 8d e5  	str	r0, [sp, #20]
    8dd8: ff ff ff ea  	b	#-4 <_ZN4core3ptr4read17h93906c1c0cfe7984E+0x24>
    8ddc: 04 00 9d e5  	ldr	r0, [sp, #4]
    8de0: 00 00 90 e5  	ldr	r0, [r0]
    8de4: 08 00 8d e5  	str	r0, [sp, #8]
    8de8: 08 00 9d e5  	ldr	r0, [sp, #8]
    8dec: 00 00 8d e5  	str	r0, [sp]
    8df0: 18 00 8d e5  	str	r0, [sp, #24]
    8df4: 1c 00 8d e5  	str	r0, [sp, #28]
    8df8: ff ff ff ea  	b	#-4 <_ZN4core3ptr4read17h93906c1c0cfe7984E+0x44>
    8dfc: 00 00 9d e5  	ldr	r0, [sp]
    8e00: 20 d0 8d e2  	add	sp, sp, #32
    8e04: 1e ff 2f e1  	bx	lr

00008e08 <_ZN4core3ptr5write17h2e094ae3f238e065E>:
    8e08: 0c d0 4d e2  	sub	sp, sp, #12
    8e0c: 00 10 8d e5  	str	r1, [sp]
    8e10: 00 10 a0 e1  	mov	r1, r0
    8e14: 00 00 9d e5  	ldr	r0, [sp]
    8e18: 04 00 8d e5  	str	r0, [sp, #4]
    8e1c: 08 10 8d e5  	str	r1, [sp, #8]
    8e20: 04 00 9d e5  	ldr	r0, [sp, #4]
    8e24: 00 00 81 e5  	str	r0, [r1]
    8e28: 0c d0 8d e2  	add	sp, sp, #12
    8e2c: 1e ff 2f e1  	bx	lr

00008e30 <_ZN4core3ptr5write17hf477ee493ee8bacaE>:
    8e30: 0c d0 4d e2  	sub	sp, sp, #12
    8e34: 00 10 8d e5  	str	r1, [sp]
    8e38: 00 10 a0 e1  	mov	r1, r0
    8e3c: 00 00 9d e5  	ldr	r0, [sp]
    8e40: 04 00 8d e5  	str	r0, [sp, #4]
    8e44: 08 10 8d e5  	str	r1, [sp, #8]
    8e48: 04 00 9d e5  	ldr	r0, [sp, #4]
    8e4c: 00 00 81 e5  	str	r0, [r1]
    8e50: 0c d0 8d e2  	add	sp, sp, #12
    8e54: 1e ff 2f e1  	bx	lr

00008e58 <_ZN50_$LT$T$u20$as$u20$core..convert..Into$LT$U$GT$$GT$4into17ha4c31a43baa65c7bE>:
    8e58: 00 48 2d e9  	push	{r11, lr}
    8e5c: 08 d0 4d e2  	sub	sp, sp, #8
    8e60: 07 00 cd e5  	strb	r0, [sp, #7]
    8e64: 98 00 00 eb  	bl	#608 <_ZN4core7convert3num63_$LT$impl$u20$core..convert..From$LT$u8$GT$$u20$for$u20$u32$GT$4from17ha5d75d29dd56cfafE>
    8e68: 00 00 8d e5  	str	r0, [sp]
    8e6c: ff ff ff ea  	b	#-4 <_ZN50_$LT$T$u20$as$u20$core..convert..Into$LT$U$GT$$GT$4into17ha4c31a43baa65c7bE+0x18>
    8e70: 00 00 9d e5  	ldr	r0, [sp]
    8e74: 08 d0 8d e2  	add	sp, sp, #8
    8e78: 00 88 bd e8  	pop	{r11, pc}

00008e7c <_ZN89_$LT$core..ops..range..Range$LT$T$GT$$u20$as$u20$core..iter..range..RangeIteratorImpl$GT$9spec_next17hda26481f890a5fd6E>:
    8e7c: 00 48 2d e9  	push	{r11, lr}
    8e80: 28 d0 4d e2  	sub	sp, sp, #40
    8e84: 10 00 8d e5  	str	r0, [sp, #16]
    8e88: 20 00 8d e5  	str	r0, [sp, #32]
    8e8c: 04 10 80 e2  	add	r1, r0, #4
    8e90: 80 00 00 eb  	bl	#512 <_ZN4core3cmp5impls55_$LT$impl$u20$core..cmp..PartialOrd$u20$for$u20$i32$GT$2lt17hce9a9fd1a84b56daE>
    8e94: 14 00 8d e5  	str	r0, [sp, #20]
    8e98: ff ff ff ea  	b	#-4 <_ZN89_$LT$core..ops..range..Range$LT$T$GT$$u20$as$u20$core..iter..range..RangeIteratorImpl$GT$9spec_next17hda26481f890a5fd6E+0x20>
    8e9c: 14 00 9d e5  	ldr	r0, [sp, #20]
    8ea0: 01 00 10 e3  	tst	r0, #1
    8ea4: 03 00 00 1a  	bne	#12 <_ZN89_$LT$core..ops..range..Range$LT$T$GT$$u20$as$u20$core..iter..range..RangeIteratorImpl$GT$9spec_next17hda26481f890a5fd6E+0x3c>
    8ea8: ff ff ff ea  	b	#-4 <_ZN89_$LT$core..ops..range..Range$LT$T$GT$$u20$as$u20$core..iter..range..RangeIteratorImpl$GT$9spec_next17hda26481f890a5fd6E+0x30>
    8eac: 00 00 a0 e3  	mov	r0, #0
    8eb0: 18 00 8d e5  	str	r0, [sp, #24]
    8eb4: 14 00 00 ea  	b	#80 <_ZN89_$LT$core..ops..range..Range$LT$T$GT$$u20$as$u20$core..iter..range..RangeIteratorImpl$GT$9spec_next17hda26481f890a5fd6E+0x90>
    8eb8: 10 00 9d e5  	ldr	r0, [sp, #16]
    8ebc: 63 00 00 eb  	bl	#396 <_ZN4core5clone5impls52_$LT$impl$u20$core..clone..Clone$u20$for$u20$i32$GT$5clone17hebcf0f3ee497b849E>
    8ec0: 0c 00 8d e5  	str	r0, [sp, #12]
    8ec4: ff ff ff ea  	b	#-4 <_ZN89_$LT$core..ops..range..Range$LT$T$GT$$u20$as$u20$core..iter..range..RangeIteratorImpl$GT$9spec_next17hda26481f890a5fd6E+0x4c>
    8ec8: 0c 00 9d e5  	ldr	r0, [sp, #12]
    8ecc: 01 10 a0 e3  	mov	r1, #1
    8ed0: 8f 00 00 eb  	bl	#572 <_ZN47_$LT$i32$u20$as$u20$core..iter..range..Step$GT$17forward_unchecked17h1a629ec05f83e395E>
    8ed4: 00 10 a0 e1  	mov	r1, r0
    8ed8: 08 10 8d e5  	str	r1, [sp, #8]
    8edc: 24 00 8d e5  	str	r0, [sp, #36]
    8ee0: ff ff ff ea  	b	#-4 <_ZN89_$LT$core..ops..range..Range$LT$T$GT$$u20$as$u20$core..iter..range..RangeIteratorImpl$GT$9spec_next17hda26481f890a5fd6E+0x68>
    8ee4: 08 10 9d e5  	ldr	r1, [sp, #8]
    8ee8: 10 00 9d e5  	ldr	r0, [sp, #16]
    8eec: 8b ff ff eb  	bl	#-468 <_ZN4core3mem7replace17h3311c6cdb7da9ee6E>
    8ef0: 04 00 8d e5  	str	r0, [sp, #4]
    8ef4: ff ff ff ea  	b	#-4 <_ZN89_$LT$core..ops..range..Range$LT$T$GT$$u20$as$u20$core..iter..range..RangeIteratorImpl$GT$9spec_next17hda26481f890a5fd6E+0x7c>
    8ef8: 04 00 9d e5  	ldr	r0, [sp, #4]
    8efc: 1c 00 8d e5  	str	r0, [sp, #28]
    8f00: 01 00 a0 e3  	mov	r0, #1
    8f04: 18 00 8d e5  	str	r0, [sp, #24]
    8f08: ff ff ff ea  	b	#-4 <_ZN89_$LT$core..ops..range..Range$LT$T$GT$$u20$as$u20$core..iter..range..RangeIteratorImpl$GT$9spec_next17hda26481f890a5fd6E+0x90>
    8f0c: 18 00 9d e5  	ldr	r0, [sp, #24]
    8f10: 1c 10 9d e5  	ldr	r1, [sp, #28]
    8f14: 28 d0 8d e2  	add	sp, sp, #40
    8f18: 00 88 bd e8  	pop	{r11, pc}

00008f1c <_ZN89_$LT$core..ops..range..Range$LT$T$GT$$u20$as$u20$core..iter..range..RangeIteratorImpl$GT$9spec_next17hff9691de6daba183E>:
    8f1c: 00 48 2d e9  	push	{r11, lr}
    8f20: 28 d0 4d e2  	sub	sp, sp, #40
    8f24: 10 00 8d e5  	str	r0, [sp, #16]
    8f28: 20 00 8d e5  	str	r0, [sp, #32]
    8f2c: 04 10 80 e2  	add	r1, r0, #4
    8f30: 4b 00 00 eb  	bl	#300 <_ZN4core3cmp5impls55_$LT$impl$u20$core..cmp..PartialOrd$u20$for$u20$u32$GT$2lt17h2b7fc589dc418b15E>
    8f34: 14 00 8d e5  	str	r0, [sp, #20]
    8f38: ff ff ff ea  	b	#-4 <_ZN89_$LT$core..ops..range..Range$LT$T$GT$$u20$as$u20$core..iter..range..RangeIteratorImpl$GT$9spec_next17hff9691de6daba183E+0x20>
    8f3c: 14 00 9d e5  	ldr	r0, [sp, #20]
    8f40: 01 00 10 e3  	tst	r0, #1
    8f44: 03 00 00 1a  	bne	#12 <_ZN89_$LT$core..ops..range..Range$LT$T$GT$$u20$as$u20$core..iter..range..RangeIteratorImpl$GT$9spec_next17hff9691de6daba183E+0x3c>
    8f48: ff ff ff ea  	b	#-4 <_ZN89_$LT$core..ops..range..Range$LT$T$GT$$u20$as$u20$core..iter..range..RangeIteratorImpl$GT$9spec_next17hff9691de6daba183E+0x30>
    8f4c: 00 00 a0 e3  	mov	r0, #0
    8f50: 18 00 8d e5  	str	r0, [sp, #24]
    8f54: 14 00 00 ea  	b	#80 <_ZN89_$LT$core..ops..range..Range$LT$T$GT$$u20$as$u20$core..iter..range..RangeIteratorImpl$GT$9spec_next17hff9691de6daba183E+0x90>
    8f58: 10 00 9d e5  	ldr	r0, [sp, #16]
    8f5c: 36 00 00 eb  	bl	#216 <_ZN4core5clone5impls52_$LT$impl$u20$core..clone..Clone$u20$for$u20$u32$GT$5clone17h5e0109765ee16457E>
    8f60: 0c 00 8d e5  	str	r0, [sp, #12]
    8f64: ff ff ff ea  	b	#-4 <_ZN89_$LT$core..ops..range..Range$LT$T$GT$$u20$as$u20$core..iter..range..RangeIteratorImpl$GT$9spec_next17hff9691de6daba183E+0x4c>
    8f68: 0c 00 9d e5  	ldr	r0, [sp, #12]
    8f6c: 01 10 a0 e3  	mov	r1, #1
    8f70: 5a 00 00 eb  	bl	#360 <_ZN47_$LT$u32$u20$as$u20$core..iter..range..Step$GT$17forward_unchecked17h7320daeaeed6d3dcE>
    8f74: 00 10 a0 e1  	mov	r1, r0
    8f78: 08 10 8d e5  	str	r1, [sp, #8]
    8f7c: 24 00 8d e5  	str	r0, [sp, #36]
    8f80: ff ff ff ea  	b	#-4 <_ZN89_$LT$core..ops..range..Range$LT$T$GT$$u20$as$u20$core..iter..range..RangeIteratorImpl$GT$9spec_next17hff9691de6daba183E+0x68>
    8f84: 08 10 9d e5  	ldr	r1, [sp, #8]
    8f88: 10 00 9d e5  	ldr	r0, [sp, #16]
    8f8c: 51 ff ff eb  	bl	#-700 <_ZN4core3mem7replace17h2a549129a5a79e26E>
    8f90: 04 00 8d e5  	str	r0, [sp, #4]
    8f94: ff ff ff ea  	b	#-4 <_ZN89_$LT$core..ops..range..Range$LT$T$GT$$u20$as$u20$core..iter..range..RangeIteratorImpl$GT$9spec_next17hff9691de6daba183E+0x7c>
    8f98: 04 00 9d e5  	ldr	r0, [sp, #4]
    8f9c: 1c 00 8d e5  	str	r0, [sp, #28]
    8fa0: 01 00 a0 e3  	mov	r0, #1
    8fa4: 18 00 8d e5  	str	r0, [sp, #24]
    8fa8: ff ff ff ea  	b	#-4 <_ZN89_$LT$core..ops..range..Range$LT$T$GT$$u20$as$u20$core..iter..range..RangeIteratorImpl$GT$9spec_next17hff9691de6daba183E+0x90>
    8fac: 18 00 9d e5  	ldr	r0, [sp, #24]
    8fb0: 1c 10 9d e5  	ldr	r1, [sp, #28]
    8fb4: 28 d0 8d e2  	add	sp, sp, #40
    8fb8: 00 88 bd e8  	pop	{r11, pc}

00008fbc <_ZN4core4iter5range101_$LT$impl$u20$core..iter..traits..iterator..Iterator$u20$for$u20$core..ops..range..Range$LT$A$GT$$GT$4next17h8b788d2f259818c9E>:
    8fbc: 00 48 2d e9  	push	{r11, lr}
    8fc0: 10 d0 4d e2  	sub	sp, sp, #16
    8fc4: 0c 00 8d e5  	str	r0, [sp, #12]
    8fc8: d3 ff ff eb  	bl	#-180 <_ZN89_$LT$core..ops..range..Range$LT$T$GT$$u20$as$u20$core..iter..range..RangeIteratorImpl$GT$9spec_next17hff9691de6daba183E>
    8fcc: 04 00 8d e5  	str	r0, [sp, #4]
    8fd0: 08 10 8d e5  	str	r1, [sp, #8]
    8fd4: ff ff ff ea  	b	#-4 <_ZN4core4iter5range101_$LT$impl$u20$core..iter..traits..iterator..Iterator$u20$for$u20$core..ops..range..Range$LT$A$GT$$GT$4next17h8b788d2f259818c9E+0x1c>
    8fd8: 08 10 9d e5  	ldr	r1, [sp, #8]
    8fdc: 04 00 9d e5  	ldr	r0, [sp, #4]
    8fe0: 10 d0 8d e2  	add	sp, sp, #16
    8fe4: 00 88 bd e8  	pop	{r11, pc}

00008fe8 <_ZN4core4iter5range101_$LT$impl$u20$core..iter..traits..iterator..Iterator$u20$for$u20$core..ops..range..Range$LT$A$GT$$GT$4next17hce08b9d3072f1ae7E>:
    8fe8: 00 48 2d e9  	push	{r11, lr}
    8fec: 10 d0 4d e2  	sub	sp, sp, #16
    8ff0: 0c 00 8d e5  	str	r0, [sp, #12]
    8ff4: a0 ff ff eb  	bl	#-384 <_ZN89_$LT$core..ops..range..Range$LT$T$GT$$u20$as$u20$core..iter..range..RangeIteratorImpl$GT$9spec_next17hda26481f890a5fd6E>
    8ff8: 04 00 8d e5  	str	r0, [sp, #4]
    8ffc: 08 10 8d e5  	str	r1, [sp, #8]
    9000: ff ff ff ea  	b	#-4 <_ZN4core4iter5range101_$LT$impl$u20$core..iter..traits..iterator..Iterator$u20$for$u20$core..ops..range..Range$LT$A$GT$$GT$4next17hce08b9d3072f1ae7E+0x1c>
    9004: 08 10 9d e5  	ldr	r1, [sp, #8]
    9008: 04 00 9d e5  	ldr	r0, [sp, #4]
    900c: 10 d0 8d e2  	add	sp, sp, #16
    9010: 00 88 bd e8  	pop	{r11, pc}

00009014 <_ZN63_$LT$I$u20$as$u20$core..iter..traits..collect..IntoIterator$GT$9into_iter17hb497da6472b3af60E>:
    9014: 08 d0 4d e2  	sub	sp, sp, #8
    9018: 00 00 8d e5  	str	r0, [sp]
    901c: 04 10 8d e5  	str	r1, [sp, #4]
    9020: 08 d0 8d e2  	add	sp, sp, #8
    9024: 1e ff 2f e1  	bx	lr

00009028 <_ZN63_$LT$I$u20$as$u20$core..iter..traits..collect..IntoIterator$GT$9into_iter17hb6d6cd24592f553eE>:
    9028: 08 d0 4d e2  	sub	sp, sp, #8
    902c: 00 00 8d e5  	str	r0, [sp]
    9030: 04 10 8d e5  	str	r1, [sp, #4]
    9034: 08 d0 8d e2  	add	sp, sp, #8
    9038: 1e ff 2f e1  	bx	lr

0000903c <_ZN4core5clone5impls52_$LT$impl$u20$core..clone..Clone$u20$for$u20$u32$GT$5clone17h5e0109765ee16457E>:
    903c: 04 d0 4d e2  	sub	sp, sp, #4
    9040: 00 00 8d e5  	str	r0, [sp]
    9044: 00 00 90 e5  	ldr	r0, [r0]
    9048: 04 d0 8d e2  	add	sp, sp, #4
    904c: 1e ff 2f e1  	bx	lr

00009050 <_ZN4core5clone5impls52_$LT$impl$u20$core..clone..Clone$u20$for$u20$i32$GT$5clone17hebcf0f3ee497b849E>:
    9050: 04 d0 4d e2  	sub	sp, sp, #4
    9054: 00 00 8d e5  	str	r0, [sp]
    9058: 00 00 90 e5  	ldr	r0, [r0]
    905c: 04 d0 8d e2  	add	sp, sp, #4
    9060: 1e ff 2f e1  	bx	lr

00009064 <_ZN4core3cmp5impls55_$LT$impl$u20$core..cmp..PartialOrd$u20$for$u20$u32$GT$2lt17h2b7fc589dc418b15E>:
    9064: 0c d0 4d e2  	sub	sp, sp, #12
    9068: 00 10 8d e5  	str	r1, [sp]
    906c: 00 10 a0 e1  	mov	r1, r0
    9070: 00 00 9d e5  	ldr	r0, [sp]
    9074: 04 10 8d e5  	str	r1, [sp, #4]
    9078: 08 00 8d e5  	str	r0, [sp, #8]
    907c: 00 10 91 e5  	ldr	r1, [r1]
    9080: 00 20 90 e5  	ldr	r2, [r0]
    9084: 00 00 a0 e3  	mov	r0, #0
    9088: 02 00 51 e1  	cmp	r1, r2
    908c: 01 00 a0 33  	movlo	r0, #1
    9090: 0c d0 8d e2  	add	sp, sp, #12
    9094: 1e ff 2f e1  	bx	lr

00009098 <_ZN4core3cmp5impls55_$LT$impl$u20$core..cmp..PartialOrd$u20$for$u20$i32$GT$2lt17hce9a9fd1a84b56daE>:
    9098: 0c d0 4d e2  	sub	sp, sp, #12
    909c: 00 10 8d e5  	str	r1, [sp]
    90a0: 00 10 a0 e1  	mov	r1, r0
    90a4: 00 00 9d e5  	ldr	r0, [sp]
    90a8: 04 10 8d e5  	str	r1, [sp, #4]
    90ac: 08 00 8d e5  	str	r0, [sp, #8]
    90b0: 00 10 91 e5  	ldr	r1, [r1]
    90b4: 00 20 90 e5  	ldr	r2, [r0]
    90b8: 00 00 a0 e3  	mov	r0, #0
    90bc: 02 00 51 e1  	cmp	r1, r2
    90c0: 01 00 a0 b3  	movlt	r0, #1
    90c4: 0c d0 8d e2  	add	sp, sp, #12
    90c8: 1e ff 2f e1  	bx	lr

000090cc <_ZN4core7convert3num63_$LT$impl$u20$core..convert..From$LT$u8$GT$$u20$for$u20$u32$GT$4from17ha5d75d29dd56cfafE>:
    90cc: 04 d0 4d e2  	sub	sp, sp, #4
    90d0: 03 00 cd e5  	strb	r0, [sp, #3]
    90d4: 70 00 ef e6  	uxtb	r0, r0
    90d8: 04 d0 8d e2  	add	sp, sp, #4
    90dc: 1e ff 2f e1  	bx	lr

000090e0 <_ZN47_$LT$u32$u20$as$u20$core..iter..range..Step$GT$17forward_unchecked17h7320daeaeed6d3dcE>:
    90e0: 18 d0 4d e2  	sub	sp, sp, #24
    90e4: 04 00 8d e5  	str	r0, [sp, #4]
    90e8: 08 10 8d e5  	str	r1, [sp, #8]
    90ec: 0c 00 8d e5  	str	r0, [sp, #12]
    90f0: 10 10 8d e5  	str	r1, [sp, #16]
    90f4: 01 00 80 e0  	add	r0, r0, r1
    90f8: 14 00 8d e5  	str	r0, [sp, #20]
    90fc: 14 00 9d e5  	ldr	r0, [sp, #20]
    9100: 00 00 8d e5  	str	r0, [sp]
    9104: ff ff ff ea  	b	#-4 <_ZN47_$LT$u32$u20$as$u20$core..iter..range..Step$GT$17forward_unchecked17h7320daeaeed6d3dcE+0x28>
    9108: 00 00 9d e5  	ldr	r0, [sp]
    910c: 18 d0 8d e2  	add	sp, sp, #24
    9110: 1e ff 2f e1  	bx	lr

00009114 <_ZN47_$LT$i32$u20$as$u20$core..iter..range..Step$GT$17forward_unchecked17h1a629ec05f83e395E>:
    9114: 18 d0 4d e2  	sub	sp, sp, #24
    9118: 04 00 8d e5  	str	r0, [sp, #4]
    911c: 08 10 8d e5  	str	r1, [sp, #8]
    9120: 0c 00 8d e5  	str	r0, [sp, #12]
    9124: 10 10 8d e5  	str	r1, [sp, #16]
    9128: 01 00 80 e0  	add	r0, r0, r1
    912c: 14 00 8d e5  	str	r0, [sp, #20]
    9130: 14 00 9d e5  	ldr	r0, [sp, #20]
    9134: 00 00 8d e5  	str	r0, [sp]
    9138: ff ff ff ea  	b	#-4 <_ZN47_$LT$i32$u20$as$u20$core..iter..range..Step$GT$17forward_unchecked17h1a629ec05f83e395E+0x28>
    913c: 00 00 9d e5  	ldr	r0, [sp]
    9140: 18 d0 8d e2  	add	sp, sp, #24
    9144: 1e ff 2f e1  	bx	lr

00009148 <_ZN4core3ops8function6FnOnce9call_once17h02077f446692cad1E>:
    9148: 00 48 2d e9  	push	{r11, lr}
    914c: 10 d0 4d e2  	sub	sp, sp, #16
    9150: 00 00 8d e5  	str	r0, [sp]
    9154: 04 10 8d e5  	str	r1, [sp, #4]
    9158: 08 20 8d e5  	str	r2, [sp, #8]
    915c: 00 00 9d e5  	ldr	r0, [sp]
    9160: 04 10 9d e5  	ldr	r1, [sp, #4]
    9164: 08 20 9d e5  	ldr	r2, [sp, #8]
    9168: 80 01 00 eb  	bl	#1536 <_ZN4core10intrinsics19copy_nonoverlapping13runtime_check17h04ce58f9c314a303E>
    916c: ff ff ff ea  	b	#-4 <_ZN4core3ops8function6FnOnce9call_once17h02077f446692cad1E+0x28>
    9170: 10 d0 8d e2  	add	sp, sp, #16
    9174: 00 88 bd e8  	pop	{r11, pc}

00009178 <_ZN4core3ops8function6FnOnce9call_once17h0b830900cfc8e13fE>:
    9178: 00 48 2d e9  	push	{r11, lr}
    917c: 08 d0 4d e2  	sub	sp, sp, #8
    9180: 00 00 8d e5  	str	r0, [sp]
    9184: 00 00 9d e5  	ldr	r0, [sp]
    9188: f7 01 00 eb  	bl	#2012 <_ZN4core10intrinsics11write_bytes13runtime_check17h676bfc7336c4bd8cE>
    918c: ff ff ff ea  	b	#-4 <_ZN4core3ops8function6FnOnce9call_once17h0b830900cfc8e13fE+0x18>
    9190: 08 d0 8d e2  	add	sp, sp, #8
    9194: 00 88 bd e8  	pop	{r11, pc}

00009198 <_ZN4core3ops8function6FnOnce9call_once17h10c329ac813edc41E>:
    9198: 00 48 2d e9  	push	{r11, lr}
    919c: 10 d0 4d e2  	sub	sp, sp, #16
    91a0: 00 00 8d e5  	str	r0, [sp]
    91a4: 04 10 8d e5  	str	r1, [sp, #4]
    91a8: 08 20 8d e5  	str	r2, [sp, #8]
    91ac: 00 00 9d e5  	ldr	r0, [sp]
    91b0: 04 10 9d e5  	ldr	r1, [sp, #4]
    91b4: 08 20 9d e5  	ldr	r2, [sp, #8]
    91b8: a1 01 00 eb  	bl	#1668 <_ZN4core10intrinsics19copy_nonoverlapping13runtime_check17h200abbf7d42fd906E>
    91bc: ff ff ff ea  	b	#-4 <_ZN4core3ops8function6FnOnce9call_once17h10c329ac813edc41E+0x28>
    91c0: 10 d0 8d e2  	add	sp, sp, #16
    91c4: 00 88 bd e8  	pop	{r11, pc}

000091c8 <_ZN4core3ops8function6FnOnce9call_once17h652a5010643b2035E>:
    91c8: 00 48 2d e9  	push	{r11, lr}
    91cc: 10 d0 4d e2  	sub	sp, sp, #16
    91d0: 08 00 8d e5  	str	r0, [sp, #8]
    91d4: 0c 10 8d e5  	str	r1, [sp, #12]
    91d8: 08 10 9d e5  	ldr	r1, [sp, #8]
    91dc: 0c 20 9d e5  	ldr	r2, [sp, #12]
    91e0: 04 00 8d e2  	add	r0, sp, #4
    91e4: 07 0f 00 eb  	bl	#15388 <_ZN4core3fmt12USIZE_MARKER28_$u7b$$u7b$closure$u7d$$u7d$17hc8ead2c0d1435e3eE>
    91e8: 00 00 8d e5  	str	r0, [sp]
    91ec: ff ff ff ea  	b	#-4 <_ZN4core3ops8function6FnOnce9call_once17h652a5010643b2035E+0x28>
    91f0: ff ff ff ea  	b	#-4 <_ZN4core3ops8function6FnOnce9call_once17h652a5010643b2035E+0x2c>
    91f4: 00 00 9d e5  	ldr	r0, [sp]
    91f8: 01 00 00 e2  	and	r0, r0, #1
    91fc: 10 d0 8d e2  	add	sp, sp, #16
    9200: 00 88 bd e8  	pop	{r11, pc}

00009204 <_ZN4core3ops8function6FnOnce9call_once17had4262aec2f581dfE>:
    9204: 00 48 2d e9  	push	{r11, lr}
    9208: 08 d0 4d e2  	sub	sp, sp, #8
    920c: 00 00 8d e5  	str	r0, [sp]
    9210: 00 00 9d e5  	ldr	r0, [sp]
    9214: 3d 1a 00 eb  	bl	#26868 <_ZN4core5slice3raw20debug_check_data_len8rt_check17hce02492c767833a3E>
    9218: ff ff ff ea  	b	#-4 <_ZN4core3ops8function6FnOnce9call_once17had4262aec2f581dfE+0x18>
    921c: 08 d0 8d e2  	add	sp, sp, #8
    9220: 00 88 bd e8  	pop	{r11, pc}

00009224 <_ZN4core3ops8function6FnOnce9call_once17hca23baf9ed158dd8E>:
    9224: 00 48 2d e9  	push	{r11, lr}
    9228: 08 d0 4d e2  	sub	sp, sp, #8
    922c: 00 00 8d e5  	str	r0, [sp]
    9230: 00 00 9d e5  	ldr	r0, [sp]
    9234: 19 1a 00 eb  	bl	#26724 <_ZN4core5slice3raw20debug_check_data_len8rt_check17h87ae803e467dfe74E>
    9238: ff ff ff ea  	b	#-4 <_ZN4core3ops8function6FnOnce9call_once17hca23baf9ed158dd8E+0x18>
    923c: 08 d0 8d e2  	add	sp, sp, #8
    9240: 00 88 bd e8  	pop	{r11, pc}

00009244 <_ZN4core3ops8function6FnOnce9call_once17hd97bd0814c696285E>:
    9244: 00 48 2d e9  	push	{r11, lr}
    9248: 10 d0 4d e2  	sub	sp, sp, #16
    924c: 04 00 8d e5  	str	r0, [sp, #4]
    9250: 08 10 8d e5  	str	r1, [sp, #8]
    9254: 04 00 9d e5  	ldr	r0, [sp, #4]
    9258: 08 10 9d e5  	ldr	r1, [sp, #8]
    925c: 02 23 00 eb  	bl	#35848 <_ZN4core3cmp5impls50_$LT$impl$u20$core..cmp..Ord$u20$for$u20$usize$GT$3cmp17h3d79425c57ffc708E>
    9260: 00 00 8d e5  	str	r0, [sp]
    9264: ff ff ff ea  	b	#-4 <_ZN4core3ops8function6FnOnce9call_once17hd97bd0814c696285E+0x24>
    9268: 00 00 9d e5  	ldr	r0, [sp]
    926c: 10 d0 8d e2  	add	sp, sp, #16
    9270: 00 88 bd e8  	pop	{r11, pc}

00009274 <_ZN4core3ops8function6FnOnce9call_once17hef1f5979641ae403E>:
    9274: 00 48 2d e9  	push	{r11, lr}
    9278: 08 d0 4d e2  	sub	sp, sp, #8
    927c: 00 00 8d e5  	str	r0, [sp]
    9280: 00 00 9d e5  	ldr	r0, [sp]
    9284: e9 19 00 eb  	bl	#26532 <_ZN4core5slice3raw20debug_check_data_len8rt_check17h45bfb212b6aede9cE>
    9288: ff ff ff ea  	b	#-4 <_ZN4core3ops8function6FnOnce9call_once17hef1f5979641ae403E+0x18>
    928c: 08 d0 8d e2  	add	sp, sp, #8
    9290: 00 88 bd e8  	pop	{r11, pc}

00009294 <_ZN4core3ptr30drop_in_place$LT$$RF$usize$GT$17h7f854e86168e2e61E>:
    9294: 04 d0 4d e2  	sub	sp, sp, #4
    9298: 00 00 8d e5  	str	r0, [sp]
    929c: 04 d0 8d e2  	add	sp, sp, #4
    92a0: 1e ff 2f e1  	bx	lr

000092a4 <_ZN4core3ptr88drop_in_place$LT$core..panic..panic_info..PanicInfo..internal_constructor..NoPayload$GT$17hec2b155977c27d61E>:
    92a4: 04 d0 4d e2  	sub	sp, sp, #4
    92a8: 00 00 8d e5  	str	r0, [sp]
    92ac: 04 d0 8d e2  	add	sp, sp, #4
    92b0: 1e ff 2f e1  	bx	lr

000092b4 <_ZN4core3num20_$LT$impl$u20$u8$GT$21is_utf8_char_boundary17h9c9d7c574f60edcfE>:
    92b4: 04 d0 4d e2  	sub	sp, sp, #4
    92b8: 70 10 af e6  	sxtb	r1, r0
    92bc: 03 00 cd e5  	strb	r0, [sp, #3]
    92c0: 00 00 a0 e3  	mov	r0, #0
    92c4: 41 00 71 e3  	cmn	r1, #65
    92c8: 01 00 a0 c3  	movgt	r0, #1
    92cc: 04 d0 8d e2  	add	sp, sp, #4
    92d0: 1e ff 2f e1  	bx	lr

000092d4 <_ZN4core4hint21unreachable_unchecked17h18b8e30063cbc1c9E>:
    92d4: fe de ff e7  	trap

000092d8 <_ZN4core10intrinsics23is_aligned_and_not_null17h1cf92320775c1a7bE>:
    92d8: 00 48 2d e9  	push	{r11, lr}
    92dc: 18 d0 4d e2  	sub	sp, sp, #24
    92e0: 08 00 8d e5  	str	r0, [sp, #8]
    92e4: 14 00 8d e5  	str	r0, [sp, #20]
    92e8: fd 02 00 eb  	bl	#3060 <_ZN4core3ptr9const_ptr33_$LT$impl$u20$$BP$const$u20$T$GT$7is_null17ha3dab16996a599e5E>
    92ec: 0c 00 8d e5  	str	r0, [sp, #12]
    92f0: ff ff ff ea  	b	#-4 <_ZN4core10intrinsics23is_aligned_and_not_null17h1cf92320775c1a7bE+0x1c>
    92f4: 0c 00 9d e5  	ldr	r0, [sp, #12]
    92f8: 01 00 10 e3  	tst	r0, #1
    92fc: 03 00 00 0a  	beq	#12 <_ZN4core10intrinsics23is_aligned_and_not_null17h1cf92320775c1a7bE+0x38>
    9300: ff ff ff ea  	b	#-4 <_ZN4core10intrinsics23is_aligned_and_not_null17h1cf92320775c1a7bE+0x2c>
    9304: 00 00 a0 e3  	mov	r0, #0
    9308: 13 00 cd e5  	strb	r0, [sp, #19]
    930c: 11 00 00 ea  	b	#68 <_ZN4core10intrinsics23is_aligned_and_not_null17h1cf92320775c1a7bE+0x80>
    9310: 08 00 9d e5  	ldr	r0, [sp, #8]
    9314: 04 00 8d e5  	str	r0, [sp, #4]
    9318: ff ff ff ea  	b	#-4 <_ZN4core10intrinsics23is_aligned_and_not_null17h1cf92320775c1a7bE+0x44>
    931c: 00 00 a0 e3  	mov	r0, #0
    9320: 00 00 50 e3  	cmp	r0, #0
    9324: 06 00 00 1a  	bne	#24 <_ZN4core10intrinsics23is_aligned_and_not_null17h1cf92320775c1a7bE+0x6c>
    9328: ff ff ff ea  	b	#-4 <_ZN4core10intrinsics23is_aligned_and_not_null17h1cf92320775c1a7bE+0x54>
    932c: 04 00 9d e5  	ldr	r0, [sp, #4]
    9330: 03 00 00 e2  	and	r0, r0, #3
    9334: 10 0f 6f e1  	clz	r0, r0
    9338: a0 02 a0 e1  	lsr	r0, r0, #5
    933c: 13 00 cd e5  	strb	r0, [sp, #19]
    9340: 04 00 00 ea  	b	#16 <_ZN4core10intrinsics23is_aligned_and_not_null17h1cf92320775c1a7bE+0x80>
    9344: 18 00 9f e5  	ldr	r0, [pc, #24]
    9348: 18 20 9f e5  	ldr	r2, [pc, #24]
    934c: 39 10 a0 e3  	mov	r1, #57
    9350: d7 0a 00 eb  	bl	#11100 <_ZN4core9panicking5panic17h70f755644c6683e5E>
    9354: fe de ff e7  	trap
    9358: 13 00 dd e5  	ldrb	r0, [sp, #19]
    935c: 18 d0 8d e2  	add	sp, sp, #24
    9360: 00 88 bd e8  	pop	{r11, pc}

00009364 <$d.399>:
    9364:	70 54 01 00	.word	0x00015470
    9368:	b0 55 01 00	.word	0x000155b0

0000936c <_ZN4core10intrinsics23is_aligned_and_not_null17h6209c0cd9c9d888aE>:
    936c: 00 48 2d e9  	push	{r11, lr}
    9370: 18 d0 4d e2  	sub	sp, sp, #24
    9374: 08 00 8d e5  	str	r0, [sp, #8]
    9378: 14 00 8d e5  	str	r0, [sp, #20]
    937c: ca 02 00 eb  	bl	#2856 <_ZN4core3ptr9const_ptr33_$LT$impl$u20$$BP$const$u20$T$GT$7is_null17ha263ef11114199f5E>
    9380: 0c 00 8d e5  	str	r0, [sp, #12]
    9384: ff ff ff ea  	b	#-4 <_ZN4core10intrinsics23is_aligned_and_not_null17h6209c0cd9c9d888aE+0x1c>
    9388: 0c 00 9d e5  	ldr	r0, [sp, #12]
    938c: 01 00 10 e3  	tst	r0, #1
    9390: 03 00 00 0a  	beq	#12 <_ZN4core10intrinsics23is_aligned_and_not_null17h6209c0cd9c9d888aE+0x38>
    9394: ff ff ff ea  	b	#-4 <_ZN4core10intrinsics23is_aligned_and_not_null17h6209c0cd9c9d888aE+0x2c>
    9398: 00 00 a0 e3  	mov	r0, #0
    939c: 13 00 cd e5  	strb	r0, [sp, #19]
    93a0: 11 00 00 ea  	b	#68 <_ZN4core10intrinsics23is_aligned_and_not_null17h6209c0cd9c9d888aE+0x80>
    93a4: 08 00 9d e5  	ldr	r0, [sp, #8]
    93a8: 04 00 8d e5  	str	r0, [sp, #4]
    93ac: ff ff ff ea  	b	#-4 <_ZN4core10intrinsics23is_aligned_and_not_null17h6209c0cd9c9d888aE+0x44>
    93b0: 00 00 a0 e3  	mov	r0, #0
    93b4: 00 00 50 e3  	cmp	r0, #0
    93b8: 06 00 00 1a  	bne	#24 <_ZN4core10intrinsics23is_aligned_and_not_null17h6209c0cd9c9d888aE+0x6c>
    93bc: ff ff ff ea  	b	#-4 <_ZN4core10intrinsics23is_aligned_and_not_null17h6209c0cd9c9d888aE+0x54>
    93c0: 04 00 9d e5  	ldr	r0, [sp, #4]
    93c4: 03 00 00 e2  	and	r0, r0, #3
    93c8: 10 0f 6f e1  	clz	r0, r0
    93cc: a0 02 a0 e1  	lsr	r0, r0, #5
    93d0: 13 00 cd e5  	strb	r0, [sp, #19]
    93d4: 04 00 00 ea  	b	#16 <_ZN4core10intrinsics23is_aligned_and_not_null17h6209c0cd9c9d888aE+0x80>
    93d8: 18 00 9f e5  	ldr	r0, [pc, #24]
    93dc: 18 20 9f e5  	ldr	r2, [pc, #24]
    93e0: 39 10 a0 e3  	mov	r1, #57
    93e4: b2 0a 00 eb  	bl	#10952 <_ZN4core9panicking5panic17h70f755644c6683e5E>
    93e8: fe de ff e7  	trap
    93ec: 13 00 dd e5  	ldrb	r0, [sp, #19]
    93f0: 18 d0 8d e2  	add	sp, sp, #24
    93f4: 00 88 bd e8  	pop	{r11, pc}

000093f8 <$d.401>:
    93f8:	70 54 01 00	.word	0x00015470
    93fc:	b0 55 01 00	.word	0x000155b0

00009400 <_ZN4core10intrinsics23is_aligned_and_not_null17hcdf3ab3f95013724E>:
    9400: 00 48 2d e9  	push	{r11, lr}
    9404: 10 d0 4d e2  	sub	sp, sp, #16
    9408: 00 00 8d e5  	str	r0, [sp]
    940c: 0c 00 8d e5  	str	r0, [sp, #12]
    9410: 97 02 00 eb  	bl	#2652 <_ZN4core3ptr9const_ptr33_$LT$impl$u20$$BP$const$u20$T$GT$7is_null17h8bf2c1c38017a24bE>
    9414: 04 00 8d e5  	str	r0, [sp, #4]
    9418: ff ff ff ea  	b	#-4 <_ZN4core10intrinsics23is_aligned_and_not_null17hcdf3ab3f95013724E+0x1c>
    941c: 04 00 9d e5  	ldr	r0, [sp, #4]
    9420: 01 00 10 e3  	tst	r0, #1
    9424: 03 00 00 0a  	beq	#12 <_ZN4core10intrinsics23is_aligned_and_not_null17hcdf3ab3f95013724E+0x38>
    9428: ff ff ff ea  	b	#-4 <_ZN4core10intrinsics23is_aligned_and_not_null17hcdf3ab3f95013724E+0x2c>
    942c: 00 00 a0 e3  	mov	r0, #0
    9430: 0b 00 cd e5  	strb	r0, [sp, #11]
    9434: 0d 00 00 ea  	b	#52 <_ZN4core10intrinsics23is_aligned_and_not_null17hcdf3ab3f95013724E+0x70>
    9438: 00 00 9d e5  	ldr	r0, [sp]
    943c: ff ff ff ea  	b	#-4 <_ZN4core10intrinsics23is_aligned_and_not_null17hcdf3ab3f95013724E+0x40>
    9440: 00 00 a0 e3  	mov	r0, #0
    9444: 00 00 50 e3  	cmp	r0, #0
    9448: 03 00 00 1a  	bne	#12 <_ZN4core10intrinsics23is_aligned_and_not_null17hcdf3ab3f95013724E+0x5c>
    944c: ff ff ff ea  	b	#-4 <_ZN4core10intrinsics23is_aligned_and_not_null17hcdf3ab3f95013724E+0x50>
    9450: 01 00 a0 e3  	mov	r0, #1
    9454: 0b 00 cd e5  	strb	r0, [sp, #11]
    9458: 04 00 00 ea  	b	#16 <_ZN4core10intrinsics23is_aligned_and_not_null17hcdf3ab3f95013724E+0x70>
    945c: 18 00 9f e5  	ldr	r0, [pc, #24]
    9460: 18 20 9f e5  	ldr	r2, [pc, #24]
    9464: 39 10 a0 e3  	mov	r1, #57
    9468: 91 0a 00 eb  	bl	#10820 <_ZN4core9panicking5panic17h70f755644c6683e5E>
    946c: fe de ff e7  	trap
    9470: 0b 00 dd e5  	ldrb	r0, [sp, #11]
    9474: 10 d0 8d e2  	add	sp, sp, #16
    9478: 00 88 bd e8  	pop	{r11, pc}

0000947c <$d.405>:
    947c:	70 54 01 00	.word	0x00015470
    9480:	b0 55 01 00	.word	0x000155b0

00009484 <_ZN4core10intrinsics17is_nonoverlapping17hb33c400eb01e2e83E>:
    9484: 00 48 2d e9  	push	{r11, lr}
    9488: 40 d0 4d e2  	sub	sp, sp, #64
    948c: 18 20 8d e5  	str	r2, [sp, #24]
    9490: 28 00 8d e5  	str	r0, [sp, #40]
    9494: 2c 10 8d e5  	str	r1, [sp, #44]
    9498: 30 20 8d e5  	str	r2, [sp, #48]
    949c: 00 20 a0 e1  	mov	r2, r0
    94a0: 1c 20 8d e5  	str	r2, [sp, #28]
    94a4: 34 00 8d e5  	str	r0, [sp, #52]
    94a8: 01 00 a0 e1  	mov	r0, r1
    94ac: 20 00 8d e5  	str	r0, [sp, #32]
    94b0: 38 10 8d e5  	str	r1, [sp, #56]
    94b4: ff ff ff ea  	b	#-4 <_ZN4core10intrinsics17is_nonoverlapping17hb33c400eb01e2e83E+0x34>
    94b8: 18 10 9d e5  	ldr	r1, [sp, #24]
    94bc: 04 00 a0 e3  	mov	r0, #4
    94c0: fa 21 00 eb  	bl	#34792 <_ZN4core3num23_$LT$impl$u20$usize$GT$11checked_mul17hb7ff3cbd0d4cc03cE>
    94c4: 10 00 8d e5  	str	r0, [sp, #16]
    94c8: 14 10 8d e5  	str	r1, [sp, #20]
    94cc: ff ff ff ea  	b	#-4 <_ZN4core10intrinsics17is_nonoverlapping17hb33c400eb01e2e83E+0x4c>
    94d0: 14 10 9d e5  	ldr	r1, [sp, #20]
    94d4: 10 00 9d e5  	ldr	r0, [sp, #16]
    94d8: b8 20 9f e5  	ldr	r2, [pc, #184]
    94dc: 23 09 00 eb  	bl	#9356 <_ZN4core6option15Option$LT$T$GT$6unwrap17hd6e3fde6ca0fdbbcE>
    94e0: 00 10 a0 e1  	mov	r1, r0
    94e4: 0c 10 8d e5  	str	r1, [sp, #12]
    94e8: 3c 00 8d e5  	str	r0, [sp, #60]
    94ec: ff ff ff ea  	b	#-4 <_ZN4core10intrinsics17is_nonoverlapping17hb33c400eb01e2e83E+0x6c>
    94f0: 1c 00 9d e5  	ldr	r0, [sp, #28]
    94f4: 20 10 9d e5  	ldr	r1, [sp, #32]
    94f8: 01 00 50 e1  	cmp	r0, r1
    94fc: 07 00 00 8a  	bhi	#28 <_ZN4core10intrinsics17is_nonoverlapping17hb33c400eb01e2e83E+0x9c>
    9500: ff ff ff ea  	b	#-4 <_ZN4core10intrinsics17is_nonoverlapping17hb33c400eb01e2e83E+0x80>
    9504: 20 00 9d e5  	ldr	r0, [sp, #32]
    9508: 1c 10 9d e5  	ldr	r1, [sp, #28]
    950c: 01 20 40 e0  	sub	r2, r0, r1
    9510: 08 20 8d e5  	str	r2, [sp, #8]
    9514: 01 00 50 e1  	cmp	r0, r1
    9518: 19 00 00 3a  	blo	#100 <_ZN4core10intrinsics17is_nonoverlapping17hb33c400eb01e2e83E+0x100>
    951c: 15 00 00 ea  	b	#84 <_ZN4core10intrinsics17is_nonoverlapping17hb33c400eb01e2e83E+0xf4>
    9520: 1c 00 9d e5  	ldr	r0, [sp, #28]
    9524: 20 10 9d e5  	ldr	r1, [sp, #32]
    9528: 01 20 40 e0  	sub	r2, r0, r1
    952c: 04 20 8d e5  	str	r2, [sp, #4]
    9530: 01 00 50 e1  	cmp	r0, r1
    9534: 03 00 00 3a  	blo	#12 <_ZN4core10intrinsics17is_nonoverlapping17hb33c400eb01e2e83E+0xc4>
    9538: ff ff ff ea  	b	#-4 <_ZN4core10intrinsics17is_nonoverlapping17hb33c400eb01e2e83E+0xb8>
    953c: 04 00 9d e5  	ldr	r0, [sp, #4]
    9540: 24 00 8d e5  	str	r0, [sp, #36]
    9544: 04 00 00 ea  	b	#16 <_ZN4core10intrinsics17is_nonoverlapping17hb33c400eb01e2e83E+0xd8>
    9548: 4c 00 9f e5  	ldr	r0, [pc, #76]
    954c: 50 20 9f e5  	ldr	r2, [pc, #80]
    9550: 21 10 a0 e3  	mov	r1, #33
    9554: 56 0a 00 eb  	bl	#10584 <_ZN4core9panicking5panic17h70f755644c6683e5E>
    9558: fe de ff e7  	trap
    955c: 0c 20 9d e5  	ldr	r2, [sp, #12]
    9560: 24 10 9d e5  	ldr	r1, [sp, #36]
    9564: 00 00 a0 e3  	mov	r0, #0
    9568: 02 00 51 e1  	cmp	r1, r2
    956c: 01 00 a0 23  	movhs	r0, #1
    9570: 40 d0 8d e2  	add	sp, sp, #64
    9574: 00 88 bd e8  	pop	{r11, pc}
    9578: 08 00 9d e5  	ldr	r0, [sp, #8]
    957c: 24 00 8d e5  	str	r0, [sp, #36]
    9580: f5 ff ff ea  	b	#-44 <_ZN4core10intrinsics17is_nonoverlapping17hb33c400eb01e2e83E+0xd8>
    9584: 10 00 9f e5  	ldr	r0, [pc, #16]
    9588: 10 20 9f e5  	ldr	r2, [pc, #16]
    958c: 21 10 a0 e3  	mov	r1, #33
    9590: 47 0a 00 eb  	bl	#10524 <_ZN4core9panicking5panic17h70f755644c6683e5E>
    9594: fe de ff e7  	trap

00009598 <$d.407>:
    9598:	c0 55 01 00	.word	0x000155c0
    959c:	d0 51 01 00	.word	0x000151d0
    95a0:	e0 55 01 00	.word	0x000155e0
    95a4:	d0 55 01 00	.word	0x000155d0

000095a8 <_ZN4core10intrinsics17is_nonoverlapping17hbdfdb020c59df781E>:
    95a8: 00 48 2d e9  	push	{r11, lr}
    95ac: 40 d0 4d e2  	sub	sp, sp, #64
    95b0: 18 20 8d e5  	str	r2, [sp, #24]
    95b4: 28 00 8d e5  	str	r0, [sp, #40]
    95b8: 2c 10 8d e5  	str	r1, [sp, #44]
    95bc: 30 20 8d e5  	str	r2, [sp, #48]
    95c0: 00 20 a0 e1  	mov	r2, r0
    95c4: 1c 20 8d e5  	str	r2, [sp, #28]
    95c8: 34 00 8d e5  	str	r0, [sp, #52]
    95cc: 01 00 a0 e1  	mov	r0, r1
    95d0: 20 00 8d e5  	str	r0, [sp, #32]
    95d4: 38 10 8d e5  	str	r1, [sp, #56]
    95d8: ff ff ff ea  	b	#-4 <_ZN4core10intrinsics17is_nonoverlapping17hbdfdb020c59df781E+0x34>
    95dc: 18 10 9d e5  	ldr	r1, [sp, #24]
    95e0: 01 00 a0 e3  	mov	r0, #1
    95e4: b1 21 00 eb  	bl	#34500 <_ZN4core3num23_$LT$impl$u20$usize$GT$11checked_mul17hb7ff3cbd0d4cc03cE>
    95e8: 10 00 8d e5  	str	r0, [sp, #16]
    95ec: 14 10 8d e5  	str	r1, [sp, #20]
    95f0: ff ff ff ea  	b	#-4 <_ZN4core10intrinsics17is_nonoverlapping17hbdfdb020c59df781E+0x4c>
    95f4: 14 10 9d e5  	ldr	r1, [sp, #20]
    95f8: 10 00 9d e5  	ldr	r0, [sp, #16]
    95fc: b8 20 9f e5  	ldr	r2, [pc, #184]
    9600: da 08 00 eb  	bl	#9064 <_ZN4core6option15Option$LT$T$GT$6unwrap17hd6e3fde6ca0fdbbcE>
    9604: 00 10 a0 e1  	mov	r1, r0
    9608: 0c 10 8d e5  	str	r1, [sp, #12]
    960c: 3c 00 8d e5  	str	r0, [sp, #60]
    9610: ff ff ff ea  	b	#-4 <_ZN4core10intrinsics17is_nonoverlapping17hbdfdb020c59df781E+0x6c>
    9614: 1c 00 9d e5  	ldr	r0, [sp, #28]
    9618: 20 10 9d e5  	ldr	r1, [sp, #32]
    961c: 01 00 50 e1  	cmp	r0, r1
    9620: 07 00 00 8a  	bhi	#28 <_ZN4core10intrinsics17is_nonoverlapping17hbdfdb020c59df781E+0x9c>
    9624: ff ff ff ea  	b	#-4 <_ZN4core10intrinsics17is_nonoverlapping17hbdfdb020c59df781E+0x80>
    9628: 20 00 9d e5  	ldr	r0, [sp, #32]
    962c: 1c 10 9d e5  	ldr	r1, [sp, #28]
    9630: 01 20 40 e0  	sub	r2, r0, r1
    9634: 08 20 8d e5  	str	r2, [sp, #8]
    9638: 01 00 50 e1  	cmp	r0, r1
    963c: 19 00 00 3a  	blo	#100 <_ZN4core10intrinsics17is_nonoverlapping17hbdfdb020c59df781E+0x100>
    9640: 15 00 00 ea  	b	#84 <_ZN4core10intrinsics17is_nonoverlapping17hbdfdb020c59df781E+0xf4>
    9644: 1c 00 9d e5  	ldr	r0, [sp, #28]
    9648: 20 10 9d e5  	ldr	r1, [sp, #32]
    964c: 01 20 40 e0  	sub	r2, r0, r1
    9650: 04 20 8d e5  	str	r2, [sp, #4]
    9654: 01 00 50 e1  	cmp	r0, r1
    9658: 03 00 00 3a  	blo	#12 <_ZN4core10intrinsics17is_nonoverlapping17hbdfdb020c59df781E+0xc4>
    965c: ff ff ff ea  	b	#-4 <_ZN4core10intrinsics17is_nonoverlapping17hbdfdb020c59df781E+0xb8>
    9660: 04 00 9d e5  	ldr	r0, [sp, #4]
    9664: 24 00 8d e5  	str	r0, [sp, #36]
    9668: 04 00 00 ea  	b	#16 <_ZN4core10intrinsics17is_nonoverlapping17hbdfdb020c59df781E+0xd8>
    966c: 4c 00 9f e5  	ldr	r0, [pc, #76]
    9670: 50 20 9f e5  	ldr	r2, [pc, #80]
    9674: 21 10 a0 e3  	mov	r1, #33
    9678: 0d 0a 00 eb  	bl	#10292 <_ZN4core9panicking5panic17h70f755644c6683e5E>
    967c: fe de ff e7  	trap
    9680: 0c 20 9d e5  	ldr	r2, [sp, #12]
    9684: 24 10 9d e5  	ldr	r1, [sp, #36]
    9688: 00 00 a0 e3  	mov	r0, #0
    968c: 02 00 51 e1  	cmp	r1, r2
    9690: 01 00 a0 23  	movhs	r0, #1
    9694: 40 d0 8d e2  	add	sp, sp, #64
    9698: 00 88 bd e8  	pop	{r11, pc}
    969c: 08 00 9d e5  	ldr	r0, [sp, #8]
    96a0: 24 00 8d e5  	str	r0, [sp, #36]
    96a4: f5 ff ff ea  	b	#-44 <_ZN4core10intrinsics17is_nonoverlapping17hbdfdb020c59df781E+0xd8>
    96a8: 10 00 9f e5  	ldr	r0, [pc, #16]
    96ac: 10 20 9f e5  	ldr	r2, [pc, #16]
    96b0: 21 10 a0 e3  	mov	r1, #33
    96b4: fe 09 00 eb  	bl	#10232 <_ZN4core9panicking5panic17h70f755644c6683e5E>
    96b8: fe de ff e7  	trap

000096bc <$d.409>:
    96bc:	c0 55 01 00	.word	0x000155c0
    96c0:	d0 51 01 00	.word	0x000151d0
    96c4:	e0 55 01 00	.word	0x000155e0
    96c8:	d0 55 01 00	.word	0x000155d0

000096cc <_ZN4core10intrinsics19copy_nonoverlapping17h0629c929e1c61b12E>:
    96cc: 00 48 2d e9  	push	{r11, lr}
    96d0: 28 d0 4d e2  	sub	sp, sp, #40
    96d4: 04 20 8d e5  	str	r2, [sp, #4]
    96d8: 08 10 8d e5  	str	r1, [sp, #8]
    96dc: 0c 00 8d e5  	str	r0, [sp, #12]
    96e0: 1c 00 8d e5  	str	r0, [sp, #28]
    96e4: 20 10 8d e5  	str	r1, [sp, #32]
    96e8: 24 20 8d e5  	str	r2, [sp, #36]
    96ec: 10 00 8d e5  	str	r0, [sp, #16]
    96f0: 14 10 8d e5  	str	r1, [sp, #20]
    96f4: 18 20 8d e5  	str	r2, [sp, #24]
    96f8: 10 00 8d e2  	add	r0, sp, #16
    96fc: c6 00 00 eb  	bl	#792 <_ZN4core10intrinsics17const_eval_select17h68e7ef67a5102aecE>
    9700: ff ff ff ea  	b	#-4 <_ZN4core10intrinsics19copy_nonoverlapping17h0629c929e1c61b12E+0x38>
    9704: 0c 10 9d e5  	ldr	r1, [sp, #12]
    9708: 08 00 9d e5  	ldr	r0, [sp, #8]
    970c: 04 20 9d e5  	ldr	r2, [sp, #4]
    9710: 02 21 a0 e1  	lsl	r2, r2, #2
    9714: 0b 2a 00 eb  	bl	#43052 <__aeabi_memcpy4>
    9718: 28 d0 8d e2  	add	sp, sp, #40
    971c: 00 88 bd e8  	pop	{r11, pc}

00009720 <_ZN4core10intrinsics19copy_nonoverlapping17hb935fbdf8fc9b991E>:
    9720: 00 48 2d e9  	push	{r11, lr}
    9724: 28 d0 4d e2  	sub	sp, sp, #40
    9728: 04 20 8d e5  	str	r2, [sp, #4]
    972c: 08 10 8d e5  	str	r1, [sp, #8]
    9730: 0c 00 8d e5  	str	r0, [sp, #12]
    9734: 1c 00 8d e5  	str	r0, [sp, #28]
    9738: 20 10 8d e5  	str	r1, [sp, #32]
    973c: 24 20 8d e5  	str	r2, [sp, #36]
    9740: 10 00 8d e5  	str	r0, [sp, #16]
    9744: 14 10 8d e5  	str	r1, [sp, #20]
    9748: 18 20 8d e5  	str	r2, [sp, #24]
    974c: 10 00 8d e2  	add	r0, sp, #16
    9750: d2 00 00 eb  	bl	#840 <_ZN4core10intrinsics17const_eval_select17hb0822b569c9aeb4cE>
    9754: ff ff ff ea  	b	#-4 <_ZN4core10intrinsics19copy_nonoverlapping17hb935fbdf8fc9b991E+0x38>
    9758: 04 20 9d e5  	ldr	r2, [sp, #4]
    975c: 0c 10 9d e5  	ldr	r1, [sp, #12]
    9760: 08 00 9d e5  	ldr	r0, [sp, #8]
    9764: ee 29 00 eb  	bl	#42936 <__aeabi_memcpy>
    9768: 28 d0 8d e2  	add	sp, sp, #40
    976c: 00 88 bd e8  	pop	{r11, pc}

00009770 <_ZN4core10intrinsics19copy_nonoverlapping13runtime_check17h04ce58f9c314a303E>:
    9770: 00 48 2d e9  	push	{r11, lr}
    9774: 28 d0 4d e2  	sub	sp, sp, #40
    9778: 08 20 8d e5  	str	r2, [sp, #8]
    977c: 0c 10 8d e5  	str	r1, [sp, #12]
    9780: 10 00 8d e5  	str	r0, [sp, #16]
    9784: 1c 00 8d e5  	str	r0, [sp, #28]
    9788: 20 10 8d e5  	str	r1, [sp, #32]
    978c: 24 20 8d e5  	str	r2, [sp, #36]
    9790: f5 fe ff eb  	bl	#-1068 <_ZN4core10intrinsics23is_aligned_and_not_null17h6209c0cd9c9d888aE>
    9794: 14 00 8d e5  	str	r0, [sp, #20]
    9798: ff ff ff ea  	b	#-4 <_ZN4core10intrinsics19copy_nonoverlapping13runtime_check17h04ce58f9c314a303E+0x2c>
    979c: 14 00 9d e5  	ldr	r0, [sp, #20]
    97a0: 01 00 10 e3  	tst	r0, #1
    97a4: 04 00 00 0a  	beq	#16 <_ZN4core10intrinsics19copy_nonoverlapping13runtime_check17h04ce58f9c314a303E+0x4c>
    97a8: ff ff ff ea  	b	#-4 <_ZN4core10intrinsics19copy_nonoverlapping13runtime_check17h04ce58f9c314a303E+0x3c>
    97ac: 0c 00 9d e5  	ldr	r0, [sp, #12]
    97b0: ed fe ff eb  	bl	#-1100 <_ZN4core10intrinsics23is_aligned_and_not_null17h6209c0cd9c9d888aE>
    97b4: 04 00 8d e5  	str	r0, [sp, #4]
    97b8: 06 00 00 ea  	b	#24 <_ZN4core10intrinsics19copy_nonoverlapping13runtime_check17h04ce58f9c314a303E+0x68>
    97bc: 01 00 a0 e3  	mov	r0, #1
    97c0: 1b 00 cd e5  	strb	r0, [sp, #27]
    97c4: ff ff ff ea  	b	#-4 <_ZN4core10intrinsics19copy_nonoverlapping13runtime_check17h04ce58f9c314a303E+0x58>
    97c8: 1b 00 dd e5  	ldrb	r0, [sp, #27]
    97cc: 01 00 10 e3  	tst	r0, #1
    97d0: 0b 00 00 1a  	bne	#44 <_ZN4core10intrinsics19copy_nonoverlapping13runtime_check17h04ce58f9c314a303E+0x94>
    97d4: 04 00 00 ea  	b	#16 <_ZN4core10intrinsics19copy_nonoverlapping13runtime_check17h04ce58f9c314a303E+0x7c>
    97d8: 04 10 9d e5  	ldr	r1, [sp, #4]
    97dc: 01 00 a0 e3  	mov	r0, #1
    97e0: 01 00 c0 e1  	bic	r0, r0, r1
    97e4: 1b 00 cd e5  	strb	r0, [sp, #27]
    97e8: f6 ff ff ea  	b	#-40 <_ZN4core10intrinsics19copy_nonoverlapping13runtime_check17h04ce58f9c314a303E+0x58>
    97ec: 08 20 9d e5  	ldr	r2, [sp, #8]
    97f0: 0c 10 9d e5  	ldr	r1, [sp, #12]
    97f4: 10 00 9d e5  	ldr	r0, [sp, #16]
    97f8: 21 ff ff eb  	bl	#-892 <_ZN4core10intrinsics17is_nonoverlapping17hb33c400eb01e2e83E>
    97fc: 00 00 8d e5  	str	r0, [sp]
    9800: 06 00 00 ea  	b	#24 <_ZN4core10intrinsics19copy_nonoverlapping13runtime_check17h04ce58f9c314a303E+0xb0>
    9804: 01 00 a0 e3  	mov	r0, #1
    9808: 1a 00 cd e5  	strb	r0, [sp, #26]
    980c: ff ff ff ea  	b	#-4 <_ZN4core10intrinsics19copy_nonoverlapping13runtime_check17h04ce58f9c314a303E+0xa0>
    9810: 1a 00 dd e5  	ldrb	r0, [sp, #26]
    9814: 01 00 10 e3  	tst	r0, #1
    9818: 07 00 00 1a  	bne	#28 <_ZN4core10intrinsics19copy_nonoverlapping13runtime_check17h04ce58f9c314a303E+0xcc>
    981c: 04 00 00 ea  	b	#16 <_ZN4core10intrinsics19copy_nonoverlapping13runtime_check17h04ce58f9c314a303E+0xc4>
    9820: 00 10 9d e5  	ldr	r1, [sp]
    9824: 01 00 a0 e3  	mov	r0, #1
    9828: 01 00 c0 e1  	bic	r0, r0, r1
    982c: 1a 00 cd e5  	strb	r0, [sp, #26]
    9830: f6 ff ff ea  	b	#-40 <_ZN4core10intrinsics19copy_nonoverlapping13runtime_check17h04ce58f9c314a303E+0xa0>
    9834: 28 d0 8d e2  	add	sp, sp, #40
    9838: 00 88 bd e8  	pop	{r11, pc}
    983c: fe de ff e7  	trap
    9840: fe de ff e7  	trap

00009844 <_ZN4core10intrinsics19copy_nonoverlapping13runtime_check17h200abbf7d42fd906E>:
    9844: 00 48 2d e9  	push	{r11, lr}
    9848: 28 d0 4d e2  	sub	sp, sp, #40
    984c: 08 20 8d e5  	str	r2, [sp, #8]
    9850: 0c 10 8d e5  	str	r1, [sp, #12]
    9854: 10 00 8d e5  	str	r0, [sp, #16]
    9858: 1c 00 8d e5  	str	r0, [sp, #28]
    985c: 20 10 8d e5  	str	r1, [sp, #32]
    9860: 24 20 8d e5  	str	r2, [sp, #36]
    9864: e5 fe ff eb  	bl	#-1132 <_ZN4core10intrinsics23is_aligned_and_not_null17hcdf3ab3f95013724E>
    9868: 14 00 8d e5  	str	r0, [sp, #20]
    986c: ff ff ff ea  	b	#-4 <_ZN4core10intrinsics19copy_nonoverlapping13runtime_check17h200abbf7d42fd906E+0x2c>
    9870: 14 00 9d e5  	ldr	r0, [sp, #20]
    9874: 01 00 10 e3  	tst	r0, #1
    9878: 04 00 00 0a  	beq	#16 <_ZN4core10intrinsics19copy_nonoverlapping13runtime_check17h200abbf7d42fd906E+0x4c>
    987c: ff ff ff ea  	b	#-4 <_ZN4core10intrinsics19copy_nonoverlapping13runtime_check17h200abbf7d42fd906E+0x3c>
    9880: 0c 00 9d e5  	ldr	r0, [sp, #12]
    9884: dd fe ff eb  	bl	#-1164 <_ZN4core10intrinsics23is_aligned_and_not_null17hcdf3ab3f95013724E>
    9888: 04 00 8d e5  	str	r0, [sp, #4]
    988c: 06 00 00 ea  	b	#24 <_ZN4core10intrinsics19copy_nonoverlapping13runtime_check17h200abbf7d42fd906E+0x68>
    9890: 01 00 a0 e3  	mov	r0, #1
    9894: 1b 00 cd e5  	strb	r0, [sp, #27]
    9898: ff ff ff ea  	b	#-4 <_ZN4core10intrinsics19copy_nonoverlapping13runtime_check17h200abbf7d42fd906E+0x58>
    989c: 1b 00 dd e5  	ldrb	r0, [sp, #27]
    98a0: 01 00 10 e3  	tst	r0, #1
    98a4: 0b 00 00 1a  	bne	#44 <_ZN4core10intrinsics19copy_nonoverlapping13runtime_check17h200abbf7d42fd906E+0x94>
    98a8: 04 00 00 ea  	b	#16 <_ZN4core10intrinsics19copy_nonoverlapping13runtime_check17h200abbf7d42fd906E+0x7c>
    98ac: 04 10 9d e5  	ldr	r1, [sp, #4]
    98b0: 01 00 a0 e3  	mov	r0, #1
    98b4: 01 00 c0 e1  	bic	r0, r0, r1
    98b8: 1b 00 cd e5  	strb	r0, [sp, #27]
    98bc: f6 ff ff ea  	b	#-40 <_ZN4core10intrinsics19copy_nonoverlapping13runtime_check17h200abbf7d42fd906E+0x58>
    98c0: 08 20 9d e5  	ldr	r2, [sp, #8]
    98c4: 0c 10 9d e5  	ldr	r1, [sp, #12]
    98c8: 10 00 9d e5  	ldr	r0, [sp, #16]
    98cc: 35 ff ff eb  	bl	#-812 <_ZN4core10intrinsics17is_nonoverlapping17hbdfdb020c59df781E>
    98d0: 00 00 8d e5  	str	r0, [sp]
    98d4: 06 00 00 ea  	b	#24 <_ZN4core10intrinsics19copy_nonoverlapping13runtime_check17h200abbf7d42fd906E+0xb0>
    98d8: 01 00 a0 e3  	mov	r0, #1
    98dc: 1a 00 cd e5  	strb	r0, [sp, #26]
    98e0: ff ff ff ea  	b	#-4 <_ZN4core10intrinsics19copy_nonoverlapping13runtime_check17h200abbf7d42fd906E+0xa0>
    98e4: 1a 00 dd e5  	ldrb	r0, [sp, #26]
    98e8: 01 00 10 e3  	tst	r0, #1
    98ec: 07 00 00 1a  	bne	#28 <_ZN4core10intrinsics19copy_nonoverlapping13runtime_check17h200abbf7d42fd906E+0xcc>
    98f0: 04 00 00 ea  	b	#16 <_ZN4core10intrinsics19copy_nonoverlapping13runtime_check17h200abbf7d42fd906E+0xc4>
    98f4: 00 10 9d e5  	ldr	r1, [sp]
    98f8: 01 00 a0 e3  	mov	r0, #1
    98fc: 01 00 c0 e1  	bic	r0, r0, r1
    9900: 1a 00 cd e5  	strb	r0, [sp, #26]
    9904: f6 ff ff ea  	b	#-40 <_ZN4core10intrinsics19copy_nonoverlapping13runtime_check17h200abbf7d42fd906E+0xa0>
    9908: 28 d0 8d e2  	add	sp, sp, #40
    990c: 00 88 bd e8  	pop	{r11, pc}
    9910: fe de ff e7  	trap
    9914: fe de ff e7  	trap

00009918 <_ZN4core10intrinsics11write_bytes17h5e8a1fcfeef63718E>:
    9918: 00 48 2d e9  	push	{r11, lr}
    991c: 20 d0 4d e2  	sub	sp, sp, #32
    9920: 04 20 8d e5  	str	r2, [sp, #4]
    9924: 08 00 8d e5  	str	r0, [sp, #8]
    9928: 01 30 a0 e1  	mov	r3, r1
    992c: 0c 30 8d e5  	str	r3, [sp, #12]
    9930: 14 00 8d e5  	str	r0, [sp, #20]
    9934: 1b 10 cd e5  	strb	r1, [sp, #27]
    9938: 1c 20 8d e5  	str	r2, [sp, #28]
    993c: 10 00 8d e5  	str	r0, [sp, #16]
    9940: 10 00 9d e5  	ldr	r0, [sp, #16]
    9944: 24 00 00 eb  	bl	#144 <_ZN4core10intrinsics17const_eval_select17h015b543c3f81d79cE>
    9948: ff ff ff ea  	b	#-4 <_ZN4core10intrinsics11write_bytes17h5e8a1fcfeef63718E+0x34>
    994c: 04 10 9d e5  	ldr	r1, [sp, #4]
    9950: 08 00 9d e5  	ldr	r0, [sp, #8]
    9954: 0c 20 9d e5  	ldr	r2, [sp, #12]
    9958: 72 20 ef e6  	uxtb	r2, r2
    995c: b6 29 00 eb  	bl	#42712 <__aeabi_memset>
    9960: ff ff ff ea  	b	#-4 <_ZN4core10intrinsics11write_bytes17h5e8a1fcfeef63718E+0x4c>
    9964: 20 d0 8d e2  	add	sp, sp, #32
    9968: 00 88 bd e8  	pop	{r11, pc}

0000996c <_ZN4core10intrinsics11write_bytes13runtime_check17h676bfc7336c4bd8cE>:
    996c: 00 48 2d e9  	push	{r11, lr}
    9970: 28 d0 4d e2  	sub	sp, sp, #40
    9974: 24 00 8d e5  	str	r0, [sp, #36]
    9978: a0 fe ff eb  	bl	#-1408 <_ZN4core10intrinsics23is_aligned_and_not_null17hcdf3ab3f95013724E>
    997c: 08 00 8d e5  	str	r0, [sp, #8]
    9980: ff ff ff ea  	b	#-4 <_ZN4core10intrinsics11write_bytes13runtime_check17h676bfc7336c4bd8cE+0x18>
    9984: 08 00 9d e5  	ldr	r0, [sp, #8]
    9988: 01 00 10 e3  	tst	r0, #1
    998c: 02 00 00 0a  	beq	#8 <_ZN4core10intrinsics11write_bytes13runtime_check17h676bfc7336c4bd8cE+0x30>
    9990: ff ff ff ea  	b	#-4 <_ZN4core10intrinsics11write_bytes13runtime_check17h676bfc7336c4bd8cE+0x28>
    9994: 28 d0 8d e2  	add	sp, sp, #40
    9998: 00 88 bd e8  	pop	{r11, pc}
    999c: 0d 10 a0 e1  	mov	r1, sp
    99a0: 00 00 a0 e3  	mov	r0, #0
    99a4: 00 00 81 e5  	str	r0, [r1]
    99a8: 20 10 9f e5  	ldr	r1, [pc, #32]
    99ac: 20 30 9f e5  	ldr	r3, [pc, #32]
    99b0: 0c 00 8d e2  	add	r0, sp, #12
    99b4: 01 20 a0 e3  	mov	r2, #1
    99b8: 9f 0d 00 eb  	bl	#13948 <_ZN4core3fmt9Arguments6new_v117hd47ebd6f67dc7416E>
    99bc: ff ff ff ea  	b	#-4 <_ZN4core10intrinsics11write_bytes13runtime_check17h676bfc7336c4bd8cE+0x54>
    99c0: 10 10 9f e5  	ldr	r1, [pc, #16]
    99c4: 0c 00 8d e2  	add	r0, sp, #12
    99c8: 70 09 00 eb  	bl	#9664 <_ZN4core9panicking9panic_fmt17h22cd6c9efa5fe474E>
    99cc: fe de ff e7  	trap

000099d0 <$d.416>:
    99d0:	20 56 01 00	.word	0x00015620
    99d4:	38 55 01 00	.word	0x00015538
    99d8:	28 56 01 00	.word	0x00015628

000099dc <_ZN4core10intrinsics17const_eval_select17h015b543c3f81d79cE>:
    99dc: 00 48 2d e9  	push	{r11, lr}
    99e0: 10 d0 4d e2  	sub	sp, sp, #16
    99e4: 04 00 8d e5  	str	r0, [sp, #4]
    99e8: e2 fd ff eb  	bl	#-2168 <_ZN4core3ops8function6FnOnce9call_once17h0b830900cfc8e13fE>
    99ec: ff ff ff ea  	b	#-4 <_ZN4core10intrinsics17const_eval_select17h015b543c3f81d79cE+0x14>
    99f0: ff ff ff ea  	b	#-4 <_ZN4core10intrinsics17const_eval_select17h015b543c3f81d79cE+0x18>
    99f4: 10 d0 8d e2  	add	sp, sp, #16
    99f8: 00 88 bd e8  	pop	{r11, pc}

000099fc <_ZN4core10intrinsics17const_eval_select17h41fe6b117cd2cd5aE>:
    99fc: 00 48 2d e9  	push	{r11, lr}
    9a00: 10 d0 4d e2  	sub	sp, sp, #16
    9a04: 04 00 8d e5  	str	r0, [sp, #4]
    9a08: 05 fe ff eb  	bl	#-2028 <_ZN4core3ops8function6FnOnce9call_once17hca23baf9ed158dd8E>
    9a0c: ff ff ff ea  	b	#-4 <_ZN4core10intrinsics17const_eval_select17h41fe6b117cd2cd5aE+0x14>
    9a10: ff ff ff ea  	b	#-4 <_ZN4core10intrinsics17const_eval_select17h41fe6b117cd2cd5aE+0x18>
    9a14: 10 d0 8d e2  	add	sp, sp, #16
    9a18: 00 88 bd e8  	pop	{r11, pc}

00009a1c <_ZN4core10intrinsics17const_eval_select17h68e7ef67a5102aecE>:
    9a1c: 00 48 2d e9  	push	{r11, lr}
    9a20: 18 d0 4d e2  	sub	sp, sp, #24
    9a24: 00 20 a0 e1  	mov	r2, r0
    9a28: 00 00 92 e5  	ldr	r0, [r2]
    9a2c: 04 10 92 e5  	ldr	r1, [r2, #4]
    9a30: 08 20 92 e5  	ldr	r2, [r2, #8]
    9a34: 0c 20 8d e5  	str	r2, [sp, #12]
    9a38: 08 10 8d e5  	str	r1, [sp, #8]
    9a3c: 04 00 8d e5  	str	r0, [sp, #4]
    9a40: 04 00 9d e5  	ldr	r0, [sp, #4]
    9a44: 08 10 9d e5  	ldr	r1, [sp, #8]
    9a48: 0c 20 9d e5  	ldr	r2, [sp, #12]
    9a4c: bd fd ff eb  	bl	#-2316 <_ZN4core3ops8function6FnOnce9call_once17h02077f446692cad1E>
    9a50: ff ff ff ea  	b	#-4 <_ZN4core10intrinsics17const_eval_select17h68e7ef67a5102aecE+0x38>
    9a54: ff ff ff ea  	b	#-4 <_ZN4core10intrinsics17const_eval_select17h68e7ef67a5102aecE+0x3c>
    9a58: 18 d0 8d e2  	add	sp, sp, #24
    9a5c: 00 88 bd e8  	pop	{r11, pc}

00009a60 <_ZN4core10intrinsics17const_eval_select17h8009a97f66a39950E>:
    9a60: 00 48 2d e9  	push	{r11, lr}
    9a64: 10 d0 4d e2  	sub	sp, sp, #16
    9a68: 04 00 8d e5  	str	r0, [sp, #4]
    9a6c: 00 fe ff eb  	bl	#-2048 <_ZN4core3ops8function6FnOnce9call_once17hef1f5979641ae403E>
    9a70: ff ff ff ea  	b	#-4 <_ZN4core10intrinsics17const_eval_select17h8009a97f66a39950E+0x14>
    9a74: ff ff ff ea  	b	#-4 <_ZN4core10intrinsics17const_eval_select17h8009a97f66a39950E+0x18>
    9a78: 10 d0 8d e2  	add	sp, sp, #16
    9a7c: 00 88 bd e8  	pop	{r11, pc}

00009a80 <_ZN4core10intrinsics17const_eval_select17ha3ffe22ae3a1c2f8E>:
    9a80: 00 48 2d e9  	push	{r11, lr}
    9a84: 10 d0 4d e2  	sub	sp, sp, #16
    9a88: 04 00 8d e5  	str	r0, [sp, #4]
    9a8c: dc fd ff eb  	bl	#-2192 <_ZN4core3ops8function6FnOnce9call_once17had4262aec2f581dfE>
    9a90: ff ff ff ea  	b	#-4 <_ZN4core10intrinsics17const_eval_select17ha3ffe22ae3a1c2f8E+0x14>
    9a94: ff ff ff ea  	b	#-4 <_ZN4core10intrinsics17const_eval_select17ha3ffe22ae3a1c2f8E+0x18>
    9a98: 10 d0 8d e2  	add	sp, sp, #16
    9a9c: 00 88 bd e8  	pop	{r11, pc}

00009aa0 <_ZN4core10intrinsics17const_eval_select17hb0822b569c9aeb4cE>:
    9aa0: 00 48 2d e9  	push	{r11, lr}
    9aa4: 18 d0 4d e2  	sub	sp, sp, #24
    9aa8: 00 20 a0 e1  	mov	r2, r0
    9aac: 00 00 92 e5  	ldr	r0, [r2]
    9ab0: 04 10 92 e5  	ldr	r1, [r2, #4]
    9ab4: 08 20 92 e5  	ldr	r2, [r2, #8]
    9ab8: 0c 20 8d e5  	str	r2, [sp, #12]
    9abc: 08 10 8d e5  	str	r1, [sp, #8]
    9ac0: 04 00 8d e5  	str	r0, [sp, #4]
    9ac4: 04 00 9d e5  	ldr	r0, [sp, #4]
    9ac8: 08 10 9d e5  	ldr	r1, [sp, #8]
    9acc: 0c 20 9d e5  	ldr	r2, [sp, #12]
    9ad0: b0 fd ff eb  	bl	#-2368 <_ZN4core3ops8function6FnOnce9call_once17h10c329ac813edc41E>
    9ad4: ff ff ff ea  	b	#-4 <_ZN4core10intrinsics17const_eval_select17hb0822b569c9aeb4cE+0x38>
    9ad8: ff ff ff ea  	b	#-4 <_ZN4core10intrinsics17const_eval_select17hb0822b569c9aeb4cE+0x3c>
    9adc: 18 d0 8d e2  	add	sp, sp, #24
    9ae0: 00 88 bd e8  	pop	{r11, pc}

00009ae4 <_ZN4core3mem4swap17h452343371b57d963E>:
    9ae4: 00 48 2d e9  	push	{r11, lr}
    9ae8: 08 d0 4d e2  	sub	sp, sp, #8
    9aec: 00 00 8d e5  	str	r0, [sp]
    9af0: 04 10 8d e5  	str	r1, [sp, #4]
    9af4: 2e 02 00 eb  	bl	#2232 <_ZN4core3ptr23swap_nonoverlapping_one17h067d40ae001e0b5fE>
    9af8: ff ff ff ea  	b	#-4 <_ZN4core3mem4swap17h452343371b57d963E+0x18>
    9afc: 08 d0 8d e2  	add	sp, sp, #8
    9b00: 00 88 bd e8  	pop	{r11, pc}

00009b04 <_ZN4core3mem7replace17h517b6fe9151f1a70E>:
    9b04: 00 48 2d e9  	push	{r11, lr}
    9b08: 18 d0 4d e2  	sub	sp, sp, #24
    9b0c: 04 00 8d e5  	str	r0, [sp, #4]
    9b10: 01 20 a0 e1  	mov	r2, r1
    9b14: 08 20 8d e5  	str	r2, [sp, #8]
    9b18: 10 00 8d e5  	str	r0, [sp, #16]
    9b1c: 16 10 cd e5  	strb	r1, [sp, #22]
    9b20: 13 03 00 eb  	bl	#3148 <_ZN4core3ptr4read17h82833b6a1cadad05E>
    9b24: 70 00 ef e6  	uxtb	r0, r0
    9b28: 00 10 a0 e1  	mov	r1, r0
    9b2c: 0c 10 8d e5  	str	r1, [sp, #12]
    9b30: 17 00 cd e5  	strb	r0, [sp, #23]
    9b34: ff ff ff ea  	b	#-4 <_ZN4core3mem7replace17h517b6fe9151f1a70E+0x34>
    9b38: 08 10 9d e5  	ldr	r1, [sp, #8]
    9b3c: 04 00 9d e5  	ldr	r0, [sp, #4]
    9b40: 20 03 00 eb  	bl	#3200 <_ZN4core3ptr5write17h41ed2670b0606b5fE>
    9b44: ff ff ff ea  	b	#-4 <_ZN4core3mem7replace17h517b6fe9151f1a70E+0x44>
    9b48: 0c 00 9d e5  	ldr	r0, [sp, #12]
    9b4c: 18 d0 8d e2  	add	sp, sp, #24
    9b50: 00 88 bd e8  	pop	{r11, pc}

00009b54 <_ZN4core3mem7replace17h597251809dff5828E>:
    9b54: 00 48 2d e9  	push	{r11, lr}
    9b58: 18 d0 4d e2  	sub	sp, sp, #24
    9b5c: 00 10 8d e5  	str	r1, [sp]
    9b60: 04 00 8d e5  	str	r0, [sp, #4]
    9b64: 0c 00 8d e5  	str	r0, [sp, #12]
    9b68: 10 10 8d e5  	str	r1, [sp, #16]
    9b6c: d8 02 00 eb  	bl	#2912 <_ZN4core3ptr4read17h19ff7a152842ec41E>
    9b70: 00 10 a0 e1  	mov	r1, r0
    9b74: 08 10 8d e5  	str	r1, [sp, #8]
    9b78: 14 00 8d e5  	str	r0, [sp, #20]
    9b7c: ff ff ff ea  	b	#-4 <_ZN4core3mem7replace17h597251809dff5828E+0x2c>
    9b80: 00 10 9d e5  	ldr	r1, [sp]
    9b84: 04 00 9d e5  	ldr	r0, [sp, #4]
    9b88: 18 03 00 eb  	bl	#3168 <_ZN4core3ptr5write17hcc50e8a29615fba3E>
    9b8c: ff ff ff ea  	b	#-4 <_ZN4core3mem7replace17h597251809dff5828E+0x3c>
    9b90: 08 00 9d e5  	ldr	r0, [sp, #8]
    9b94: 18 d0 8d e2  	add	sp, sp, #24
    9b98: 00 88 bd e8  	pop	{r11, pc}

00009b9c <_ZN4core3mem7replace17hb3b3ec1c42c6a29fE>:
    9b9c: 00 48 2d e9  	push	{r11, lr}
    9ba0: 18 d0 4d e2  	sub	sp, sp, #24
    9ba4: 00 10 8d e5  	str	r1, [sp]
    9ba8: 04 00 8d e5  	str	r0, [sp, #4]
    9bac: 0c 00 8d e5  	str	r0, [sp, #12]
    9bb0: 10 10 8d e5  	str	r1, [sp, #16]
    9bb4: da 02 00 eb  	bl	#2920 <_ZN4core3ptr4read17h3473fc0b0283b685E>
    9bb8: 00 10 a0 e1  	mov	r1, r0
    9bbc: 08 10 8d e5  	str	r1, [sp, #8]
    9bc0: 14 00 8d e5  	str	r0, [sp, #20]
    9bc4: ff ff ff ea  	b	#-4 <_ZN4core3mem7replace17hb3b3ec1c42c6a29fE+0x2c>
    9bc8: 00 10 9d e5  	ldr	r1, [sp]
    9bcc: 04 00 9d e5  	ldr	r0, [sp, #4]
    9bd0: 10 03 00 eb  	bl	#3136 <_ZN4core3ptr5write17hd1ac115afc87545cE>
    9bd4: ff ff ff ea  	b	#-4 <_ZN4core3mem7replace17hb3b3ec1c42c6a29fE+0x3c>
    9bd8: 08 00 9d e5  	ldr	r0, [sp, #8]
    9bdc: 18 d0 8d e2  	add	sp, sp, #24
    9be0: 00 88 bd e8  	pop	{r11, pc}

00009be4 <_ZN4core3ptr8metadata8metadata17h3c59b893e207686aE>:
    9be4: 10 d0 4d e2  	sub	sp, sp, #16
    9be8: 08 00 8d e5  	str	r0, [sp, #8]
    9bec: 0c 10 8d e5  	str	r1, [sp, #12]
    9bf0: 00 00 8d e5  	str	r0, [sp]
    9bf4: 04 10 8d e5  	str	r1, [sp, #4]
    9bf8: 04 00 9d e5  	ldr	r0, [sp, #4]
    9bfc: 10 d0 8d e2  	add	sp, sp, #16
    9c00: 1e ff 2f e1  	bx	lr

00009c04 <_ZN4core3ptr8metadata8metadata17h6e0e6941870f5ff5E>:
    9c04: 10 d0 4d e2  	sub	sp, sp, #16
    9c08: 08 00 8d e5  	str	r0, [sp, #8]
    9c0c: 0c 10 8d e5  	str	r1, [sp, #12]
    9c10: 00 00 8d e5  	str	r0, [sp]
    9c14: 04 10 8d e5  	str	r1, [sp, #4]
    9c18: 04 00 9d e5  	ldr	r0, [sp, #4]
    9c1c: 10 d0 8d e2  	add	sp, sp, #16
    9c20: 1e ff 2f e1  	bx	lr

00009c24 <_ZN4core3ptr8metadata8metadata17hb8875a23a1e846f0E>:
    9c24: 10 d0 4d e2  	sub	sp, sp, #16
    9c28: 08 00 8d e5  	str	r0, [sp, #8]
    9c2c: 0c 10 8d e5  	str	r1, [sp, #12]
    9c30: 00 00 8d e5  	str	r0, [sp]
    9c34: 04 10 8d e5  	str	r1, [sp, #4]
    9c38: 04 00 9d e5  	ldr	r0, [sp, #4]
    9c3c: 10 d0 8d e2  	add	sp, sp, #16
    9c40: 1e ff 2f e1  	bx	lr

00009c44 <_ZN4core3ptr8metadata14from_raw_parts17h2f6ebd559309ba48E>:
    9c44: 18 d0 4d e2  	sub	sp, sp, #24
    9c48: 10 00 8d e5  	str	r0, [sp, #16]
    9c4c: 14 10 8d e5  	str	r1, [sp, #20]
    9c50: 08 00 8d e5  	str	r0, [sp, #8]
    9c54: 0c 10 8d e5  	str	r1, [sp, #12]
    9c58: 08 10 9d e5  	ldr	r1, [sp, #8]
    9c5c: 0c 00 9d e5  	ldr	r0, [sp, #12]
    9c60: 00 10 8d e5  	str	r1, [sp]
    9c64: 04 00 8d e5  	str	r0, [sp, #4]
    9c68: 00 00 9d e5  	ldr	r0, [sp]
    9c6c: 04 10 9d e5  	ldr	r1, [sp, #4]
    9c70: 18 d0 8d e2  	add	sp, sp, #24
    9c74: 1e ff 2f e1  	bx	lr

00009c78 <_ZN4core3ptr8metadata14from_raw_parts17h46f219276bb9ceb2E>:
    9c78: 18 d0 4d e2  	sub	sp, sp, #24
    9c7c: 10 00 8d e5  	str	r0, [sp, #16]
    9c80: 14 10 8d e5  	str	r1, [sp, #20]
    9c84: 08 00 8d e5  	str	r0, [sp, #8]
    9c88: 0c 10 8d e5  	str	r1, [sp, #12]
    9c8c: 08 10 9d e5  	ldr	r1, [sp, #8]
    9c90: 0c 00 9d e5  	ldr	r0, [sp, #12]
    9c94: 00 10 8d e5  	str	r1, [sp]
    9c98: 04 00 8d e5  	str	r0, [sp, #4]
    9c9c: 00 00 9d e5  	ldr	r0, [sp]
    9ca0: 04 10 9d e5  	ldr	r1, [sp, #4]
    9ca4: 18 d0 8d e2  	add	sp, sp, #24
    9ca8: 1e ff 2f e1  	bx	lr

00009cac <_ZN4core3ptr8metadata14from_raw_parts17h5617291b34a7c9beE>:
    9cac: 18 d0 4d e2  	sub	sp, sp, #24
    9cb0: 10 00 8d e5  	str	r0, [sp, #16]
    9cb4: 14 10 8d e5  	str	r1, [sp, #20]
    9cb8: 08 00 8d e5  	str	r0, [sp, #8]
    9cbc: 0c 10 8d e5  	str	r1, [sp, #12]
    9cc0: 08 10 9d e5  	ldr	r1, [sp, #8]
    9cc4: 0c 00 9d e5  	ldr	r0, [sp, #12]
    9cc8: 00 10 8d e5  	str	r1, [sp]
    9ccc: 04 00 8d e5  	str	r0, [sp, #4]
    9cd0: 00 00 9d e5  	ldr	r0, [sp]
    9cd4: 04 10 9d e5  	ldr	r1, [sp, #4]
    9cd8: 18 d0 8d e2  	add	sp, sp, #24
    9cdc: 1e ff 2f e1  	bx	lr

00009ce0 <_ZN4core3ptr8metadata14from_raw_parts17haf24b97d7c3c8fe2E>:
    9ce0: 18 d0 4d e2  	sub	sp, sp, #24
    9ce4: 10 00 8d e5  	str	r0, [sp, #16]
    9ce8: 14 10 8d e5  	str	r1, [sp, #20]
    9cec: 08 00 8d e5  	str	r0, [sp, #8]
    9cf0: 0c 10 8d e5  	str	r1, [sp, #12]
    9cf4: 08 10 9d e5  	ldr	r1, [sp, #8]
    9cf8: 0c 00 9d e5  	ldr	r0, [sp, #12]
    9cfc: 00 10 8d e5  	str	r1, [sp]
    9d00: 04 00 8d e5  	str	r0, [sp, #4]
    9d04: 00 00 9d e5  	ldr	r0, [sp]
    9d08: 04 10 9d e5  	ldr	r1, [sp, #4]
    9d0c: 18 d0 8d e2  	add	sp, sp, #24
    9d10: 1e ff 2f e1  	bx	lr

00009d14 <_ZN4core3ptr8non_null16NonNull$LT$T$GT$13new_unchecked17h0ee93a64da3b0115E>:
    9d14: 08 d0 4d e2  	sub	sp, sp, #8
    9d18: 04 00 8d e5  	str	r0, [sp, #4]
    9d1c: 00 00 8d e5  	str	r0, [sp]
    9d20: 00 00 9d e5  	ldr	r0, [sp]
    9d24: 08 d0 8d e2  	add	sp, sp, #8
    9d28: 1e ff 2f e1  	bx	lr

00009d2c <_ZN4core3ptr8non_null16NonNull$LT$T$GT$13new_unchecked17h311ebeac35d490ecE>:
    9d2c: 08 d0 4d e2  	sub	sp, sp, #8
    9d30: 04 00 8d e5  	str	r0, [sp, #4]
    9d34: 00 00 8d e5  	str	r0, [sp]
    9d38: 00 00 9d e5  	ldr	r0, [sp]
    9d3c: 08 d0 8d e2  	add	sp, sp, #8
    9d40: 1e ff 2f e1  	bx	lr

00009d44 <_ZN4core3ptr8non_null16NonNull$LT$T$GT$13new_unchecked17h9e203cabf018418aE>:
    9d44: 08 d0 4d e2  	sub	sp, sp, #8
    9d48: 04 00 8d e5  	str	r0, [sp, #4]
    9d4c: 00 00 8d e5  	str	r0, [sp]
    9d50: 00 00 9d e5  	ldr	r0, [sp]
    9d54: 08 d0 8d e2  	add	sp, sp, #8
    9d58: 1e ff 2f e1  	bx	lr

00009d5c <_ZN4core3ptr8non_null16NonNull$LT$T$GT$13new_unchecked17h9fac1d850925ce4dE>:
    9d5c: 08 d0 4d e2  	sub	sp, sp, #8
    9d60: 04 00 8d e5  	str	r0, [sp, #4]
    9d64: 00 00 8d e5  	str	r0, [sp]
    9d68: 00 00 9d e5  	ldr	r0, [sp]
    9d6c: 08 d0 8d e2  	add	sp, sp, #8
    9d70: 1e ff 2f e1  	bx	lr

00009d74 <_ZN4core3ptr8non_null16NonNull$LT$T$GT$13new_unchecked17ha617d323a7fc3e1eE>:
    9d74: 08 d0 4d e2  	sub	sp, sp, #8
    9d78: 04 00 8d e5  	str	r0, [sp, #4]
    9d7c: 00 00 8d e5  	str	r0, [sp]
    9d80: 00 00 9d e5  	ldr	r0, [sp]
    9d84: 08 d0 8d e2  	add	sp, sp, #8
    9d88: 1e ff 2f e1  	bx	lr

00009d8c <_ZN4core3ptr8non_null16NonNull$LT$T$GT$13new_unchecked17he5acd71300b46a98E>:
    9d8c: 08 d0 4d e2  	sub	sp, sp, #8
    9d90: 04 00 8d e5  	str	r0, [sp, #4]
    9d94: 00 00 8d e5  	str	r0, [sp]
    9d98: 00 00 9d e5  	ldr	r0, [sp]
    9d9c: 08 d0 8d e2  	add	sp, sp, #8
    9da0: 1e ff 2f e1  	bx	lr

00009da4 <_ZN4core3ptr8non_null16NonNull$LT$T$GT$6as_ptr17h3c04a1b813cf7ee8E>:
    9da4: 04 d0 4d e2  	sub	sp, sp, #4
    9da8: 00 00 8d e5  	str	r0, [sp]
    9dac: 04 d0 8d e2  	add	sp, sp, #4
    9db0: 1e ff 2f e1  	bx	lr

00009db4 <_ZN4core3ptr8non_null16NonNull$LT$T$GT$6as_ptr17h761e972d0d67cfa0E>:
    9db4: 04 d0 4d e2  	sub	sp, sp, #4
    9db8: 00 00 8d e5  	str	r0, [sp]
    9dbc: 04 d0 8d e2  	add	sp, sp, #4
    9dc0: 1e ff 2f e1  	bx	lr

00009dc4 <_ZN4core3ptr8non_null16NonNull$LT$T$GT$6as_ptr17hd1053c8517587e17E>:
    9dc4: 04 d0 4d e2  	sub	sp, sp, #4
    9dc8: 00 00 8d e5  	str	r0, [sp]
    9dcc: 04 d0 8d e2  	add	sp, sp, #4
    9dd0: 1e ff 2f e1  	bx	lr

00009dd4 <_ZN4core3ptr8non_null16NonNull$LT$T$GT$6as_ptr17he636665efe449a92E>:
    9dd4: 04 d0 4d e2  	sub	sp, sp, #4
    9dd8: 00 00 8d e5  	str	r0, [sp]
    9ddc: 04 d0 8d e2  	add	sp, sp, #4
    9de0: 1e ff 2f e1  	bx	lr

00009de4 <_ZN4core3ptr8non_null16NonNull$LT$T$GT$6as_ptr17he93dfc44e8018818E>:
    9de4: 04 d0 4d e2  	sub	sp, sp, #4
    9de8: 00 00 8d e5  	str	r0, [sp]
    9dec: 04 d0 8d e2  	add	sp, sp, #4
    9df0: 1e ff 2f e1  	bx	lr

00009df4 <_ZN4core3ptr8non_null16NonNull$LT$T$GT$6as_ptr17hf9d79c67c5818bafE>:
    9df4: 04 d0 4d e2  	sub	sp, sp, #4
    9df8: 00 00 8d e5  	str	r0, [sp]
    9dfc: 04 d0 8d e2  	add	sp, sp, #4
    9e00: 1e ff 2f e1  	bx	lr

00009e04 <_ZN4core3ptr9const_ptr33_$LT$impl$u20$$BP$const$u20$T$GT$7is_null17h01921eafcee4a16bE>:
    9e04: 00 48 2d e9  	push	{r11, lr}
    9e08: 10 d0 4d e2  	sub	sp, sp, #16
    9e0c: 0c 00 8d e5  	str	r0, [sp, #12]
    9e10: 08 00 8d e5  	str	r0, [sp, #8]
    9e14: ff ff ff ea  	b	#-4 <_ZN4core3ptr9const_ptr33_$LT$impl$u20$$BP$const$u20$T$GT$7is_null17h01921eafcee4a16bE+0x14>
    9e18: 08 00 9d e5  	ldr	r0, [sp, #8]
    9e1c: 00 10 a0 e3  	mov	r1, #0
    9e20: 51 00 00 eb  	bl	#324 <_ZN4core3ptr9const_ptr33_$LT$impl$u20$$BP$const$u20$T$GT$13guaranteed_eq17h5fbdb62c96a7f5f1E>
    9e24: 04 00 8d e5  	str	r0, [sp, #4]
    9e28: ff ff ff ea  	b	#-4 <_ZN4core3ptr9const_ptr33_$LT$impl$u20$$BP$const$u20$T$GT$7is_null17h01921eafcee4a16bE+0x28>
    9e2c: 04 00 9d e5  	ldr	r0, [sp, #4]
    9e30: 01 00 00 e2  	and	r0, r0, #1
    9e34: 10 d0 8d e2  	add	sp, sp, #16
    9e38: 00 88 bd e8  	pop	{r11, pc}

00009e3c <_ZN4core3ptr9const_ptr33_$LT$impl$u20$$BP$const$u20$T$GT$7is_null17h099dd4bded18252fE>:
    9e3c: 00 48 2d e9  	push	{r11, lr}
    9e40: 10 d0 4d e2  	sub	sp, sp, #16
    9e44: 0c 00 8d e5  	str	r0, [sp, #12]
    9e48: 08 00 8d e5  	str	r0, [sp, #8]
    9e4c: ff ff ff ea  	b	#-4 <_ZN4core3ptr9const_ptr33_$LT$impl$u20$$BP$const$u20$T$GT$7is_null17h099dd4bded18252fE+0x14>
    9e50: 08 00 9d e5  	ldr	r0, [sp, #8]
    9e54: 00 10 a0 e3  	mov	r1, #0
    9e58: 43 00 00 eb  	bl	#268 <_ZN4core3ptr9const_ptr33_$LT$impl$u20$$BP$const$u20$T$GT$13guaranteed_eq17h5fbdb62c96a7f5f1E>
    9e5c: 04 00 8d e5  	str	r0, [sp, #4]
    9e60: ff ff ff ea  	b	#-4 <_ZN4core3ptr9const_ptr33_$LT$impl$u20$$BP$const$u20$T$GT$7is_null17h099dd4bded18252fE+0x28>
    9e64: 04 00 9d e5  	ldr	r0, [sp, #4]
    9e68: 01 00 00 e2  	and	r0, r0, #1
    9e6c: 10 d0 8d e2  	add	sp, sp, #16
    9e70: 00 88 bd e8  	pop	{r11, pc}

00009e74 <_ZN4core3ptr9const_ptr33_$LT$impl$u20$$BP$const$u20$T$GT$7is_null17h8bf2c1c38017a24bE>:
    9e74: 00 48 2d e9  	push	{r11, lr}
    9e78: 10 d0 4d e2  	sub	sp, sp, #16
    9e7c: 08 00 8d e5  	str	r0, [sp, #8]
    9e80: 0c 00 8d e5  	str	r0, [sp, #12]
    9e84: ff ff ff ea  	b	#-4 <_ZN4core3ptr9const_ptr33_$LT$impl$u20$$BP$const$u20$T$GT$7is_null17h8bf2c1c38017a24bE+0x14>
    9e88: 08 00 9d e5  	ldr	r0, [sp, #8]
    9e8c: 00 10 a0 e3  	mov	r1, #0
    9e90: 35 00 00 eb  	bl	#212 <_ZN4core3ptr9const_ptr33_$LT$impl$u20$$BP$const$u20$T$GT$13guaranteed_eq17h5fbdb62c96a7f5f1E>
    9e94: 04 00 8d e5  	str	r0, [sp, #4]
    9e98: ff ff ff ea  	b	#-4 <_ZN4core3ptr9const_ptr33_$LT$impl$u20$$BP$const$u20$T$GT$7is_null17h8bf2c1c38017a24bE+0x28>
    9e9c: 04 00 9d e5  	ldr	r0, [sp, #4]
    9ea0: 01 00 00 e2  	and	r0, r0, #1
    9ea4: 10 d0 8d e2  	add	sp, sp, #16
    9ea8: 00 88 bd e8  	pop	{r11, pc}

00009eac <_ZN4core3ptr9const_ptr33_$LT$impl$u20$$BP$const$u20$T$GT$7is_null17ha263ef11114199f5E>:
    9eac: 00 48 2d e9  	push	{r11, lr}
    9eb0: 10 d0 4d e2  	sub	sp, sp, #16
    9eb4: 0c 00 8d e5  	str	r0, [sp, #12]
    9eb8: 08 00 8d e5  	str	r0, [sp, #8]
    9ebc: ff ff ff ea  	b	#-4 <_ZN4core3ptr9const_ptr33_$LT$impl$u20$$BP$const$u20$T$GT$7is_null17ha263ef11114199f5E+0x14>
    9ec0: 08 00 9d e5  	ldr	r0, [sp, #8]
    9ec4: 00 10 a0 e3  	mov	r1, #0
    9ec8: 27 00 00 eb  	bl	#156 <_ZN4core3ptr9const_ptr33_$LT$impl$u20$$BP$const$u20$T$GT$13guaranteed_eq17h5fbdb62c96a7f5f1E>
    9ecc: 04 00 8d e5  	str	r0, [sp, #4]
    9ed0: ff ff ff ea  	b	#-4 <_ZN4core3ptr9const_ptr33_$LT$impl$u20$$BP$const$u20$T$GT$7is_null17ha263ef11114199f5E+0x28>
    9ed4: 04 00 9d e5  	ldr	r0, [sp, #4]
    9ed8: 01 00 00 e2  	and	r0, r0, #1
    9edc: 10 d0 8d e2  	add	sp, sp, #16
    9ee0: 00 88 bd e8  	pop	{r11, pc}

00009ee4 <_ZN4core3ptr9const_ptr33_$LT$impl$u20$$BP$const$u20$T$GT$7is_null17ha3dab16996a599e5E>:
    9ee4: 00 48 2d e9  	push	{r11, lr}
    9ee8: 10 d0 4d e2  	sub	sp, sp, #16
    9eec: 0c 00 8d e5  	str	r0, [sp, #12]
    9ef0: 08 00 8d e5  	str	r0, [sp, #8]
    9ef4: ff ff ff ea  	b	#-4 <_ZN4core3ptr9const_ptr33_$LT$impl$u20$$BP$const$u20$T$GT$7is_null17ha3dab16996a599e5E+0x14>
    9ef8: 08 00 9d e5  	ldr	r0, [sp, #8]
    9efc: 00 10 a0 e3  	mov	r1, #0
    9f00: 19 00 00 eb  	bl	#100 <_ZN4core3ptr9const_ptr33_$LT$impl$u20$$BP$const$u20$T$GT$13guaranteed_eq17h5fbdb62c96a7f5f1E>
    9f04: 04 00 8d e5  	str	r0, [sp, #4]
    9f08: ff ff ff ea  	b	#-4 <_ZN4core3ptr9const_ptr33_$LT$impl$u20$$BP$const$u20$T$GT$7is_null17ha3dab16996a599e5E+0x28>
    9f0c: 04 00 9d e5  	ldr	r0, [sp, #4]
    9f10: 01 00 00 e2  	and	r0, r0, #1
    9f14: 10 d0 8d e2  	add	sp, sp, #16
    9f18: 00 88 bd e8  	pop	{r11, pc}

00009f1c <_ZN4core3ptr9const_ptr33_$LT$impl$u20$$BP$const$u20$T$GT$4cast17h1ad786fa4cfa8018E>:
    9f1c: 04 d0 4d e2  	sub	sp, sp, #4
    9f20: 00 00 8d e5  	str	r0, [sp]
    9f24: 04 d0 8d e2  	add	sp, sp, #4
    9f28: 1e ff 2f e1  	bx	lr

00009f2c <_ZN4core3ptr9const_ptr33_$LT$impl$u20$$BP$const$u20$T$GT$4cast17h1d12769d8025b878E>:
    9f2c: 04 d0 4d e2  	sub	sp, sp, #4
    9f30: 00 00 8d e5  	str	r0, [sp]
    9f34: 04 d0 8d e2  	add	sp, sp, #4
    9f38: 1e ff 2f e1  	bx	lr

00009f3c <_ZN4core3ptr9const_ptr33_$LT$impl$u20$$BP$const$u20$T$GT$4cast17h606afd092da50d67E>:
    9f3c: 04 d0 4d e2  	sub	sp, sp, #4
    9f40: 00 00 8d e5  	str	r0, [sp]
    9f44: 04 d0 8d e2  	add	sp, sp, #4
    9f48: 1e ff 2f e1  	bx	lr

00009f4c <_ZN4core3ptr9const_ptr33_$LT$impl$u20$$BP$const$u20$T$GT$4cast17hcedaa77a0aa3b0b5E>:
    9f4c: 04 d0 4d e2  	sub	sp, sp, #4
    9f50: 00 00 8d e5  	str	r0, [sp]
    9f54: 04 d0 8d e2  	add	sp, sp, #4
    9f58: 1e ff 2f e1  	bx	lr

00009f5c <_ZN4core3ptr9const_ptr33_$LT$impl$u20$$BP$const$u20$T$GT$4cast17hda8d7474972e149fE>:
    9f5c: 04 d0 4d e2  	sub	sp, sp, #4
    9f60: 00 00 8d e5  	str	r0, [sp]
    9f64: 04 d0 8d e2  	add	sp, sp, #4
    9f68: 1e ff 2f e1  	bx	lr

00009f6c <_ZN4core3ptr9const_ptr33_$LT$impl$u20$$BP$const$u20$T$GT$13guaranteed_eq17h5fbdb62c96a7f5f1E>:
    9f6c: 10 d0 4d e2  	sub	sp, sp, #16
    9f70: 04 00 8d e5  	str	r0, [sp, #4]
    9f74: 08 10 8d e5  	str	r1, [sp, #8]
    9f78: 01 00 40 e0  	sub	r0, r0, r1
    9f7c: 10 0f 6f e1  	clz	r0, r0
    9f80: a0 02 a0 e1  	lsr	r0, r0, #5
    9f84: 0f 00 cd e5  	strb	r0, [sp, #15]
    9f88: 0f 00 dd e5  	ldrb	r0, [sp, #15]
    9f8c: 00 00 8d e5  	str	r0, [sp]
    9f90: ff ff ff ea  	b	#-4 <_ZN4core3ptr9const_ptr33_$LT$impl$u20$$BP$const$u20$T$GT$13guaranteed_eq17h5fbdb62c96a7f5f1E+0x28>
    9f94: 00 00 9d e5  	ldr	r0, [sp]
    9f98: 01 00 00 e2  	and	r0, r0, #1
    9f9c: 10 d0 8d e2  	add	sp, sp, #16
    9fa0: 1e ff 2f e1  	bx	lr

00009fa4 <_ZN4core3ptr9const_ptr43_$LT$impl$u20$$BP$const$u20$$u5b$T$u5d$$GT$3len17h49bd0a8aa184075eE>:
    9fa4: 00 48 2d e9  	push	{r11, lr}
    9fa8: 10 d0 4d e2  	sub	sp, sp, #16
    9fac: 08 00 8d e5  	str	r0, [sp, #8]
    9fb0: 0c 10 8d e5  	str	r1, [sp, #12]
    9fb4: 0a ff ff eb  	bl	#-984 <_ZN4core3ptr8metadata8metadata17h3c59b893e207686aE>
    9fb8: 04 00 8d e5  	str	r0, [sp, #4]
    9fbc: ff ff ff ea  	b	#-4 <_ZN4core3ptr9const_ptr43_$LT$impl$u20$$BP$const$u20$$u5b$T$u5d$$GT$3len17h49bd0a8aa184075eE+0x1c>
    9fc0: 04 00 9d e5  	ldr	r0, [sp, #4]
    9fc4: 10 d0 8d e2  	add	sp, sp, #16
    9fc8: 00 88 bd e8  	pop	{r11, pc}

00009fcc <_ZN4core3ptr9const_ptr43_$LT$impl$u20$$BP$const$u20$$u5b$T$u5d$$GT$3len17h8c5325d91ce47adcE>:
    9fcc: 00 48 2d e9  	push	{r11, lr}
    9fd0: 10 d0 4d e2  	sub	sp, sp, #16
    9fd4: 08 00 8d e5  	str	r0, [sp, #8]
    9fd8: 0c 10 8d e5  	str	r1, [sp, #12]
    9fdc: 10 ff ff eb  	bl	#-960 <_ZN4core3ptr8metadata8metadata17hb8875a23a1e846f0E>
    9fe0: 04 00 8d e5  	str	r0, [sp, #4]
    9fe4: ff ff ff ea  	b	#-4 <_ZN4core3ptr9const_ptr43_$LT$impl$u20$$BP$const$u20$$u5b$T$u5d$$GT$3len17h8c5325d91ce47adcE+0x1c>
    9fe8: 04 00 9d e5  	ldr	r0, [sp, #4]
    9fec: 10 d0 8d e2  	add	sp, sp, #16
    9ff0: 00 88 bd e8  	pop	{r11, pc}

00009ff4 <_ZN4core3ptr9const_ptr43_$LT$impl$u20$$BP$const$u20$$u5b$T$u5d$$GT$3len17habc3883e5b7bf186E>:
    9ff4: 00 48 2d e9  	push	{r11, lr}
    9ff8: 10 d0 4d e2  	sub	sp, sp, #16
    9ffc: 08 00 8d e5  	str	r0, [sp, #8]
    a000: 0c 10 8d e5  	str	r1, [sp, #12]
    a004: fe fe ff eb  	bl	#-1032 <_ZN4core3ptr8metadata8metadata17h6e0e6941870f5ff5E>
    a008: 04 00 8d e5  	str	r0, [sp, #4]
    a00c: ff ff ff ea  	b	#-4 <_ZN4core3ptr9const_ptr43_$LT$impl$u20$$BP$const$u20$$u5b$T$u5d$$GT$3len17habc3883e5b7bf186E+0x1c>
    a010: 04 00 9d e5  	ldr	r0, [sp, #4]
    a014: 10 d0 8d e2  	add	sp, sp, #16
    a018: 00 88 bd e8  	pop	{r11, pc}

0000a01c <_ZN4core3ptr9const_ptr43_$LT$impl$u20$$BP$const$u20$$u5b$T$u5d$$GT$6as_ptr17h4fe380040f4b7310E>:
    a01c: 08 d0 4d e2  	sub	sp, sp, #8
    a020: 00 00 8d e5  	str	r0, [sp]
    a024: 04 10 8d e5  	str	r1, [sp, #4]
    a028: 08 d0 8d e2  	add	sp, sp, #8
    a02c: 1e ff 2f e1  	bx	lr

0000a030 <_ZN4core3ptr9const_ptr43_$LT$impl$u20$$BP$const$u20$$u5b$T$u5d$$GT$6as_ptr17h6657ebba067a132bE>:
    a030: 08 d0 4d e2  	sub	sp, sp, #8
    a034: 00 00 8d e5  	str	r0, [sp]
    a038: 04 10 8d e5  	str	r1, [sp, #4]
    a03c: 08 d0 8d e2  	add	sp, sp, #8
    a040: 1e ff 2f e1  	bx	lr

0000a044 <_ZN4core3ptr9const_ptr43_$LT$impl$u20$$BP$const$u20$$u5b$T$u5d$$GT$6as_ptr17h73d8ecc888b4838aE>:
    a044: 08 d0 4d e2  	sub	sp, sp, #8
    a048: 00 00 8d e5  	str	r0, [sp]
    a04c: 04 10 8d e5  	str	r1, [sp, #4]
    a050: 08 d0 8d e2  	add	sp, sp, #8
    a054: 1e ff 2f e1  	bx	lr

0000a058 <_ZN4core3ptr9const_ptr43_$LT$impl$u20$$BP$const$u20$$u5b$T$u5d$$GT$6as_ptr17hac7f6cf6a075aa09E>:
    a058: 08 d0 4d e2  	sub	sp, sp, #8
    a05c: 00 00 8d e5  	str	r0, [sp]
    a060: 04 10 8d e5  	str	r1, [sp, #4]
    a064: 08 d0 8d e2  	add	sp, sp, #8
    a068: 1e ff 2f e1  	bx	lr

0000a06c <_ZN4core3ptr9const_ptr43_$LT$impl$u20$$BP$const$u20$$u5b$T$u5d$$GT$6as_ptr17hf6615c2fc9303a1fE>:
    a06c: 08 d0 4d e2  	sub	sp, sp, #8
    a070: 00 00 8d e5  	str	r0, [sp]
    a074: 04 10 8d e5  	str	r1, [sp, #4]
    a078: 08 d0 8d e2  	add	sp, sp, #8
    a07c: 1e ff 2f e1  	bx	lr

0000a080 <_ZN4core3ptr7mut_ptr31_$LT$impl$u20$$BP$mut$u20$T$GT$7is_null17h3b9b5ff4a0433e48E>:
    a080: 00 48 2d e9  	push	{r11, lr}
    a084: 10 d0 4d e2  	sub	sp, sp, #16
    a088: 0c 00 8d e5  	str	r0, [sp, #12]
    a08c: 08 00 8d e5  	str	r0, [sp, #8]
    a090: ff ff ff ea  	b	#-4 <_ZN4core3ptr7mut_ptr31_$LT$impl$u20$$BP$mut$u20$T$GT$7is_null17h3b9b5ff4a0433e48E+0x14>
    a094: 08 00 9d e5  	ldr	r0, [sp, #8]
    a098: 00 10 a0 e3  	mov	r1, #0
    a09c: 4b 00 00 eb  	bl	#300 <_ZN4core3ptr7mut_ptr31_$LT$impl$u20$$BP$mut$u20$T$GT$13guaranteed_eq17h7715c21885c6e098E>
    a0a0: 04 00 8d e5  	str	r0, [sp, #4]
    a0a4: ff ff ff ea  	b	#-4 <_ZN4core3ptr7mut_ptr31_$LT$impl$u20$$BP$mut$u20$T$GT$7is_null17h3b9b5ff4a0433e48E+0x28>
    a0a8: 04 00 9d e5  	ldr	r0, [sp, #4]
    a0ac: 01 00 00 e2  	and	r0, r0, #1
    a0b0: 10 d0 8d e2  	add	sp, sp, #16
    a0b4: 00 88 bd e8  	pop	{r11, pc}

0000a0b8 <_ZN4core3ptr7mut_ptr31_$LT$impl$u20$$BP$mut$u20$T$GT$7is_null17h90840b4ddc66cc04E>:
    a0b8: 00 48 2d e9  	push	{r11, lr}
    a0bc: 10 d0 4d e2  	sub	sp, sp, #16
    a0c0: 08 00 8d e5  	str	r0, [sp, #8]
    a0c4: 0c 00 8d e5  	str	r0, [sp, #12]
    a0c8: ff ff ff ea  	b	#-4 <_ZN4core3ptr7mut_ptr31_$LT$impl$u20$$BP$mut$u20$T$GT$7is_null17h90840b4ddc66cc04E+0x14>
    a0cc: 08 00 9d e5  	ldr	r0, [sp, #8]
    a0d0: 00 10 a0 e3  	mov	r1, #0
    a0d4: 3d 00 00 eb  	bl	#244 <_ZN4core3ptr7mut_ptr31_$LT$impl$u20$$BP$mut$u20$T$GT$13guaranteed_eq17h7715c21885c6e098E>
    a0d8: 04 00 8d e5  	str	r0, [sp, #4]
    a0dc: ff ff ff ea  	b	#-4 <_ZN4core3ptr7mut_ptr31_$LT$impl$u20$$BP$mut$u20$T$GT$7is_null17h90840b4ddc66cc04E+0x28>
    a0e0: 04 00 9d e5  	ldr	r0, [sp, #4]
    a0e4: 01 00 00 e2  	and	r0, r0, #1
    a0e8: 10 d0 8d e2  	add	sp, sp, #16
    a0ec: 00 88 bd e8  	pop	{r11, pc}

0000a0f0 <_ZN4core3ptr7mut_ptr31_$LT$impl$u20$$BP$mut$u20$T$GT$7is_null17hc32b3f5d78eeade4E>:
    a0f0: 00 48 2d e9  	push	{r11, lr}
    a0f4: 10 d0 4d e2  	sub	sp, sp, #16
    a0f8: 0c 00 8d e5  	str	r0, [sp, #12]
    a0fc: 08 00 8d e5  	str	r0, [sp, #8]
    a100: ff ff ff ea  	b	#-4 <_ZN4core3ptr7mut_ptr31_$LT$impl$u20$$BP$mut$u20$T$GT$7is_null17hc32b3f5d78eeade4E+0x14>
    a104: 08 00 9d e5  	ldr	r0, [sp, #8]
    a108: 00 10 a0 e3  	mov	r1, #0
    a10c: 2f 00 00 eb  	bl	#188 <_ZN4core3ptr7mut_ptr31_$LT$impl$u20$$BP$mut$u20$T$GT$13guaranteed_eq17h7715c21885c6e098E>
    a110: 04 00 8d e5  	str	r0, [sp, #4]
    a114: ff ff ff ea  	b	#-4 <_ZN4core3ptr7mut_ptr31_$LT$impl$u20$$BP$mut$u20$T$GT$7is_null17hc32b3f5d78eeade4E+0x28>
    a118: 04 00 9d e5  	ldr	r0, [sp, #4]
    a11c: 01 00 00 e2  	and	r0, r0, #1
    a120: 10 d0 8d e2  	add	sp, sp, #16
    a124: 00 88 bd e8  	pop	{r11, pc}

0000a128 <_ZN4core3ptr7mut_ptr31_$LT$impl$u20$$BP$mut$u20$T$GT$7is_null17hdc47570171e130c6E>:
    a128: 00 48 2d e9  	push	{r11, lr}
    a12c: 10 d0 4d e2  	sub	sp, sp, #16
    a130: 08 00 8d e5  	str	r0, [sp, #8]
    a134: 0c 00 8d e5  	str	r0, [sp, #12]
    a138: ff ff ff ea  	b	#-4 <_ZN4core3ptr7mut_ptr31_$LT$impl$u20$$BP$mut$u20$T$GT$7is_null17hdc47570171e130c6E+0x14>
    a13c: 08 00 9d e5  	ldr	r0, [sp, #8]
    a140: 00 10 a0 e3  	mov	r1, #0
    a144: 21 00 00 eb  	bl	#132 <_ZN4core3ptr7mut_ptr31_$LT$impl$u20$$BP$mut$u20$T$GT$13guaranteed_eq17h7715c21885c6e098E>
    a148: 04 00 8d e5  	str	r0, [sp, #4]
    a14c: ff ff ff ea  	b	#-4 <_ZN4core3ptr7mut_ptr31_$LT$impl$u20$$BP$mut$u20$T$GT$7is_null17hdc47570171e130c6E+0x28>
    a150: 04 00 9d e5  	ldr	r0, [sp, #4]
    a154: 01 00 00 e2  	and	r0, r0, #1
    a158: 10 d0 8d e2  	add	sp, sp, #16
    a15c: 00 88 bd e8  	pop	{r11, pc}

0000a160 <_ZN4core3ptr7mut_ptr31_$LT$impl$u20$$BP$mut$u20$T$GT$7is_null17hdfc7f1fcc93be4b4E>:
    a160: 00 48 2d e9  	push	{r11, lr}
    a164: 10 d0 4d e2  	sub	sp, sp, #16
    a168: 0c 00 8d e5  	str	r0, [sp, #12]
    a16c: 08 00 8d e5  	str	r0, [sp, #8]
    a170: ff ff ff ea  	b	#-4 <_ZN4core3ptr7mut_ptr31_$LT$impl$u20$$BP$mut$u20$T$GT$7is_null17hdfc7f1fcc93be4b4E+0x14>
    a174: 08 00 9d e5  	ldr	r0, [sp, #8]
    a178: 00 10 a0 e3  	mov	r1, #0
    a17c: 13 00 00 eb  	bl	#76 <_ZN4core3ptr7mut_ptr31_$LT$impl$u20$$BP$mut$u20$T$GT$13guaranteed_eq17h7715c21885c6e098E>
    a180: 04 00 8d e5  	str	r0, [sp, #4]
    a184: ff ff ff ea  	b	#-4 <_ZN4core3ptr7mut_ptr31_$LT$impl$u20$$BP$mut$u20$T$GT$7is_null17hdfc7f1fcc93be4b4E+0x28>
    a188: 04 00 9d e5  	ldr	r0, [sp, #4]
    a18c: 01 00 00 e2  	and	r0, r0, #1
    a190: 10 d0 8d e2  	add	sp, sp, #16
    a194: 00 88 bd e8  	pop	{r11, pc}

0000a198 <_ZN4core3ptr7mut_ptr31_$LT$impl$u20$$BP$mut$u20$T$GT$7is_null17he2aafd5fc4a2f886E>:
    a198: 00 48 2d e9  	push	{r11, lr}
    a19c: 10 d0 4d e2  	sub	sp, sp, #16
    a1a0: 0c 00 8d e5  	str	r0, [sp, #12]
    a1a4: 08 00 8d e5  	str	r0, [sp, #8]
    a1a8: ff ff ff ea  	b	#-4 <_ZN4core3ptr7mut_ptr31_$LT$impl$u20$$BP$mut$u20$T$GT$7is_null17he2aafd5fc4a2f886E+0x14>
    a1ac: 08 00 9d e5  	ldr	r0, [sp, #8]
    a1b0: 00 10 a0 e3  	mov	r1, #0
    a1b4: 05 00 00 eb  	bl	#20 <_ZN4core3ptr7mut_ptr31_$LT$impl$u20$$BP$mut$u20$T$GT$13guaranteed_eq17h7715c21885c6e098E>
    a1b8: 04 00 8d e5  	str	r0, [sp, #4]
    a1bc: ff ff ff ea  	b	#-4 <_ZN4core3ptr7mut_ptr31_$LT$impl$u20$$BP$mut$u20$T$GT$7is_null17he2aafd5fc4a2f886E+0x28>
    a1c0: 04 00 9d e5  	ldr	r0, [sp, #4]
    a1c4: 01 00 00 e2  	and	r0, r0, #1
    a1c8: 10 d0 8d e2  	add	sp, sp, #16
    a1cc: 00 88 bd e8  	pop	{r11, pc}

0000a1d0 <_ZN4core3ptr7mut_ptr31_$LT$impl$u20$$BP$mut$u20$T$GT$13guaranteed_eq17h7715c21885c6e098E>:
    a1d0: 10 d0 4d e2  	sub	sp, sp, #16
    a1d4: 04 00 8d e5  	str	r0, [sp, #4]
    a1d8: 08 10 8d e5  	str	r1, [sp, #8]
    a1dc: 01 00 40 e0  	sub	r0, r0, r1
    a1e0: 10 0f 6f e1  	clz	r0, r0
    a1e4: a0 02 a0 e1  	lsr	r0, r0, #5
    a1e8: 0f 00 cd e5  	strb	r0, [sp, #15]
    a1ec: 0f 00 dd e5  	ldrb	r0, [sp, #15]
    a1f0: 00 00 8d e5  	str	r0, [sp]
    a1f4: ff ff ff ea  	b	#-4 <_ZN4core3ptr7mut_ptr31_$LT$impl$u20$$BP$mut$u20$T$GT$13guaranteed_eq17h7715c21885c6e098E+0x28>
    a1f8: 00 00 9d e5  	ldr	r0, [sp]
    a1fc: 01 00 00 e2  	and	r0, r0, #1
    a200: 10 d0 8d e2  	add	sp, sp, #16
    a204: 1e ff 2f e1  	bx	lr

0000a208 <_ZN4core3ptr20slice_from_raw_parts17h472b2ea1a48027e0E>:
    a208: 00 48 2d e9  	push	{r11, lr}
    a20c: 18 d0 4d e2  	sub	sp, sp, #24
    a210: 08 10 8d e5  	str	r1, [sp, #8]
    a214: 10 00 8d e5  	str	r0, [sp, #16]
    a218: 14 10 8d e5  	str	r1, [sp, #20]
    a21c: 42 ff ff eb  	bl	#-760 <_ZN4core3ptr9const_ptr33_$LT$impl$u20$$BP$const$u20$T$GT$4cast17h1d12769d8025b878E>
    a220: 0c 00 8d e5  	str	r0, [sp, #12]
    a224: ff ff ff ea  	b	#-4 <_ZN4core3ptr20slice_from_raw_parts17h472b2ea1a48027e0E+0x20>
    a228: 08 10 9d e5  	ldr	r1, [sp, #8]
    a22c: 0c 00 9d e5  	ldr	r0, [sp, #12]
    a230: aa fe ff eb  	bl	#-1368 <_ZN4core3ptr8metadata14from_raw_parts17haf24b97d7c3c8fe2E>
    a234: 00 00 8d e5  	str	r0, [sp]
    a238: 04 10 8d e5  	str	r1, [sp, #4]
    a23c: ff ff ff ea  	b	#-4 <_ZN4core3ptr20slice_from_raw_parts17h472b2ea1a48027e0E+0x38>
    a240: 04 10 9d e5  	ldr	r1, [sp, #4]
    a244: 00 00 9d e5  	ldr	r0, [sp]
    a248: 18 d0 8d e2  	add	sp, sp, #24
    a24c: 00 88 bd e8  	pop	{r11, pc}

0000a250 <_ZN4core3ptr20slice_from_raw_parts17h739fb1d7ea7e2968E>:
    a250: 00 48 2d e9  	push	{r11, lr}
    a254: 18 d0 4d e2  	sub	sp, sp, #24
    a258: 08 10 8d e5  	str	r1, [sp, #8]
    a25c: 10 00 8d e5  	str	r0, [sp, #16]
    a260: 14 10 8d e5  	str	r1, [sp, #20]
    a264: 38 ff ff eb  	bl	#-800 <_ZN4core3ptr9const_ptr33_$LT$impl$u20$$BP$const$u20$T$GT$4cast17hcedaa77a0aa3b0b5E>
    a268: 0c 00 8d e5  	str	r0, [sp, #12]
    a26c: ff ff ff ea  	b	#-4 <_ZN4core3ptr20slice_from_raw_parts17h739fb1d7ea7e2968E+0x20>
    a270: 08 10 9d e5  	ldr	r1, [sp, #8]
    a274: 0c 00 9d e5  	ldr	r0, [sp, #12]
    a278: 71 fe ff eb  	bl	#-1596 <_ZN4core3ptr8metadata14from_raw_parts17h2f6ebd559309ba48E>
    a27c: 00 00 8d e5  	str	r0, [sp]
    a280: 04 10 8d e5  	str	r1, [sp, #4]
    a284: ff ff ff ea  	b	#-4 <_ZN4core3ptr20slice_from_raw_parts17h739fb1d7ea7e2968E+0x38>
    a288: 04 10 9d e5  	ldr	r1, [sp, #4]
    a28c: 00 00 9d e5  	ldr	r0, [sp]
    a290: 18 d0 8d e2  	add	sp, sp, #24
    a294: 00 88 bd e8  	pop	{r11, pc}

0000a298 <_ZN4core3ptr20slice_from_raw_parts17h7eb9f3b40e6a6c9aE>:
    a298: 00 48 2d e9  	push	{r11, lr}
    a29c: 18 d0 4d e2  	sub	sp, sp, #24
    a2a0: 08 10 8d e5  	str	r1, [sp, #8]
    a2a4: 10 00 8d e5  	str	r0, [sp, #16]
    a2a8: 14 10 8d e5  	str	r1, [sp, #20]
    a2ac: 22 ff ff eb  	bl	#-888 <_ZN4core3ptr9const_ptr33_$LT$impl$u20$$BP$const$u20$T$GT$4cast17h606afd092da50d67E>
    a2b0: 0c 00 8d e5  	str	r0, [sp, #12]
    a2b4: ff ff ff ea  	b	#-4 <_ZN4core3ptr20slice_from_raw_parts17h7eb9f3b40e6a6c9aE+0x20>
    a2b8: 08 10 9d e5  	ldr	r1, [sp, #8]
    a2bc: 0c 00 9d e5  	ldr	r0, [sp, #12]
    a2c0: 6c fe ff eb  	bl	#-1616 <_ZN4core3ptr8metadata14from_raw_parts17h46f219276bb9ceb2E>
    a2c4: 00 00 8d e5  	str	r0, [sp]
    a2c8: 04 10 8d e5  	str	r1, [sp, #4]
    a2cc: ff ff ff ea  	b	#-4 <_ZN4core3ptr20slice_from_raw_parts17h7eb9f3b40e6a6c9aE+0x38>
    a2d0: 04 10 9d e5  	ldr	r1, [sp, #4]
    a2d4: 00 00 9d e5  	ldr	r0, [sp]
    a2d8: 18 d0 8d e2  	add	sp, sp, #24
    a2dc: 00 88 bd e8  	pop	{r11, pc}

0000a2e0 <_ZN4core3ptr20slice_from_raw_parts17h9ed24265d259b02cE>:
    a2e0: 00 48 2d e9  	push	{r11, lr}
    a2e4: 18 d0 4d e2  	sub	sp, sp, #24
    a2e8: 08 10 8d e5  	str	r1, [sp, #8]
    a2ec: 10 00 8d e5  	str	r0, [sp, #16]
    a2f0: 14 10 8d e5  	str	r1, [sp, #20]
    a2f4: 08 ff ff eb  	bl	#-992 <_ZN4core3ptr9const_ptr33_$LT$impl$u20$$BP$const$u20$T$GT$4cast17h1ad786fa4cfa8018E>
    a2f8: 0c 00 8d e5  	str	r0, [sp, #12]
    a2fc: ff ff ff ea  	b	#-4 <_ZN4core3ptr20slice_from_raw_parts17h9ed24265d259b02cE+0x20>
    a300: 08 10 9d e5  	ldr	r1, [sp, #8]
    a304: 0c 00 9d e5  	ldr	r0, [sp, #12]
    a308: 67 fe ff eb  	bl	#-1636 <_ZN4core3ptr8metadata14from_raw_parts17h5617291b34a7c9beE>
    a30c: 00 00 8d e5  	str	r0, [sp]
    a310: 04 10 8d e5  	str	r1, [sp, #4]
    a314: ff ff ff ea  	b	#-4 <_ZN4core3ptr20slice_from_raw_parts17h9ed24265d259b02cE+0x38>
    a318: 04 10 9d e5  	ldr	r1, [sp, #4]
    a31c: 00 00 9d e5  	ldr	r0, [sp]
    a320: 18 d0 8d e2  	add	sp, sp, #24
    a324: 00 88 bd e8  	pop	{r11, pc}

0000a328 <_ZN4core3ptr19swap_nonoverlapping17hcb191387e6ec01aaE>:
    a328: 00 48 2d e9  	push	{r11, lr}
    a32c: 28 d0 4d e2  	sub	sp, sp, #40
    a330: 04 20 8d e5  	str	r2, [sp, #4]
    a334: 10 00 8d e5  	str	r0, [sp, #16]
    a338: 14 10 8d e5  	str	r1, [sp, #20]
    a33c: 18 20 8d e5  	str	r2, [sp, #24]
    a340: 00 20 a0 e1  	mov	r2, r0
    a344: 08 20 8d e5  	str	r2, [sp, #8]
    a348: 1c 00 8d e5  	str	r0, [sp, #28]
    a34c: 01 00 a0 e1  	mov	r0, r1
    a350: 0c 00 8d e5  	str	r0, [sp, #12]
    a354: 20 10 8d e5  	str	r1, [sp, #32]
    a358: ff ff ff ea  	b	#-4 <_ZN4core3ptr19swap_nonoverlapping17hcb191387e6ec01aaE+0x34>
    a35c: 04 00 9d e5  	ldr	r0, [sp, #4]
    a360: 00 11 a0 e1  	lsl	r1, r0, #2
    a364: 00 10 8d e5  	str	r1, [sp]
    a368: 20 0f a0 e1  	lsr	r0, r0, #30
    a36c: 00 00 50 e3  	cmp	r0, #0
    a370: 06 00 00 1a  	bne	#24 <_ZN4core3ptr19swap_nonoverlapping17hcb191387e6ec01aaE+0x68>
    a374: ff ff ff ea  	b	#-4 <_ZN4core3ptr19swap_nonoverlapping17hcb191387e6ec01aaE+0x50>
    a378: 00 20 9d e5  	ldr	r2, [sp]
    a37c: 0c 10 9d e5  	ldr	r1, [sp, #12]
    a380: 08 00 9d e5  	ldr	r0, [sp, #8]
    a384: 24 20 8d e5  	str	r2, [sp, #36]
    a388: 2b 00 00 eb  	bl	#172 <_ZN4core3ptr25swap_nonoverlapping_bytes17hf060f760246acaadE>
    a38c: 04 00 00 ea  	b	#16 <_ZN4core3ptr19swap_nonoverlapping17hcb191387e6ec01aaE+0x7c>
    a390: 14 00 9f e5  	ldr	r0, [pc, #20]
    a394: 14 20 9f e5  	ldr	r2, [pc, #20]
    a398: 21 10 a0 e3  	mov	r1, #33
    a39c: c4 06 00 eb  	bl	#6928 <_ZN4core9panicking5panic17h70f755644c6683e5E>
    a3a0: fe de ff e7  	trap
    a3a4: 28 d0 8d e2  	add	sp, sp, #40
    a3a8: 00 88 bd e8  	pop	{r11, pc}

0000a3ac <$d.526>:
    a3ac:	20 52 01 00	.word	0x00015220
    a3b0:	b0 56 01 00	.word	0x000156b0

0000a3b4 <_ZN4core3ptr23swap_nonoverlapping_one17h067d40ae001e0b5fE>:
    a3b4: 00 48 2d e9  	push	{r11, lr}
    a3b8: 18 d0 4d e2  	sub	sp, sp, #24
    a3bc: 04 10 8d e5  	str	r1, [sp, #4]
    a3c0: 08 00 8d e5  	str	r0, [sp, #8]
    a3c4: 0c 00 8d e5  	str	r0, [sp, #12]
    a3c8: 10 10 8d e5  	str	r1, [sp, #16]
    a3cc: ff ff ff ea  	b	#-4 <_ZN4core3ptr23swap_nonoverlapping_one17h067d40ae001e0b5fE+0x1c>
    a3d0: 00 00 a0 e3  	mov	r0, #0
    a3d4: 00 00 50 e3  	cmp	r0, #0
    a3d8: 06 00 00 1a  	bne	#24 <_ZN4core3ptr23swap_nonoverlapping_one17h067d40ae001e0b5fE+0x44>
    a3dc: ff ff ff ea  	b	#-4 <_ZN4core3ptr23swap_nonoverlapping_one17h067d40ae001e0b5fE+0x2c>
    a3e0: 08 00 9d e5  	ldr	r0, [sp, #8]
    a3e4: ba 00 00 eb  	bl	#744 <_ZN4core3ptr4read17h19ff7a152842ec41E>
    a3e8: 00 10 a0 e1  	mov	r1, r0
    a3ec: 00 10 8d e5  	str	r1, [sp]
    a3f0: 14 00 8d e5  	str	r0, [sp, #20]
    a3f4: 06 00 00 ea  	b	#24 <_ZN4core3ptr23swap_nonoverlapping_one17h067d40ae001e0b5fE+0x60>
    a3f8: 04 10 9d e5  	ldr	r1, [sp, #4]
    a3fc: 08 00 9d e5  	ldr	r0, [sp, #8]
    a400: 01 20 a0 e3  	mov	r2, #1
    a404: c7 ff ff eb  	bl	#-228 <_ZN4core3ptr19swap_nonoverlapping17hcb191387e6ec01aaE>
    a408: ff ff ff ea  	b	#-4 <_ZN4core3ptr23swap_nonoverlapping_one17h067d40ae001e0b5fE+0x58>
    a40c: 18 d0 8d e2  	add	sp, sp, #24
    a410: 00 88 bd e8  	pop	{r11, pc}
    a414: 08 10 9d e5  	ldr	r1, [sp, #8]
    a418: 04 00 9d e5  	ldr	r0, [sp, #4]
    a41c: 01 20 a0 e3  	mov	r2, #1
    a420: a9 fc ff eb  	bl	#-3420 <_ZN4core10intrinsics19copy_nonoverlapping17h0629c929e1c61b12E>
    a424: ff ff ff ea  	b	#-4 <_ZN4core3ptr23swap_nonoverlapping_one17h067d40ae001e0b5fE+0x74>
    a428: 00 10 9d e5  	ldr	r1, [sp]
    a42c: 04 00 9d e5  	ldr	r0, [sp, #4]
    a430: ee 00 00 eb  	bl	#952 <_ZN4core3ptr5write17hcc50e8a29615fba3E>
    a434: ff ff ff ea  	b	#-4 <_ZN4core3ptr23swap_nonoverlapping_one17h067d40ae001e0b5fE+0x84>
    a438: f3 ff ff ea  	b	#-52 <_ZN4core3ptr23swap_nonoverlapping_one17h067d40ae001e0b5fE+0x58>

0000a43c <_ZN4core3ptr25swap_nonoverlapping_bytes17hf060f760246acaadE>:
    a43c: 30 48 2d e9  	push	{r4, r5, r11, lr}
    a440: 08 b0 8d e2  	add	r11, sp, #8
    a444: 11 de 4d e2  	sub	sp, sp, #272
    a448: 1f d0 cd e3  	bic	sp, sp, #31
    a44c: 30 20 8d e5  	str	r2, [sp, #48]
    a450: 34 10 8d e5  	str	r1, [sp, #52]
    a454: 38 00 8d e5  	str	r0, [sp, #56]
    a458: 8c 00 8d e5  	str	r0, [sp, #140]
    a45c: 90 10 8d e5  	str	r1, [sp, #144]
    a460: 94 20 8d e5  	str	r2, [sp, #148]
    a464: 20 00 a0 e3  	mov	r0, #32
    a468: 98 00 8d e5  	str	r0, [sp, #152]
    a46c: ff ff ff ea  	b	#-4 <_ZN4core3ptr25swap_nonoverlapping_bytes17hf060f760246acaadE+0x34>
    a470: 00 00 a0 e3  	mov	r0, #0
    a474: 3c 00 8d e5  	str	r0, [sp, #60]
    a478: ff ff ff ea  	b	#-4 <_ZN4core3ptr25swap_nonoverlapping_bytes17hf060f760246acaadE+0x40>
    a47c: 3c 10 9d e5  	ldr	r1, [sp, #60]
    a480: 20 00 81 e2  	add	r0, r1, #32
    a484: 2c 00 8d e5  	str	r0, [sp, #44]
    a488: 01 00 50 e1  	cmp	r0, r1
    a48c: 05 00 00 3a  	blo	#20 <_ZN4core3ptr25swap_nonoverlapping_bytes17hf060f760246acaadE+0x6c>
    a490: ff ff ff ea  	b	#-4 <_ZN4core3ptr25swap_nonoverlapping_bytes17hf060f760246acaadE+0x58>
    a494: 2c 00 9d e5  	ldr	r0, [sp, #44]
    a498: 30 10 9d e5  	ldr	r1, [sp, #48]
    a49c: 01 00 50 e1  	cmp	r0, r1
    a4a0: 0a 00 00 9a  	bls	#40 <_ZN4core3ptr25swap_nonoverlapping_bytes17hf060f760246acaadE+0x94>
    a4a4: 04 00 00 ea  	b	#16 <_ZN4core3ptr25swap_nonoverlapping_bytes17hf060f760246acaadE+0x80>
    a4a8: 18 02 9f e5  	ldr	r0, [pc, #536]
    a4ac: 1c 22 9f e5  	ldr	r2, [pc, #540]
    a4b0: 1c 10 a0 e3  	mov	r1, #28
    a4b4: 7e 06 00 eb  	bl	#6648 <_ZN4core9panicking5panic17h70f755644c6683e5E>
    a4b8: fe de ff e7  	trap
    a4bc: 30 10 9d e5  	ldr	r1, [sp, #48]
    a4c0: 3c 00 9d e5  	ldr	r0, [sp, #60]
    a4c4: 01 00 50 e1  	cmp	r0, r1
    a4c8: 3e 00 00 3a  	blo	#248 <_ZN4core3ptr25swap_nonoverlapping_bytes17hf060f760246acaadE+0x18c>
    a4cc: 3b 00 00 ea  	b	#236 <_ZN4core3ptr25swap_nonoverlapping_bytes17hf060f760246acaadE+0x184>
    a4d0: ff ff ff ea  	b	#-4 <_ZN4core3ptr25swap_nonoverlapping_bytes17hf060f760246acaadE+0x98>
    a4d4: 40 00 8d e2  	add	r0, sp, #64
    a4d8: bc 00 8d e5  	str	r0, [sp, #188]
    a4dc: ff ff ff ea  	b	#-4 <_ZN4core3ptr25swap_nonoverlapping_bytes17hf060f760246acaadE+0xa4>
    a4e0: 38 00 9d e5  	ldr	r0, [sp, #56]
    a4e4: 40 10 8d e2  	add	r1, sp, #64
    a4e8: 24 10 8d e5  	str	r1, [sp, #36]
    a4ec: 9c 10 8d e5  	str	r1, [sp, #156]
    a4f0: 3c 10 9d e5  	ldr	r1, [sp, #60]
    a4f4: fc 00 8d e5  	str	r0, [sp, #252]
    a4f8: 00 11 8d e5  	str	r1, [sp, #256]
    a4fc: 04 01 8d e5  	str	r0, [sp, #260]
    a500: 08 11 8d e5  	str	r1, [sp, #264]
    a504: 01 00 80 e0  	add	r0, r0, r1
    a508: 0c 01 8d e5  	str	r0, [sp, #268]
    a50c: 0c 01 9d e5  	ldr	r0, [sp, #268]
    a510: 28 00 8d e5  	str	r0, [sp, #40]
    a514: a0 00 8d e5  	str	r0, [sp, #160]
    a518: ff ff ff ea  	b	#-4 <_ZN4core3ptr25swap_nonoverlapping_bytes17hf060f760246acaadE+0xe0>
    a51c: 34 00 9d e5  	ldr	r0, [sp, #52]
    a520: 3c 10 9d e5  	ldr	r1, [sp, #60]
    a524: e8 00 8d e5  	str	r0, [sp, #232]
    a528: ec 10 8d e5  	str	r1, [sp, #236]
    a52c: f0 00 8d e5  	str	r0, [sp, #240]
    a530: f4 10 8d e5  	str	r1, [sp, #244]
    a534: 01 00 80 e0  	add	r0, r0, r1
    a538: f8 00 8d e5  	str	r0, [sp, #248]
    a53c: f8 00 9d e5  	ldr	r0, [sp, #248]
    a540: 20 00 8d e5  	str	r0, [sp, #32]
    a544: a4 00 8d e5  	str	r0, [sp, #164]
    a548: ff ff ff ea  	b	#-4 <_ZN4core3ptr25swap_nonoverlapping_bytes17hf060f760246acaadE+0x110>
    a54c: 24 10 9d e5  	ldr	r1, [sp, #36]
    a550: 28 00 9d e5  	ldr	r0, [sp, #40]
    a554: 20 20 a0 e3  	mov	r2, #32
    a558: 70 fc ff eb  	bl	#-3648 <_ZN4core10intrinsics19copy_nonoverlapping17hb935fbdf8fc9b991E>
    a55c: ff ff ff ea  	b	#-4 <_ZN4core3ptr25swap_nonoverlapping_bytes17hf060f760246acaadE+0x124>
    a560: 28 10 9d e5  	ldr	r1, [sp, #40]
    a564: 20 00 9d e5  	ldr	r0, [sp, #32]
    a568: 20 20 a0 e3  	mov	r2, #32
    a56c: 6b fc ff eb  	bl	#-3668 <_ZN4core10intrinsics19copy_nonoverlapping17hb935fbdf8fc9b991E>
    a570: ff ff ff ea  	b	#-4 <_ZN4core3ptr25swap_nonoverlapping_bytes17hf060f760246acaadE+0x138>
    a574: 20 10 9d e5  	ldr	r1, [sp, #32]
    a578: 24 00 9d e5  	ldr	r0, [sp, #36]
    a57c: 20 20 a0 e3  	mov	r2, #32
    a580: 66 fc ff eb  	bl	#-3688 <_ZN4core10intrinsics19copy_nonoverlapping17hb935fbdf8fc9b991E>
    a584: ff ff ff ea  	b	#-4 <_ZN4core3ptr25swap_nonoverlapping_bytes17hf060f760246acaadE+0x14c>
    a588: 3c 10 9d e5  	ldr	r1, [sp, #60]
    a58c: 20 00 81 e2  	add	r0, r1, #32
    a590: 1c 00 8d e5  	str	r0, [sp, #28]
    a594: 01 00 50 e1  	cmp	r0, r1
    a598: 03 00 00 3a  	blo	#12 <_ZN4core3ptr25swap_nonoverlapping_bytes17hf060f760246acaadE+0x170>
    a59c: ff ff ff ea  	b	#-4 <_ZN4core3ptr25swap_nonoverlapping_bytes17hf060f760246acaadE+0x164>
    a5a0: 1c 00 9d e5  	ldr	r0, [sp, #28]
    a5a4: 3c 00 8d e5  	str	r0, [sp, #60]
    a5a8: b3 ff ff ea  	b	#-308 <_ZN4core3ptr25swap_nonoverlapping_bytes17hf060f760246acaadE+0x40>
    a5ac: 14 01 9f e5  	ldr	r0, [pc, #276]
    a5b0: 14 21 9f e5  	ldr	r2, [pc, #276]
    a5b4: 1c 10 a0 e3  	mov	r1, #28
    a5b8: 3d 06 00 eb  	bl	#6388 <_ZN4core9panicking5panic17h70f755644c6683e5E>
    a5bc: fe de ff e7  	trap
    a5c0: 08 d0 4b e2  	sub	sp, r11, #8
    a5c4: 30 88 bd e8  	pop	{r4, r5, r11, pc}
    a5c8: ff ff ff ea  	b	#-4 <_ZN4core3ptr25swap_nonoverlapping_bytes17hf060f760246acaadE+0x190>
    a5cc: 30 00 9d e5  	ldr	r0, [sp, #48]
    a5d0: 3c 10 9d e5  	ldr	r1, [sp, #60]
    a5d4: 01 20 40 e0  	sub	r2, r0, r1
    a5d8: 18 20 8d e5  	str	r2, [sp, #24]
    a5dc: 01 00 50 e1  	cmp	r0, r1
    a5e0: 06 00 00 3a  	blo	#24 <_ZN4core3ptr25swap_nonoverlapping_bytes17hf060f760246acaadE+0x1c4>
    a5e4: ff ff ff ea  	b	#-4 <_ZN4core3ptr25swap_nonoverlapping_bytes17hf060f760246acaadE+0x1ac>
    a5e8: 18 00 9d e5  	ldr	r0, [sp, #24]
    a5ec: a8 00 8d e5  	str	r0, [sp, #168]
    a5f0: 68 00 8d e2  	add	r0, sp, #104
    a5f4: 14 00 8d e5  	str	r0, [sp, #20]
    a5f8: b8 00 8d e5  	str	r0, [sp, #184]
    a5fc: 04 00 00 ea  	b	#16 <_ZN4core3ptr25swap_nonoverlapping_bytes17hf060f760246acaadE+0x1d8>
    a600: b8 00 9f e5  	ldr	r0, [pc, #184]
    a604: b8 20 9f e5  	ldr	r2, [pc, #184]
    a608: 21 10 a0 e3  	mov	r1, #33
    a60c: 28 06 00 eb  	bl	#6304 <_ZN4core9panicking5panic17h70f755644c6683e5E>
    a610: fe de ff e7  	trap
    a614: 38 00 9d e5  	ldr	r0, [sp, #56]
    a618: 14 10 9d e5  	ldr	r1, [sp, #20]
    a61c: 01 20 a0 e1  	mov	r2, r1
    a620: 0c 20 8d e5  	str	r2, [sp, #12]
    a624: ac 10 8d e5  	str	r1, [sp, #172]
    a628: 3c 10 9d e5  	ldr	r1, [sp, #60]
    a62c: d4 00 8d e5  	str	r0, [sp, #212]
    a630: d8 10 8d e5  	str	r1, [sp, #216]
    a634: dc 00 8d e5  	str	r0, [sp, #220]
    a638: e0 10 8d e5  	str	r1, [sp, #224]
    a63c: 01 00 80 e0  	add	r0, r0, r1
    a640: e4 00 8d e5  	str	r0, [sp, #228]
    a644: e4 00 9d e5  	ldr	r0, [sp, #228]
    a648: 10 00 8d e5  	str	r0, [sp, #16]
    a64c: b0 00 8d e5  	str	r0, [sp, #176]
    a650: ff ff ff ea  	b	#-4 <_ZN4core3ptr25swap_nonoverlapping_bytes17hf060f760246acaadE+0x218>
    a654: 34 00 9d e5  	ldr	r0, [sp, #52]
    a658: 3c 10 9d e5  	ldr	r1, [sp, #60]
    a65c: c0 00 8d e5  	str	r0, [sp, #192]
    a660: c4 10 8d e5  	str	r1, [sp, #196]
    a664: c8 00 8d e5  	str	r0, [sp, #200]
    a668: cc 10 8d e5  	str	r1, [sp, #204]
    a66c: 01 00 80 e0  	add	r0, r0, r1
    a670: d0 00 8d e5  	str	r0, [sp, #208]
    a674: d0 00 9d e5  	ldr	r0, [sp, #208]
    a678: 08 00 8d e5  	str	r0, [sp, #8]
    a67c: b4 00 8d e5  	str	r0, [sp, #180]
    a680: ff ff ff ea  	b	#-4 <_ZN4core3ptr25swap_nonoverlapping_bytes17hf060f760246acaadE+0x248>
    a684: 18 20 9d e5  	ldr	r2, [sp, #24]
    a688: 0c 10 9d e5  	ldr	r1, [sp, #12]
    a68c: 10 00 9d e5  	ldr	r0, [sp, #16]
    a690: 22 fc ff eb  	bl	#-3960 <_ZN4core10intrinsics19copy_nonoverlapping17hb935fbdf8fc9b991E>
    a694: ff ff ff ea  	b	#-4 <_ZN4core3ptr25swap_nonoverlapping_bytes17hf060f760246acaadE+0x25c>
    a698: 18 20 9d e5  	ldr	r2, [sp, #24]
    a69c: 10 10 9d e5  	ldr	r1, [sp, #16]
    a6a0: 08 00 9d e5  	ldr	r0, [sp, #8]
    a6a4: 1d fc ff eb  	bl	#-3980 <_ZN4core10intrinsics19copy_nonoverlapping17hb935fbdf8fc9b991E>
    a6a8: ff ff ff ea  	b	#-4 <_ZN4core3ptr25swap_nonoverlapping_bytes17hf060f760246acaadE+0x270>
    a6ac: 18 20 9d e5  	ldr	r2, [sp, #24]
    a6b0: 08 10 9d e5  	ldr	r1, [sp, #8]
    a6b4: 0c 00 9d e5  	ldr	r0, [sp, #12]
    a6b8: 18 fc ff eb  	bl	#-4000 <_ZN4core10intrinsics19copy_nonoverlapping17hb935fbdf8fc9b991E>
    a6bc: bf ff ff ea  	b	#-260 <_ZN4core3ptr25swap_nonoverlapping_bytes17hf060f760246acaadE+0x184>

0000a6c0 <$d.529>:
    a6c0:	d0 51 01 00	.word	0x000151d0
    a6c4:	e0 56 01 00	.word	0x000156e0
    a6c8:	00 52 01 00	.word	0x00015200
    a6cc:	d0 56 01 00	.word	0x000156d0
    a6d0:	c0 56 01 00	.word	0x000156c0

0000a6d4 <_ZN4core3ptr4read17h19ff7a152842ec41E>:
    a6d4: 20 d0 4d e2  	sub	sp, sp, #32
    a6d8: 04 00 8d e5  	str	r0, [sp, #4]
    a6dc: 0c 00 8d e5  	str	r0, [sp, #12]
    a6e0: 10 00 9d e5  	ldr	r0, [sp, #16]
    a6e4: 08 00 8d e5  	str	r0, [sp, #8]
    a6e8: ff ff ff ea  	b	#-4 <_ZN4core3ptr4read17h19ff7a152842ec41E+0x18>
    a6ec: 08 00 8d e2  	add	r0, sp, #8
    a6f0: 14 00 8d e5  	str	r0, [sp, #20]
    a6f4: ff ff ff ea  	b	#-4 <_ZN4core3ptr4read17h19ff7a152842ec41E+0x24>
    a6f8: 04 00 9d e5  	ldr	r0, [sp, #4]
    a6fc: 00 00 90 e5  	ldr	r0, [r0]
    a700: 08 00 8d e5  	str	r0, [sp, #8]
    a704: 08 00 9d e5  	ldr	r0, [sp, #8]
    a708: 00 00 8d e5  	str	r0, [sp]
    a70c: 18 00 8d e5  	str	r0, [sp, #24]
    a710: 1c 00 8d e5  	str	r0, [sp, #28]
    a714: ff ff ff ea  	b	#-4 <_ZN4core3ptr4read17h19ff7a152842ec41E+0x44>
    a718: 00 00 9d e5  	ldr	r0, [sp]
    a71c: 20 d0 8d e2  	add	sp, sp, #32
    a720: 1e ff 2f e1  	bx	lr

0000a724 <_ZN4core3ptr4read17h3473fc0b0283b685E>:
    a724: 20 d0 4d e2  	sub	sp, sp, #32
    a728: 04 00 8d e5  	str	r0, [sp, #4]
    a72c: 0c 00 8d e5  	str	r0, [sp, #12]
    a730: 10 00 9d e5  	ldr	r0, [sp, #16]
    a734: 08 00 8d e5  	str	r0, [sp, #8]
    a738: ff ff ff ea  	b	#-4 <_ZN4core3ptr4read17h3473fc0b0283b685E+0x18>
    a73c: 08 00 8d e2  	add	r0, sp, #8
    a740: 14 00 8d e5  	str	r0, [sp, #20]
    a744: ff ff ff ea  	b	#-4 <_ZN4core3ptr4read17h3473fc0b0283b685E+0x24>
    a748: 04 00 9d e5  	ldr	r0, [sp, #4]
    a74c: 00 00 90 e5  	ldr	r0, [r0]
    a750: 08 00 8d e5  	str	r0, [sp, #8]
    a754: 08 00 9d e5  	ldr	r0, [sp, #8]
    a758: 00 00 8d e5  	str	r0, [sp]
    a75c: 18 00 8d e5  	str	r0, [sp, #24]
    a760: 1c 00 8d e5  	str	r0, [sp, #28]
    a764: ff ff ff ea  	b	#-4 <_ZN4core3ptr4read17h3473fc0b0283b685E+0x44>
    a768: 00 00 9d e5  	ldr	r0, [sp]
    a76c: 20 d0 8d e2  	add	sp, sp, #32
    a770: 1e ff 2f e1  	bx	lr

0000a774 <_ZN4core3ptr4read17h82833b6a1cadad05E>:
    a774: 1c d0 4d e2  	sub	sp, sp, #28
    a778: 04 00 8d e5  	str	r0, [sp, #4]
    a77c: 0c 00 8d e5  	str	r0, [sp, #12]
    a780: 13 00 dd e5  	ldrb	r0, [sp, #19]
    a784: 0b 00 cd e5  	strb	r0, [sp, #11]
    a788: ff ff ff ea  	b	#-4 <_ZN4core3ptr4read17h82833b6a1cadad05E+0x18>
    a78c: 0b 00 8d e2  	add	r0, sp, #11
    a790: 14 00 8d e5  	str	r0, [sp, #20]
    a794: ff ff ff ea  	b	#-4 <_ZN4core3ptr4read17h82833b6a1cadad05E+0x24>
    a798: 04 00 9d e5  	ldr	r0, [sp, #4]
    a79c: 00 00 d0 e5  	ldrb	r0, [r0]
    a7a0: 0b 00 cd e5  	strb	r0, [sp, #11]
    a7a4: 0b 00 dd e5  	ldrb	r0, [sp, #11]
    a7a8: 00 10 a0 e1  	mov	r1, r0
    a7ac: 00 10 8d e5  	str	r1, [sp]
    a7b0: 1a 00 cd e5  	strb	r0, [sp, #26]
    a7b4: 1b 00 cd e5  	strb	r0, [sp, #27]
    a7b8: ff ff ff ea  	b	#-4 <_ZN4core3ptr4read17h82833b6a1cadad05E+0x48>
    a7bc: 00 00 9d e5  	ldr	r0, [sp]
    a7c0: 1c d0 8d e2  	add	sp, sp, #28
    a7c4: 1e ff 2f e1  	bx	lr

0000a7c8 <_ZN4core3ptr5write17h41ed2670b0606b5fE>:
    a7c8: 0c d0 4d e2  	sub	sp, sp, #12
    a7cc: 00 10 8d e5  	str	r1, [sp]
    a7d0: 00 10 a0 e1  	mov	r1, r0
    a7d4: 00 00 9d e5  	ldr	r0, [sp]
    a7d8: 07 00 cd e5  	strb	r0, [sp, #7]
    a7dc: 08 10 8d e5  	str	r1, [sp, #8]
    a7e0: 07 00 dd e5  	ldrb	r0, [sp, #7]
    a7e4: 00 00 c1 e5  	strb	r0, [r1]
    a7e8: 0c d0 8d e2  	add	sp, sp, #12
    a7ec: 1e ff 2f e1  	bx	lr

0000a7f0 <_ZN4core3ptr5write17hcc50e8a29615fba3E>:
    a7f0: 0c d0 4d e2  	sub	sp, sp, #12
    a7f4: 00 10 8d e5  	str	r1, [sp]
    a7f8: 00 10 a0 e1  	mov	r1, r0
    a7fc: 00 00 9d e5  	ldr	r0, [sp]
    a800: 04 00 8d e5  	str	r0, [sp, #4]
    a804: 08 10 8d e5  	str	r1, [sp, #8]
    a808: 04 00 9d e5  	ldr	r0, [sp, #4]
    a80c: 00 00 81 e5  	str	r0, [r1]
    a810: 0c d0 8d e2  	add	sp, sp, #12
    a814: 1e ff 2f e1  	bx	lr

0000a818 <_ZN4core3ptr5write17hd1ac115afc87545cE>:
    a818: 0c d0 4d e2  	sub	sp, sp, #12
    a81c: 00 10 8d e5  	str	r1, [sp]
    a820: 00 10 a0 e1  	mov	r1, r0
    a824: 00 00 9d e5  	ldr	r0, [sp]
    a828: 04 00 8d e5  	str	r0, [sp, #4]
    a82c: 08 10 8d e5  	str	r1, [sp, #8]
    a830: 04 00 9d e5  	ldr	r0, [sp, #4]
    a834: 00 00 81 e5  	str	r0, [r1]
    a838: 0c d0 8d e2  	add	sp, sp, #12
    a83c: 1e ff 2f e1  	bx	lr

0000a840 <_ZN4core3ptr13read_volatile17hc050ce1962d20f3dE>:
    a840: 00 48 2d e9  	push	{r11, lr}
    a844: 18 d0 4d e2  	sub	sp, sp, #24
    a848: 08 00 8d e5  	str	r0, [sp, #8]
    a84c: 10 00 8d e5  	str	r0, [sp, #16]
    a850: c5 fa ff eb  	bl	#-5356 <_ZN4core10intrinsics23is_aligned_and_not_null17h6209c0cd9c9d888aE>
    a854: 0c 00 8d e5  	str	r0, [sp, #12]
    a858: ff ff ff ea  	b	#-4 <_ZN4core3ptr13read_volatile17hc050ce1962d20f3dE+0x1c>
    a85c: 0c 00 9d e5  	ldr	r0, [sp, #12]
    a860: 01 00 10 e3  	tst	r0, #1
    a864: 06 00 00 0a  	beq	#24 <_ZN4core3ptr13read_volatile17hc050ce1962d20f3dE+0x44>
    a868: ff ff ff ea  	b	#-4 <_ZN4core3ptr13read_volatile17hc050ce1962d20f3dE+0x2c>
    a86c: 08 00 9d e5  	ldr	r0, [sp, #8]
    a870: 00 00 90 e5  	ldr	r0, [r0]
    a874: 14 00 8d e5  	str	r0, [sp, #20]
    a878: 14 00 9d e5  	ldr	r0, [sp, #20]
    a87c: 04 00 8d e5  	str	r0, [sp, #4]
    a880: 01 00 00 ea  	b	#4 <_ZN4core3ptr13read_volatile17hc050ce1962d20f3dE+0x4c>
    a884: fe de ff e7  	trap
    a888: fe de ff e7  	trap
    a88c: 04 00 9d e5  	ldr	r0, [sp, #4]
    a890: 18 d0 8d e2  	add	sp, sp, #24
    a894: 00 88 bd e8  	pop	{r11, pc}

0000a898 <_ZN4core3ptr12align_offset17h7dced9cb56e93b5fE>:
    a898: 00 48 2d e9  	push	{r11, lr}
    a89c: a0 d0 4d e2  	sub	sp, sp, #160
    a8a0: 3c 10 8d e5  	str	r1, [sp, #60]
    a8a4: 40 00 8d e5  	str	r0, [sp, #64]
    a8a8: 48 00 8d e5  	str	r0, [sp, #72]
    a8ac: 4c 10 8d e5  	str	r1, [sp, #76]
    a8b0: 01 00 a0 e3  	mov	r0, #1
    a8b4: 50 00 8d e5  	str	r0, [sp, #80]
    a8b8: ff ff ff ea  	b	#-4 <_ZN4core3ptr12align_offset17h7dced9cb56e93b5fE+0x24>
    a8bc: 3c 00 9d e5  	ldr	r0, [sp, #60]
    a8c0: 01 00 40 e2  	sub	r0, r0, #1
    a8c4: 54 00 8d e5  	str	r0, [sp, #84]
    a8c8: 54 00 9d e5  	ldr	r0, [sp, #84]
    a8cc: 38 00 8d e5  	str	r0, [sp, #56]
    a8d0: 58 00 8d e5  	str	r0, [sp, #88]
    a8d4: ff ff ff ea  	b	#-4 <_ZN4core3ptr12align_offset17h7dced9cb56e93b5fE+0x40>
    a8d8: 00 00 a0 e3  	mov	r0, #0
    a8dc: 00 00 50 e3  	cmp	r0, #0
    a8e0: 09 00 00 1a  	bne	#36 <_ZN4core3ptr12align_offset17h7dced9cb56e93b5fE+0x74>
    a8e4: ff ff ff ea  	b	#-4 <_ZN4core3ptr12align_offset17h7dced9cb56e93b5fE+0x50>
    a8e8: 40 10 9d e5  	ldr	r1, [sp, #64]
    a8ec: 3c 20 9d e5  	ldr	r2, [sp, #60]
    a8f0: 38 00 9d e5  	ldr	r0, [sp, #56]
    a8f4: 00 00 81 e0  	add	r0, r1, r0
    a8f8: 00 20 62 e2  	rsb	r2, r2, #0
    a8fc: 02 00 00 e0  	and	r0, r0, r2
    a900: 01 00 40 e0  	sub	r0, r0, r1
    a904: 44 00 8d e5  	str	r0, [sp, #68]
    a908: 4a 00 00 ea  	b	#296 <_ZN4core3ptr12align_offset17h7dced9cb56e93b5fE+0x1a0>
    a90c: 40 00 9d e5  	ldr	r0, [sp, #64]
    a910: 38 10 9d e5  	ldr	r1, [sp, #56]
    a914: 01 00 00 e0  	and	r0, r0, r1
    a918: 34 00 8d e5  	str	r0, [sp, #52]
    a91c: 5c 00 8d e5  	str	r0, [sp, #92]
    a920: 00 00 50 e3  	cmp	r0, #0
    a924: 03 00 00 1a  	bne	#12 <_ZN4core3ptr12align_offset17h7dced9cb56e93b5fE+0xa0>
    a928: ff ff ff ea  	b	#-4 <_ZN4core3ptr12align_offset17h7dced9cb56e93b5fE+0x94>
    a92c: 00 00 a0 e3  	mov	r0, #0
    a930: 44 00 8d e5  	str	r0, [sp, #68]
    a934: 3f 00 00 ea  	b	#252 <_ZN4core3ptr12align_offset17h7dced9cb56e93b5fE+0x1a0>
    a938: 01 00 a0 e3  	mov	r0, #1
    a93c: 00 00 50 e3  	cmp	r0, #0
    a940: 03 00 00 1a  	bne	#12 <_ZN4core3ptr12align_offset17h7dced9cb56e93b5fE+0xbc>
    a944: ff ff ff ea  	b	#-4 <_ZN4core3ptr12align_offset17h7dced9cb56e93b5fE+0xb0>
    a948: 00 00 e0 e3  	mvn	r0, #0
    a94c: 44 00 8d e5  	str	r0, [sp, #68]
    a950: 38 00 00 ea  	b	#224 <_ZN4core3ptr12align_offset17h7dced9cb56e93b5fE+0x1a0>
    a954: 38 00 9d e5  	ldr	r0, [sp, #56]
    a958: 01 00 00 e2  	and	r0, r0, #1
    a95c: 2c 00 8d e5  	str	r0, [sp, #44]
    a960: 60 00 8d e5  	str	r0, [sp, #96]
    a964: 00 00 a0 e3  	mov	r0, #0
    a968: 64 00 8d e5  	str	r0, [sp, #100]
    a96c: 64 00 9d e5  	ldr	r0, [sp, #100]
    a970: 30 00 8d e5  	str	r0, [sp, #48]
    a974: ff ff ff ea  	b	#-4 <_ZN4core3ptr12align_offset17h7dced9cb56e93b5fE+0xe0>
    a978: 3c 10 9d e5  	ldr	r1, [sp, #60]
    a97c: 01 00 41 e2  	sub	r0, r1, #1
    a980: 01 00 c0 e1  	bic	r0, r0, r1
    a984: 10 0f 6f e1  	clz	r0, r0
    a988: 20 00 60 e2  	rsb	r0, r0, #32
    a98c: 68 00 8d e5  	str	r0, [sp, #104]
    a990: 68 00 9d e5  	ldr	r0, [sp, #104]
    a994: 28 00 8d e5  	str	r0, [sp, #40]
    a998: ff ff ff ea  	b	#-4 <_ZN4core3ptr12align_offset17h7dced9cb56e93b5fE+0x104>
    a99c: 28 10 9d e5  	ldr	r1, [sp, #40]
    a9a0: 30 00 9d e5  	ldr	r0, [sp, #48]
    a9a4: a8 00 00 eb  	bl	#672 <_ZN4core3cmp3Ord3min17h4dfc62cab0572f9aE>
    a9a8: 00 10 a0 e1  	mov	r1, r0
    a9ac: 24 10 8d e5  	str	r1, [sp, #36]
    a9b0: 6c 00 8d e5  	str	r0, [sp, #108]
    a9b4: ff ff ff ea  	b	#-4 <_ZN4core3ptr12align_offset17h7dced9cb56e93b5fE+0x120>
    a9b8: 24 10 9d e5  	ldr	r1, [sp, #36]
    a9bc: 01 00 a0 e3  	mov	r0, #1
    a9c0: 10 01 a0 e1  	lsl	r0, r0, r1
    a9c4: 70 00 8d e5  	str	r0, [sp, #112]
    a9c8: 70 00 9d e5  	ldr	r0, [sp, #112]
    a9cc: 20 00 8d e5  	str	r0, [sp, #32]
    a9d0: 74 00 8d e5  	str	r0, [sp, #116]
    a9d4: ff ff ff ea  	b	#-4 <_ZN4core3ptr12align_offset17h7dced9cb56e93b5fE+0x140>
    a9d8: 20 00 9d e5  	ldr	r0, [sp, #32]
    a9dc: 40 10 9d e5  	ldr	r1, [sp, #64]
    a9e0: 18 10 8d e5  	str	r1, [sp, #24]
    a9e4: 01 00 40 e2  	sub	r0, r0, #1
    a9e8: 78 00 8d e5  	str	r0, [sp, #120]
    a9ec: 78 00 9d e5  	ldr	r0, [sp, #120]
    a9f0: 1c 00 8d e5  	str	r0, [sp, #28]
    a9f4: ff ff ff ea  	b	#-4 <_ZN4core3ptr12align_offset17h7dced9cb56e93b5fE+0x160>
    a9f8: 18 00 9d e5  	ldr	r0, [sp, #24]
    a9fc: 1c 10 9d e5  	ldr	r1, [sp, #28]
    aa00: 01 00 10 e1  	tst	r0, r1
    aa04: 08 00 00 1a  	bne	#32 <_ZN4core3ptr12align_offset17h7dced9cb56e93b5fE+0x194>
    aa08: ff ff ff ea  	b	#-4 <_ZN4core3ptr12align_offset17h7dced9cb56e93b5fE+0x174>
    aa0c: 3c 00 9d e5  	ldr	r0, [sp, #60]
    aa10: 24 10 9d e5  	ldr	r1, [sp, #36]
    aa14: 30 01 a0 e1  	lsr	r0, r0, r1
    aa18: 7c 00 8d e5  	str	r0, [sp, #124]
    aa1c: 7c 00 9d e5  	ldr	r0, [sp, #124]
    aa20: 14 00 8d e5  	str	r0, [sp, #20]
    aa24: 80 00 8d e5  	str	r0, [sp, #128]
    aa28: 05 00 00 ea  	b	#20 <_ZN4core3ptr12align_offset17h7dced9cb56e93b5fE+0x1ac>
    aa2c: 00 00 e0 e3  	mvn	r0, #0
    aa30: 44 00 8d e5  	str	r0, [sp, #68]
    aa34: ff ff ff ea  	b	#-4 <_ZN4core3ptr12align_offset17h7dced9cb56e93b5fE+0x1a0>
    aa38: 44 00 9d e5  	ldr	r0, [sp, #68]
    aa3c: a0 d0 8d e2  	add	sp, sp, #160
    aa40: 00 88 bd e8  	pop	{r11, pc}
    aa44: 14 00 9d e5  	ldr	r0, [sp, #20]
    aa48: 01 00 40 e2  	sub	r0, r0, #1
    aa4c: 84 00 8d e5  	str	r0, [sp, #132]
    aa50: 84 00 9d e5  	ldr	r0, [sp, #132]
    aa54: 10 00 8d e5  	str	r0, [sp, #16]
    aa58: 88 00 8d e5  	str	r0, [sp, #136]
    aa5c: ff ff ff ea  	b	#-4 <_ZN4core3ptr12align_offset17h7dced9cb56e93b5fE+0x1c8>
    aa60: 2c 00 9d e5  	ldr	r0, [sp, #44]
    aa64: 24 10 9d e5  	ldr	r1, [sp, #36]
    aa68: 30 01 a0 e1  	lsr	r0, r0, r1
    aa6c: 8c 00 8d e5  	str	r0, [sp, #140]
    aa70: 8c 00 9d e5  	ldr	r0, [sp, #140]
    aa74: 0c 00 8d e5  	str	r0, [sp, #12]
    aa78: 90 00 8d e5  	str	r0, [sp, #144]
    aa7c: ff ff ff ea  	b	#-4 <_ZN4core3ptr12align_offset17h7dced9cb56e93b5fE+0x1e8>
    aa80: 34 00 9d e5  	ldr	r0, [sp, #52]
    aa84: 24 10 9d e5  	ldr	r1, [sp, #36]
    aa88: 30 01 a0 e1  	lsr	r0, r0, r1
    aa8c: 94 00 8d e5  	str	r0, [sp, #148]
    aa90: 94 00 9d e5  	ldr	r0, [sp, #148]
    aa94: 08 00 8d e5  	str	r0, [sp, #8]
    aa98: ff ff ff ea  	b	#-4 <_ZN4core3ptr12align_offset17h7dced9cb56e93b5fE+0x204>
    aa9c: 14 00 9d e5  	ldr	r0, [sp, #20]
    aaa0: 08 10 9d e5  	ldr	r1, [sp, #8]
    aaa4: 01 00 40 e0  	sub	r0, r0, r1
    aaa8: 98 00 8d e5  	str	r0, [sp, #152]
    aaac: 98 00 9d e5  	ldr	r0, [sp, #152]
    aab0: 04 00 8d e5  	str	r0, [sp, #4]
    aab4: 9c 00 8d e5  	str	r0, [sp, #156]
    aab8: ff ff ff ea  	b	#-4 <_ZN4core3ptr12align_offset17h7dced9cb56e93b5fE+0x224>
    aabc: 14 10 9d e5  	ldr	r1, [sp, #20]
    aac0: 0c 00 9d e5  	ldr	r0, [sp, #12]
    aac4: 08 00 00 eb  	bl	#32 <_ZN4core3ptr12align_offset7mod_inv17h2dd2e6f553a56476E>
    aac8: 00 00 8d e5  	str	r0, [sp]
    aacc: ff ff ff ea  	b	#-4 <_ZN4core3ptr12align_offset17h7dced9cb56e93b5fE+0x238>
    aad0: 10 10 9d e5  	ldr	r1, [sp, #16]
    aad4: 04 00 9d e5  	ldr	r0, [sp, #4]
    aad8: 00 20 9d e5  	ldr	r2, [sp]
    aadc: 90 02 00 e0  	mul	r0, r0, r2
    aae0: 01 00 00 e0  	and	r0, r0, r1
    aae4: 44 00 8d e5  	str	r0, [sp, #68]
    aae8: d2 ff ff ea  	b	#-184 <_ZN4core3ptr12align_offset17h7dced9cb56e93b5fE+0x1a0>

0000aaec <_ZN4core3ptr12align_offset7mod_inv17h2dd2e6f553a56476E>:
    aaec: 00 48 2d e9  	push	{r11, lr}
    aaf0: 40 d0 4d e2  	sub	sp, sp, #64
    aaf4: 0c 10 8d e5  	str	r1, [sp, #12]
    aaf8: 10 00 8d e5  	str	r0, [sp, #16]
    aafc: 2c 00 8d e5  	str	r0, [sp, #44]
    ab00: 30 10 8d e5  	str	r1, [sp, #48]
    ab04: 38 31 9f e5  	ldr	r3, [pc, #312]
    ab08: 00 10 d3 e5  	ldrb	r1, [r3]
    ab0c: 01 c0 d3 e5  	ldrb	r12, [r3, #1]
    ab10: 02 20 d3 e5  	ldrb	r2, [r3, #2]
    ab14: 03 e0 d3 e5  	ldrb	lr, [r3, #3]
    ab18: 0e 24 82 e1  	orr	r2, r2, lr, lsl #8
    ab1c: 0c 14 81 e1  	orr	r1, r1, r12, lsl #8
    ab20: 02 18 81 e1  	orr	r1, r1, r2, lsl #16
    ab24: 1c 10 8d e5  	str	r1, [sp, #28]
    ab28: 05 20 d3 e5  	ldrb	r2, [r3, #5]
    ab2c: 04 10 f3 e5  	ldrb	r1, [r3, #4]!
    ab30: 02 14 81 e1  	orr	r1, r1, r2, lsl #8
    ab34: 02 20 d3 e5  	ldrb	r2, [r3, #2]
    ab38: 03 30 d3 e5  	ldrb	r3, [r3, #3]
    ab3c: 03 24 82 e1  	orr	r2, r2, r3, lsl #8
    ab40: 02 18 81 e1  	orr	r1, r1, r2, lsl #16
    ab44: 20 10 8d e5  	str	r1, [sp, #32]
    ab48: 0e 00 00 e2  	and	r0, r0, #14
    ab4c: a0 00 a0 e1  	lsr	r0, r0, #1
    ab50: 14 00 8d e5  	str	r0, [sp, #20]
    ab54: ff ff ff ea  	b	#-4 <_ZN4core3ptr12align_offset7mod_inv17h2dd2e6f553a56476E+0x6c>
    ab58: 14 00 9d e5  	ldr	r0, [sp, #20]
    ab5c: 07 00 50 e3  	cmp	r0, #7
    ab60: 0d 00 00 8a  	bhi	#52 <_ZN4core3ptr12align_offset7mod_inv17h2dd2e6f553a56476E+0xb0>
    ab64: ff ff ff ea  	b	#-4 <_ZN4core3ptr12align_offset7mod_inv17h2dd2e6f553a56476E+0x7c>
    ab68: 0c 00 9d e5  	ldr	r0, [sp, #12]
    ab6c: 14 20 9d e5  	ldr	r2, [sp, #20]
    ab70: 1c 10 8d e2  	add	r1, sp, #28
    ab74: 02 10 d1 e7  	ldrb	r1, [r1, r2]
    ab78: 01 20 a0 e1  	mov	r2, r1
    ab7c: 04 20 8d e5  	str	r2, [sp, #4]
    ab80: 34 10 8d e5  	str	r1, [sp, #52]
    ab84: 01 00 40 e2  	sub	r0, r0, #1
    ab88: 38 00 8d e5  	str	r0, [sp, #56]
    ab8c: 38 00 9d e5  	ldr	r0, [sp, #56]
    ab90: 08 00 8d e5  	str	r0, [sp, #8]
    ab94: 3c 00 8d e5  	str	r0, [sp, #60]
    ab98: 04 00 00 ea  	b	#16 <_ZN4core3ptr12align_offset7mod_inv17h2dd2e6f553a56476E+0xc4>
    ab9c: 14 00 9d e5  	ldr	r0, [sp, #20]
    aba0: a0 20 9f e5  	ldr	r2, [pc, #160]
    aba4: 08 10 a0 e3  	mov	r1, #8
    aba8: d5 04 00 eb  	bl	#4948 <_ZN4core9panicking18panic_bounds_check17h0b43d6a3154b2a88E>
    abac: fe de ff e7  	trap
    abb0: 0c 00 9d e5  	ldr	r0, [sp, #12]
    abb4: 11 00 50 e3  	cmp	r0, #17
    abb8: 05 00 00 3a  	blo	#20 <_ZN4core3ptr12align_offset7mod_inv17h2dd2e6f553a56476E+0xe8>
    abbc: ff ff ff ea  	b	#-4 <_ZN4core3ptr12align_offset7mod_inv17h2dd2e6f553a56476E+0xd4>
    abc0: 04 00 9d e5  	ldr	r0, [sp, #4]
    abc4: 24 00 8d e5  	str	r0, [sp, #36]
    abc8: 01 0c a0 e3  	mov	r0, #256
    abcc: 28 00 8d e5  	str	r0, [sp, #40]
    abd0: 07 00 00 ea  	b	#28 <_ZN4core3ptr12align_offset7mod_inv17h2dd2e6f553a56476E+0x108>
    abd4: 04 00 9d e5  	ldr	r0, [sp, #4]
    abd8: 08 10 9d e5  	ldr	r1, [sp, #8]
    abdc: 01 00 00 e0  	and	r0, r0, r1
    abe0: 18 00 8d e5  	str	r0, [sp, #24]
    abe4: ff ff ff ea  	b	#-4 <_ZN4core3ptr12align_offset7mod_inv17h2dd2e6f553a56476E+0xfc>
    abe8: 18 00 9d e5  	ldr	r0, [sp, #24]
    abec: 40 d0 8d e2  	add	sp, sp, #64
    abf0: 00 88 bd e8  	pop	{r11, pc}
    abf4: 0c 10 9d e5  	ldr	r1, [sp, #12]
    abf8: 10 20 9d e5  	ldr	r2, [sp, #16]
    abfc: 24 00 9d e5  	ldr	r0, [sp, #36]
    ac00: 92 00 02 e0  	mul	r2, r2, r0
    ac04: 02 20 62 e2  	rsb	r2, r2, #2
    ac08: 90 02 00 e0  	mul	r0, r0, r2
    ac0c: 24 00 8d e5  	str	r0, [sp, #36]
    ac10: 28 00 9d e5  	ldr	r0, [sp, #40]
    ac14: 01 00 50 e1  	cmp	r0, r1
    ac18: 04 00 00 2a  	bhs	#16 <_ZN4core3ptr12align_offset7mod_inv17h2dd2e6f553a56476E+0x144>
    ac1c: ff ff ff ea  	b	#-4 <_ZN4core3ptr12align_offset7mod_inv17h2dd2e6f553a56476E+0x134>
    ac20: 28 00 9d e5  	ldr	r0, [sp, #40]
    ac24: 90 00 00 e0  	mul	r0, r0, r0
    ac28: 28 00 8d e5  	str	r0, [sp, #40]
    ac2c: f0 ff ff ea  	b	#-64 <_ZN4core3ptr12align_offset7mod_inv17h2dd2e6f553a56476E+0x108>
    ac30: 08 10 9d e5  	ldr	r1, [sp, #8]
    ac34: 24 00 9d e5  	ldr	r0, [sp, #36]
    ac38: 01 00 00 e0  	and	r0, r0, r1
    ac3c: 18 00 8d e5  	str	r0, [sp, #24]
    ac40: e8 ff ff ea  	b	#-96 <_ZN4core3ptr12align_offset7mod_inv17h2dd2e6f553a56476E+0xfc>

0000ac44 <$d.545>:
    ac44:	f0 56 01 00	.word	0x000156f0
    ac48:	a0 57 01 00	.word	0x000157a0

0000ac4c <_ZN4core3cmp3Ord3min17h4dfc62cab0572f9aE>:
    ac4c: 00 48 2d e9  	push	{r11, lr}
    ac50: 10 d0 4d e2  	sub	sp, sp, #16
    ac54: 08 00 8d e5  	str	r0, [sp, #8]
    ac58: 0c 10 8d e5  	str	r1, [sp, #12]
    ac5c: 0e 00 00 eb  	bl	#56 <_ZN4core3cmp6min_by17h96db7358e1a3abc5E>
    ac60: 04 00 8d e5  	str	r0, [sp, #4]
    ac64: ff ff ff ea  	b	#-4 <_ZN4core3cmp3Ord3min17h4dfc62cab0572f9aE+0x1c>
    ac68: 04 00 9d e5  	ldr	r0, [sp, #4]
    ac6c: 10 d0 8d e2  	add	sp, sp, #16
    ac70: 00 88 bd e8  	pop	{r11, pc}

0000ac74 <_ZN4core3cmp3min17h6d687506da1e36f6E>:
    ac74: 00 48 2d e9  	push	{r11, lr}
    ac78: 10 d0 4d e2  	sub	sp, sp, #16
    ac7c: 08 00 8d e5  	str	r0, [sp, #8]
    ac80: 0c 10 8d e5  	str	r1, [sp, #12]
    ac84: f0 ff ff eb  	bl	#-64 <_ZN4core3cmp3Ord3min17h4dfc62cab0572f9aE>
    ac88: 04 00 8d e5  	str	r0, [sp, #4]
    ac8c: ff ff ff ea  	b	#-4 <_ZN4core3cmp3min17h6d687506da1e36f6E+0x1c>
    ac90: 04 00 9d e5  	ldr	r0, [sp, #4]
    ac94: 10 d0 8d e2  	add	sp, sp, #16
    ac98: 00 88 bd e8  	pop	{r11, pc}

0000ac9c <_ZN4core3cmp6min_by17h96db7358e1a3abc5E>:
    ac9c: 00 48 2d e9  	push	{r11, lr}
    aca0: 20 d0 4d e2  	sub	sp, sp, #32
    aca4: 00 00 8d e5  	str	r0, [sp]
    aca8: 04 10 8d e5  	str	r1, [sp, #4]
    acac: 00 00 a0 e3  	mov	r0, #0
    acb0: 1b 00 cd e5  	strb	r0, [sp, #27]
    acb4: 1a 00 cd e5  	strb	r0, [sp, #26]
    acb8: 01 00 a0 e3  	mov	r0, #1
    acbc: 1b 00 cd e5  	strb	r0, [sp, #27]
    acc0: 1a 00 cd e5  	strb	r0, [sp, #26]
    acc4: 0d 00 a0 e1  	mov	r0, sp
    acc8: 10 00 8d e5  	str	r0, [sp, #16]
    accc: 04 00 8d e2  	add	r0, sp, #4
    acd0: 14 00 8d e5  	str	r0, [sp, #20]
    acd4: 10 00 9d e5  	ldr	r0, [sp, #16]
    acd8: 14 10 9d e5  	ldr	r1, [sp, #20]
    acdc: 58 f9 ff eb  	bl	#-6816 <_ZN4core3ops8function6FnOnce9call_once17hd97bd0814c696285E>
    ace0: 0f 00 cd e5  	strb	r0, [sp, #15]
    ace4: ff ff ff ea  	b	#-4 <_ZN4core3cmp6min_by17h96db7358e1a3abc5E+0x4c>
    ace8: 0f 10 dd e5  	ldrb	r1, [sp, #15]
    acec: 01 00 81 e2  	add	r0, r1, #1
    acf0: 70 00 ef e6  	uxtb	r0, r0
    acf4: 02 00 50 e3  	cmp	r0, #2
    acf8: 02 00 00 3a  	blo	#8 <_ZN4core3cmp6min_by17h96db7358e1a3abc5E+0x6c>
    acfc: ff ff ff ea  	b	#-4 <_ZN4core3cmp6min_by17h96db7358e1a3abc5E+0x64>
    ad00: 05 00 00 ea  	b	#20 <_ZN4core3cmp6min_by17h96db7358e1a3abc5E+0x80>
    ad04: fe de ff e7  	trap
    ad08: 00 00 a0 e3  	mov	r0, #0
    ad0c: 1b 00 cd e5  	strb	r0, [sp, #27]
    ad10: 00 00 9d e5  	ldr	r0, [sp]
    ad14: 08 00 8d e5  	str	r0, [sp, #8]
    ad18: 04 00 00 ea  	b	#16 <_ZN4core3cmp6min_by17h96db7358e1a3abc5E+0x94>
    ad1c: 00 00 a0 e3  	mov	r0, #0
    ad20: 1a 00 cd e5  	strb	r0, [sp, #26]
    ad24: 04 00 9d e5  	ldr	r0, [sp, #4]
    ad28: 08 00 8d e5  	str	r0, [sp, #8]
    ad2c: ff ff ff ea  	b	#-4 <_ZN4core3cmp6min_by17h96db7358e1a3abc5E+0x94>
    ad30: 1a 00 dd e5  	ldrb	r0, [sp, #26]
    ad34: 01 00 10 e3  	tst	r0, #1
    ad38: 04 00 00 1a  	bne	#16 <_ZN4core3cmp6min_by17h96db7358e1a3abc5E+0xb4>
    ad3c: ff ff ff ea  	b	#-4 <_ZN4core3cmp6min_by17h96db7358e1a3abc5E+0xa4>
    ad40: 1b 00 dd e5  	ldrb	r0, [sp, #27]
    ad44: 01 00 10 e3  	tst	r0, #1
    ad48: 04 00 00 1a  	bne	#16 <_ZN4core3cmp6min_by17h96db7358e1a3abc5E+0xc4>
    ad4c: 00 00 00 ea  	b	#0 <_ZN4core3cmp6min_by17h96db7358e1a3abc5E+0xb8>
    ad50: fa ff ff ea  	b	#-24 <_ZN4core3cmp6min_by17h96db7358e1a3abc5E+0xa4>
    ad54: 08 00 9d e5  	ldr	r0, [sp, #8]
    ad58: 20 d0 8d e2  	add	sp, sp, #32
    ad5c: 00 88 bd e8  	pop	{r11, pc}
    ad60: fb ff ff ea  	b	#-20 <_ZN4core3cmp6min_by17h96db7358e1a3abc5E+0xb8>

0000ad64 <_ZN50_$LT$T$u20$as$u20$core..convert..From$LT$T$GT$$GT$4from17h6610ac7b74997422E>:
    ad64: 04 d0 4d e2  	sub	sp, sp, #4
    ad68: 00 00 8d e5  	str	r0, [sp]
    ad6c: 04 d0 8d e2  	add	sp, sp, #4
    ad70: 1e ff 2f e1  	bx	lr

0000ad74 <_ZN50_$LT$T$u20$as$u20$core..convert..From$LT$T$GT$$GT$4from17hec8ef8de88f19ff9E>:
    ad74: 04 d0 4d e2  	sub	sp, sp, #4
    ad78: 04 d0 8d e2  	add	sp, sp, #4
    ad7c: 1e ff 2f e1  	bx	lr

0000ad80 <_ZN36_$LT$T$u20$as$u20$core..any..Any$GT$7type_id17hd04d48d4412c3c49E>:
    ad80: 00 48 2d e9  	push	{r11, lr}
    ad84: 10 d0 4d e2  	sub	sp, sp, #16
    ad88: 0c 00 8d e5  	str	r0, [sp, #12]
    ad8c: 06 00 00 eb  	bl	#24 <_ZN4core3any6TypeId2of17ha643ce6bef11a2fdE>
    ad90: 04 10 8d e5  	str	r1, [sp, #4]
    ad94: 08 00 8d e5  	str	r0, [sp, #8]
    ad98: ff ff ff ea  	b	#-4 <_ZN36_$LT$T$u20$as$u20$core..any..Any$GT$7type_id17hd04d48d4412c3c49E+0x1c>
    ad9c: 04 10 9d e5  	ldr	r1, [sp, #4]
    ada0: 08 00 9d e5  	ldr	r0, [sp, #8]
    ada4: 10 d0 8d e2  	add	sp, sp, #16
    ada8: 00 88 bd e8  	pop	{r11, pc}

0000adac <_ZN4core3any6TypeId2of17ha643ce6bef11a2fdE>:
    adac: 18 d0 4d e2  	sub	sp, sp, #24
    adb0: 3c 00 9f e5  	ldr	r0, [pc, #60]
    adb4: 14 00 8d e5  	str	r0, [sp, #20]
    adb8: 38 00 9f e5  	ldr	r0, [pc, #56]
    adbc: 10 00 8d e5  	str	r0, [sp, #16]
    adc0: 10 00 9d e5  	ldr	r0, [sp, #16]
    adc4: 00 00 8d e5  	str	r0, [sp]
    adc8: 14 00 9d e5  	ldr	r0, [sp, #20]
    adcc: 04 00 8d e5  	str	r0, [sp, #4]
    add0: ff ff ff ea  	b	#-4 <_ZN4core3any6TypeId2of17ha643ce6bef11a2fdE+0x28>
    add4: 04 00 9d e5  	ldr	r0, [sp, #4]
    add8: 00 10 9d e5  	ldr	r1, [sp]
    addc: 08 10 8d e5  	str	r1, [sp, #8]
    ade0: 0c 00 8d e5  	str	r0, [sp, #12]
    ade4: 08 00 9d e5  	ldr	r0, [sp, #8]
    ade8: 0c 10 9d e5  	ldr	r1, [sp, #12]
    adec: 18 d0 8d e2  	add	sp, sp, #24
    adf0: 1e ff 2f e1  	bx	lr

0000adf4 <$d.614>:
    adf4:	f9 e0 ce 92	.word	0x92cee0f9
    adf8:	d4 8a 0f 31	.word	0x310f8ad4

0000adfc <_ZN4core5array98_$LT$impl$u20$core..iter..traits..collect..IntoIterator$u20$for$u20$$RF$$u5b$T$u3b$$u20$N$u5d$$GT$9into_iter17h3c7ec5274e531605E>:
    adfc: 00 48 2d e9  	push	{r11, lr}
    ae00: 10 d0 4d e2  	sub	sp, sp, #16
    ae04: 0c 00 8d e5  	str	r0, [sp, #12]
    ae08: 04 10 a0 e3  	mov	r1, #4
    ae0c: 1d 14 00 eb  	bl	#20596 <_ZN4core5slice29_$LT$impl$u20$$u5b$T$u5d$$GT$4iter17h15255d3309400647E>
    ae10: 04 00 8d e5  	str	r0, [sp, #4]
    ae14: 08 10 8d e5  	str	r1, [sp, #8]
    ae18: ff ff ff ea  	b	#-4 <_ZN4core5array98_$LT$impl$u20$core..iter..traits..collect..IntoIterator$u20$for$u20$$RF$$u5b$T$u3b$$u20$N$u5d$$GT$9into_iter17h3c7ec5274e531605E+0x20>
    ae1c: 08 10 9d e5  	ldr	r1, [sp, #8]
    ae20: 04 00 9d e5  	ldr	r0, [sp, #4]
    ae24: 10 d0 8d e2  	add	sp, sp, #16
    ae28: 00 88 bd e8  	pop	{r11, pc}

0000ae2c <_ZN4core5array85_$LT$impl$u20$core..ops..index..Index$LT$I$GT$$u20$for$u20$$u5b$T$u3b$$u20$N$u5d$$GT$5index17h014adf7b6a71ea87E>:
    ae2c: 00 48 2d e9  	push	{r11, lr}
    ae30: 10 d0 4d e2  	sub	sp, sp, #16
    ae34: 02 30 a0 e1  	mov	r3, r2
    ae38: 01 20 a0 e1  	mov	r2, r1
    ae3c: 08 00 8d e5  	str	r0, [sp, #8]
    ae40: 0c 20 8d e5  	str	r2, [sp, #12]
    ae44: 80 10 a0 e3  	mov	r1, #128
    ae48: 86 0e 00 eb  	bl	#14872 <_ZN4core5slice5index74_$LT$impl$u20$core..ops..index..Index$LT$I$GT$$u20$for$u20$$u5b$T$u5d$$GT$5index17h4b1d96a87e06c058E>
    ae4c: 00 00 8d e5  	str	r0, [sp]
    ae50: 04 10 8d e5  	str	r1, [sp, #4]
    ae54: ff ff ff ea  	b	#-4 <_ZN4core5array85_$LT$impl$u20$core..ops..index..Index$LT$I$GT$$u20$for$u20$$u5b$T$u3b$$u20$N$u5d$$GT$5index17h014adf7b6a71ea87E+0x2c>
    ae58: 04 10 9d e5  	ldr	r1, [sp, #4]
    ae5c: 00 00 9d e5  	ldr	r0, [sp]
    ae60: 10 d0 8d e2  	add	sp, sp, #16
    ae64: 00 88 bd e8  	pop	{r11, pc}

0000ae68 <_ZN4core4char7convert8from_u3217h24f958a1bed963c3E>:
    ae68: 00 48 2d e9  	push	{r11, lr}
    ae6c: 10 d0 4d e2  	sub	sp, sp, #16
    ae70: 08 00 8d e5  	str	r0, [sp, #8]
    ae74: 25 00 00 eb  	bl	#148 <_ZN4core4char7convert17char_try_from_u3217h6bb3e43a3189a8acE>
    ae78: 04 00 8d e5  	str	r0, [sp, #4]
    ae7c: ff ff ff ea  	b	#-4 <_ZN4core4char7convert8from_u3217h24f958a1bed963c3E+0x18>
    ae80: 04 00 9d e5  	ldr	r0, [sp, #4]
    ae84: 11 18 40 e2  	sub	r1, r0, #1114112
    ae88: 11 1f 6f e1  	clz	r1, r1
    ae8c: a1 12 a0 e1  	lsr	r1, r1, #5
    ae90: 11 08 50 e3  	cmp	r0, #1114112
    ae94: 02 00 00 1a  	bne	#8 <_ZN4core4char7convert8from_u3217h24f958a1bed963c3E+0x3c>
    ae98: ff ff ff ea  	b	#-4 <_ZN4core4char7convert8from_u3217h24f958a1bed963c3E+0x34>
    ae9c: 04 00 00 ea  	b	#16 <_ZN4core4char7convert8from_u3217h24f958a1bed963c3E+0x4c>
    aea0: fe de ff e7  	trap
    aea4: 04 00 9d e5  	ldr	r0, [sp, #4]
    aea8: 0c 00 8d e5  	str	r0, [sp, #12]
    aeac: 00 00 8d e5  	str	r0, [sp]
    aeb0: 04 00 00 ea  	b	#16 <_ZN4core4char7convert8from_u3217h24f958a1bed963c3E+0x60>
    aeb4: 00 00 a0 e3  	mov	r0, #0
    aeb8: 00 00 8d e5  	str	r0, [sp]
    aebc: 11 08 a0 e3  	mov	r0, #1114112
    aec0: 00 00 8d e5  	str	r0, [sp]
    aec4: ff ff ff ea  	b	#-4 <_ZN4core4char7convert8from_u3217h24f958a1bed963c3E+0x60>
    aec8: 00 00 9d e5  	ldr	r0, [sp]
    aecc: 10 d0 8d e2  	add	sp, sp, #16
    aed0: 00 88 bd e8  	pop	{r11, pc}

0000aed4 <_ZN4core4char7convert18from_u32_unchecked17ha5af22e9e29cbbabE>:
    aed4: 00 48 2d e9  	push	{r11, lr}
    aed8: 10 d0 4d e2  	sub	sp, sp, #16
    aedc: 0c 00 8d e5  	str	r0, [sp, #12]
    aee0: 39 00 00 eb  	bl	#228 <_ZN4core4char7methods22_$LT$impl$u20$char$GT$8from_u3217h1354ded5383331daE>
    aee4: 08 00 8d e5  	str	r0, [sp, #8]
    aee8: ff ff ff ea  	b	#-4 <_ZN4core4char7convert18from_u32_unchecked17ha5af22e9e29cbbabE+0x18>
    aeec: 08 00 9d e5  	ldr	r0, [sp, #8]
    aef0: 14 10 9f e5  	ldr	r1, [pc, #20]
    aef4: b1 02 00 eb  	bl	#2756 <_ZN4core6option15Option$LT$T$GT$6unwrap17hdd28b3b95a4a07dcE>
    aef8: 04 00 8d e5  	str	r0, [sp, #4]
    aefc: ff ff ff ea  	b	#-4 <_ZN4core4char7convert18from_u32_unchecked17ha5af22e9e29cbbabE+0x2c>
    af00: 04 00 9d e5  	ldr	r0, [sp, #4]
    af04: 10 d0 8d e2  	add	sp, sp, #16
    af08: 00 88 bd e8  	pop	{r11, pc}

0000af0c <$d.664>:
    af0c:	2c 58 01 00	.word	0x0001582c

0000af10 <_ZN4core4char7convert17char_try_from_u3217h6bb3e43a3189a8acE>:
    af10: 18 d0 4d e2  	sub	sp, sp, #24
    af14: 04 00 8d e5  	str	r0, [sp, #4]
    af18: 10 00 8d e5  	str	r0, [sp, #16]
    af1c: 20 08 a0 e1  	lsr	r0, r0, #16
    af20: 10 00 50 e3  	cmp	r0, #16
    af24: 05 00 00 8a  	bhi	#20 <_ZN4core4char7convert17char_try_from_u3217h6bb3e43a3189a8acE+0x30>
    af28: ff ff ff ea  	b	#-4 <_ZN4core4char7convert17char_try_from_u3217h6bb3e43a3189a8acE+0x1c>
    af2c: 04 00 9d e5  	ldr	r0, [sp, #4]
    af30: a0 05 a0 e1  	lsr	r0, r0, #11
    af34: 1a 00 50 e3  	cmp	r0, #26
    af38: 0a 00 00 8a  	bhi	#40 <_ZN4core4char7convert17char_try_from_u3217h6bb3e43a3189a8acE+0x58>
    af3c: 06 00 00 ea  	b	#24 <_ZN4core4char7convert17char_try_from_u3217h6bb3e43a3189a8acE+0x4c>
    af40: 01 00 a0 e3  	mov	r0, #1
    af44: 0e 00 cd e5  	strb	r0, [sp, #14]
    af48: ff ff ff ea  	b	#-4 <_ZN4core4char7convert17char_try_from_u3217h6bb3e43a3189a8acE+0x3c>
    af4c: 0e 00 dd e5  	ldrb	r0, [sp, #14]
    af50: 01 00 10 e3  	tst	r0, #1
    af54: 11 00 00 1a  	bne	#68 <_ZN4core4char7convert17char_try_from_u3217h6bb3e43a3189a8acE+0x90>
    af58: 0b 00 00 ea  	b	#44 <_ZN4core4char7convert17char_try_from_u3217h6bb3e43a3189a8acE+0x7c>
    af5c: 00 00 a0 e3  	mov	r0, #0
    af60: 0f 00 cd e5  	strb	r0, [sp, #15]
    af64: 05 00 00 ea  	b	#20 <_ZN4core4char7convert17char_try_from_u3217h6bb3e43a3189a8acE+0x70>
    af68: 04 10 9d e5  	ldr	r1, [sp, #4]
    af6c: 00 00 a0 e3  	mov	r0, #0
    af70: 0e 0a 51 e3  	cmp	r1, #57344
    af74: 01 00 a0 33  	movlo	r0, #1
    af78: 0f 00 cd e5  	strb	r0, [sp, #15]
    af7c: ff ff ff ea  	b	#-4 <_ZN4core4char7convert17char_try_from_u3217h6bb3e43a3189a8acE+0x70>
    af80: 0f 00 dd e5  	ldrb	r0, [sp, #15]
    af84: 0e 00 cd e5  	strb	r0, [sp, #14]
    af88: ef ff ff ea  	b	#-68 <_ZN4core4char7convert17char_try_from_u3217h6bb3e43a3189a8acE+0x3c>
    af8c: 04 00 9d e5  	ldr	r0, [sp, #4]
    af90: 14 00 8d e5  	str	r0, [sp, #20]
    af94: 14 00 9d e5  	ldr	r0, [sp, #20]
    af98: 00 00 8d e5  	str	r0, [sp]
    af9c: 07 00 00 ea  	b	#28 <_ZN4core4char7convert17char_try_from_u3217h6bb3e43a3189a8acE+0xb0>
    afa0: 00 00 a0 e3  	mov	r0, #0
    afa4: 08 00 8d e5  	str	r0, [sp, #8]
    afa8: 11 08 a0 e3  	mov	r0, #1114112
    afac: 08 00 8d e5  	str	r0, [sp, #8]
    afb0: ff ff ff ea  	b	#-4 <_ZN4core4char7convert17char_try_from_u3217h6bb3e43a3189a8acE+0xa4>
    afb4: 08 00 9d e5  	ldr	r0, [sp, #8]
    afb8: 18 d0 8d e2  	add	sp, sp, #24
    afbc: 1e ff 2f e1  	bx	lr
    afc0: 00 00 9d e5  	ldr	r0, [sp]
    afc4: 08 00 8d e5  	str	r0, [sp, #8]
    afc8: f9 ff ff ea  	b	#-28 <_ZN4core4char7convert17char_try_from_u3217h6bb3e43a3189a8acE+0xa4>

0000afcc <_ZN4core4char7methods22_$LT$impl$u20$char$GT$8from_u3217h1354ded5383331daE>:
    afcc: 00 48 2d e9  	push	{r11, lr}
    afd0: 08 d0 4d e2  	sub	sp, sp, #8
    afd4: 04 00 8d e5  	str	r0, [sp, #4]
    afd8: a2 ff ff eb  	bl	#-376 <_ZN4core4char7convert8from_u3217h24f958a1bed963c3E>
    afdc: 00 00 8d e5  	str	r0, [sp]
    afe0: ff ff ff ea  	b	#-4 <_ZN4core4char7methods22_$LT$impl$u20$char$GT$8from_u3217h1354ded5383331daE+0x18>
    afe4: 00 00 9d e5  	ldr	r0, [sp]
    afe8: 08 d0 8d e2  	add	sp, sp, #8
    afec: 00 88 bd e8  	pop	{r11, pc}

0000aff0 <_ZN4core4iter8adapters9enumerate18Enumerate$LT$I$GT$3new17h30a86619e2211648E>:
    aff0: 0c d0 4d e2  	sub	sp, sp, #12
    aff4: 00 10 8d e5  	str	r1, [sp]
    aff8: 00 10 a0 e1  	mov	r1, r0
    affc: 00 00 9d e5  	ldr	r0, [sp]
    b000: 04 00 8d e5  	str	r0, [sp, #4]
    b004: 08 20 8d e5  	str	r2, [sp, #8]
    b008: 00 00 81 e5  	str	r0, [r1]
    b00c: 04 20 81 e5  	str	r2, [r1, #4]
    b010: 00 00 a0 e3  	mov	r0, #0
    b014: 08 00 81 e5  	str	r0, [r1, #8]
    b018: 0c d0 8d e2  	add	sp, sp, #12
    b01c: 1e ff 2f e1  	bx	lr

0000b020 <_ZN4core4iter8adapters9enumerate18Enumerate$LT$I$GT$3new17h3c91e6ea800288abE>:
    b020: 0c d0 4d e2  	sub	sp, sp, #12
    b024: 00 10 8d e5  	str	r1, [sp]
    b028: 00 10 a0 e1  	mov	r1, r0
    b02c: 00 00 9d e5  	ldr	r0, [sp]
    b030: 04 00 8d e5  	str	r0, [sp, #4]
    b034: 08 20 8d e5  	str	r2, [sp, #8]
    b038: 00 00 81 e5  	str	r0, [r1]
    b03c: 04 20 81 e5  	str	r2, [r1, #4]
    b040: 00 00 a0 e3  	mov	r0, #0
    b044: 08 00 81 e5  	str	r0, [r1, #8]
    b048: 0c d0 8d e2  	add	sp, sp, #12
    b04c: 1e ff 2f e1  	bx	lr

0000b050 <_ZN110_$LT$core..iter..adapters..enumerate..Enumerate$LT$I$GT$$u20$as$u20$core..iter..traits..iterator..Iterator$GT$4next17h1e2fd37d8b362b23E>:
    b050: 00 48 2d e9  	push	{r11, lr}
    b054: 40 d0 4d e2  	sub	sp, sp, #64
    b058: 10 00 8d e5  	str	r0, [sp, #16]
    b05c: 2c 00 8d e5  	str	r0, [sp, #44]
    b060: b3 20 00 eb  	bl	#33484 <_ZN91_$LT$core..slice..iter..Iter$LT$T$GT$$u20$as$u20$core..iter..traits..iterator..Iterator$GT$4next17he4c19282d38a2c08E>
    b064: 14 00 8d e5  	str	r0, [sp, #20]
    b068: ff ff ff ea  	b	#-4 <_ZN110_$LT$core..iter..adapters..enumerate..Enumerate$LT$I$GT$$u20$as$u20$core..iter..traits..iterator..Iterator$GT$4next17h1e2fd37d8b362b23E+0x1c>
    b06c: 14 00 9d e5  	ldr	r0, [sp, #20]
    b070: 1a 03 00 eb  	bl	#3176 <_ZN75_$LT$core..option..Option$LT$T$GT$$u20$as$u20$core..ops..try_trait..Try$GT$6branch17h172a407fe4f652a4E>
    b074: 20 00 8d e5  	str	r0, [sp, #32]
    b078: ff ff ff ea  	b	#-4 <_ZN110_$LT$core..iter..adapters..enumerate..Enumerate$LT$I$GT$$u20$as$u20$core..iter..traits..iterator..Iterator$GT$4next17h1e2fd37d8b362b23E+0x2c>
    b07c: 20 00 9d e5  	ldr	r0, [sp, #32]
    b080: 10 1f 6f e1  	clz	r1, r0
    b084: a1 12 a0 e1  	lsr	r1, r1, #5
    b088: 00 00 50 e3  	cmp	r0, #0
    b08c: 02 00 00 1a  	bne	#8 <_ZN110_$LT$core..iter..adapters..enumerate..Enumerate$LT$I$GT$$u20$as$u20$core..iter..traits..iterator..Iterator$GT$4next17h1e2fd37d8b362b23E+0x4c>
    b090: ff ff ff ea  	b	#-4 <_ZN110_$LT$core..iter..adapters..enumerate..Enumerate$LT$I$GT$$u20$as$u20$core..iter..traits..iterator..Iterator$GT$4next17h1e2fd37d8b362b23E+0x44>
    b094: 0e 00 00 ea  	b	#56 <_ZN110_$LT$core..iter..adapters..enumerate..Enumerate$LT$I$GT$$u20$as$u20$core..iter..traits..iterator..Iterator$GT$4next17h1e2fd37d8b362b23E+0x84>
    b098: fe de ff e7  	trap
    b09c: 10 00 9d e5  	ldr	r0, [sp, #16]
    b0a0: 20 10 9d e5  	ldr	r1, [sp, #32]
    b0a4: 04 10 8d e5  	str	r1, [sp, #4]
    b0a8: 34 10 8d e5  	str	r1, [sp, #52]
    b0ac: 38 10 8d e5  	str	r1, [sp, #56]
    b0b0: 08 10 90 e5  	ldr	r1, [r0, #8]
    b0b4: 08 10 8d e5  	str	r1, [sp, #8]
    b0b8: 3c 10 8d e5  	str	r1, [sp, #60]
    b0bc: 08 10 90 e5  	ldr	r1, [r0, #8]
    b0c0: 01 00 81 e2  	add	r0, r1, #1
    b0c4: 0c 00 8d e5  	str	r0, [sp, #12]
    b0c8: 01 00 50 e1  	cmp	r0, r1
    b0cc: 14 00 00 3a  	blo	#80 <_ZN110_$LT$core..iter..adapters..enumerate..Enumerate$LT$I$GT$$u20$as$u20$core..iter..traits..iterator..Iterator$GT$4next17h1e2fd37d8b362b23E+0xd4>
    b0d0: 07 00 00 ea  	b	#28 <_ZN110_$LT$core..iter..adapters..enumerate..Enumerate$LT$I$GT$$u20$as$u20$core..iter..traits..iterator..Iterator$GT$4next17h1e2fd37d8b362b23E+0xa4>
    b0d4: 4d 03 00 eb  	bl	#3380 <_ZN84_$LT$core..option..Option$LT$T$GT$$u20$as$u20$core..ops..try_trait..FromResidual$GT$13from_residual17he5c01615d13b92aaE>
    b0d8: 1c 10 8d e5  	str	r1, [sp, #28]
    b0dc: 18 00 8d e5  	str	r0, [sp, #24]
    b0e0: ff ff ff ea  	b	#-4 <_ZN110_$LT$core..iter..adapters..enumerate..Enumerate$LT$I$GT$$u20$as$u20$core..iter..traits..iterator..Iterator$GT$4next17h1e2fd37d8b362b23E+0x94>
    b0e4: 18 00 9d e5  	ldr	r0, [sp, #24]
    b0e8: 1c 10 9d e5  	ldr	r1, [sp, #28]
    b0ec: 40 d0 8d e2  	add	sp, sp, #64
    b0f0: 00 88 bd e8  	pop	{r11, pc}
    b0f4: 04 00 9d e5  	ldr	r0, [sp, #4]
    b0f8: 08 10 9d e5  	ldr	r1, [sp, #8]
    b0fc: 0c 20 9d e5  	ldr	r2, [sp, #12]
    b100: 10 30 9d e5  	ldr	r3, [sp, #16]
    b104: 08 20 83 e5  	str	r2, [r3, #8]
    b108: 24 10 8d e5  	str	r1, [sp, #36]
    b10c: 28 00 8d e5  	str	r0, [sp, #40]
    b110: 24 10 9d e5  	ldr	r1, [sp, #36]
    b114: 28 00 9d e5  	ldr	r0, [sp, #40]
    b118: 18 10 8d e5  	str	r1, [sp, #24]
    b11c: 1c 00 8d e5  	str	r0, [sp, #28]
    b120: ef ff ff ea  	b	#-68 <_ZN110_$LT$core..iter..adapters..enumerate..Enumerate$LT$I$GT$$u20$as$u20$core..iter..traits..iterator..Iterator$GT$4next17h1e2fd37d8b362b23E+0x94>
    b124: 0c 00 9f e5  	ldr	r0, [pc, #12]
    b128: 0c 20 9f e5  	ldr	r2, [pc, #12]
    b12c: 1c 10 a0 e3  	mov	r1, #28
    b130: 5f 03 00 eb  	bl	#3452 <_ZN4core9panicking5panic17h70f755644c6683e5E>
    b134: fe de ff e7  	trap

0000b138 <$d.765>:
    b138:	00 52 01 00	.word	0x00015200
    b13c:	c4 58 01 00	.word	0x000158c4

0000b140 <_ZN110_$LT$core..iter..adapters..enumerate..Enumerate$LT$I$GT$$u20$as$u20$core..iter..traits..iterator..Iterator$GT$4next17hddd185bba0331b1dE>:
    b140: 00 48 2d e9  	push	{r11, lr}
    b144: 40 d0 4d e2  	sub	sp, sp, #64
    b148: 10 00 8d e5  	str	r0, [sp, #16]
    b14c: 2c 00 8d e5  	str	r0, [sp, #44]
    b150: 31 20 00 eb  	bl	#32964 <_ZN91_$LT$core..slice..iter..Iter$LT$T$GT$$u20$as$u20$core..iter..traits..iterator..Iterator$GT$4next17h8b9620239a978897E>
    b154: 14 00 8d e5  	str	r0, [sp, #20]
    b158: ff ff ff ea  	b	#-4 <_ZN110_$LT$core..iter..adapters..enumerate..Enumerate$LT$I$GT$$u20$as$u20$core..iter..traits..iterator..Iterator$GT$4next17hddd185bba0331b1dE+0x1c>
    b15c: 14 00 9d e5  	ldr	r0, [sp, #20]
    b160: c9 02 00 eb  	bl	#2852 <_ZN75_$LT$core..option..Option$LT$T$GT$$u20$as$u20$core..ops..try_trait..Try$GT$6branch17h0370284d3a85f031E>
    b164: 20 00 8d e5  	str	r0, [sp, #32]
    b168: ff ff ff ea  	b	#-4 <_ZN110_$LT$core..iter..adapters..enumerate..Enumerate$LT$I$GT$$u20$as$u20$core..iter..traits..iterator..Iterator$GT$4next17hddd185bba0331b1dE+0x2c>
    b16c: 20 00 9d e5  	ldr	r0, [sp, #32]
    b170: 10 1f 6f e1  	clz	r1, r0
    b174: a1 12 a0 e1  	lsr	r1, r1, #5
    b178: 00 00 50 e3  	cmp	r0, #0
    b17c: 02 00 00 1a  	bne	#8 <_ZN110_$LT$core..iter..adapters..enumerate..Enumerate$LT$I$GT$$u20$as$u20$core..iter..traits..iterator..Iterator$GT$4next17hddd185bba0331b1dE+0x4c>
    b180: ff ff ff ea  	b	#-4 <_ZN110_$LT$core..iter..adapters..enumerate..Enumerate$LT$I$GT$$u20$as$u20$core..iter..traits..iterator..Iterator$GT$4next17hddd185bba0331b1dE+0x44>
    b184: 0e 00 00 ea  	b	#56 <_ZN110_$LT$core..iter..adapters..enumerate..Enumerate$LT$I$GT$$u20$as$u20$core..iter..traits..iterator..Iterator$GT$4next17hddd185bba0331b1dE+0x84>
    b188: fe de ff e7  	trap
    b18c: 10 00 9d e5  	ldr	r0, [sp, #16]
    b190: 20 10 9d e5  	ldr	r1, [sp, #32]
    b194: 04 10 8d e5  	str	r1, [sp, #4]
    b198: 34 10 8d e5  	str	r1, [sp, #52]
    b19c: 38 10 8d e5  	str	r1, [sp, #56]
    b1a0: 08 10 90 e5  	ldr	r1, [r0, #8]
    b1a4: 08 10 8d e5  	str	r1, [sp, #8]
    b1a8: 3c 10 8d e5  	str	r1, [sp, #60]
    b1ac: 08 10 90 e5  	ldr	r1, [r0, #8]
    b1b0: 01 00 81 e2  	add	r0, r1, #1
    b1b4: 0c 00 8d e5  	str	r0, [sp, #12]
    b1b8: 01 00 50 e1  	cmp	r0, r1
    b1bc: 14 00 00 3a  	blo	#80 <_ZN110_$LT$core..iter..adapters..enumerate..Enumerate$LT$I$GT$$u20$as$u20$core..iter..traits..iterator..Iterator$GT$4next17hddd185bba0331b1dE+0xd4>
    b1c0: 07 00 00 ea  	b	#28 <_ZN110_$LT$core..iter..adapters..enumerate..Enumerate$LT$I$GT$$u20$as$u20$core..iter..traits..iterator..Iterator$GT$4next17hddd185bba0331b1dE+0xa4>
    b1c4: 1a 03 00 eb  	bl	#3176 <_ZN84_$LT$core..option..Option$LT$T$GT$$u20$as$u20$core..ops..try_trait..FromResidual$GT$13from_residual17hf243c3f500f9a7ebE>
    b1c8: 1c 10 8d e5  	str	r1, [sp, #28]
    b1cc: 18 00 8d e5  	str	r0, [sp, #24]
    b1d0: ff ff ff ea  	b	#-4 <_ZN110_$LT$core..iter..adapters..enumerate..Enumerate$LT$I$GT$$u20$as$u20$core..iter..traits..iterator..Iterator$GT$4next17hddd185bba0331b1dE+0x94>
    b1d4: 18 00 9d e5  	ldr	r0, [sp, #24]
    b1d8: 1c 10 9d e5  	ldr	r1, [sp, #28]
    b1dc: 40 d0 8d e2  	add	sp, sp, #64
    b1e0: 00 88 bd e8  	pop	{r11, pc}
    b1e4: 04 00 9d e5  	ldr	r0, [sp, #4]
    b1e8: 08 10 9d e5  	ldr	r1, [sp, #8]
    b1ec: 0c 20 9d e5  	ldr	r2, [sp, #12]
    b1f0: 10 30 9d e5  	ldr	r3, [sp, #16]
    b1f4: 08 20 83 e5  	str	r2, [r3, #8]
    b1f8: 24 10 8d e5  	str	r1, [sp, #36]
    b1fc: 28 00 8d e5  	str	r0, [sp, #40]
    b200: 24 10 9d e5  	ldr	r1, [sp, #36]
    b204: 28 00 9d e5  	ldr	r0, [sp, #40]
    b208: 18 10 8d e5  	str	r1, [sp, #24]
    b20c: 1c 00 8d e5  	str	r0, [sp, #28]
    b210: ef ff ff ea  	b	#-68 <_ZN110_$LT$core..iter..adapters..enumerate..Enumerate$LT$I$GT$$u20$as$u20$core..iter..traits..iterator..Iterator$GT$4next17hddd185bba0331b1dE+0x94>
    b214: 0c 00 9f e5  	ldr	r0, [pc, #12]
    b218: 0c 20 9f e5  	ldr	r2, [pc, #12]
    b21c: 1c 10 a0 e3  	mov	r1, #28
    b220: 23 03 00 eb  	bl	#3212 <_ZN4core9panicking5panic17h70f755644c6683e5E>
    b224: fe de ff e7  	trap

0000b228 <$d.771>:
    b228:	00 52 01 00	.word	0x00015200
    b22c:	c4 58 01 00	.word	0x000158c4

0000b230 <_ZN4core4iter8adapters6filter19Filter$LT$I$C$P$GT$3new17hda6d6ee773a1a87fE>:
    b230: 14 d0 4d e2  	sub	sp, sp, #20
    b234: 08 00 8d e5  	str	r0, [sp, #8]
    b238: 0c 10 8d e5  	str	r1, [sp, #12]
    b23c: 00 00 8d e5  	str	r0, [sp]
    b240: 04 10 8d e5  	str	r1, [sp, #4]
    b244: 00 00 9d e5  	ldr	r0, [sp]
    b248: 04 10 9d e5  	ldr	r1, [sp, #4]
    b24c: 14 d0 8d e2  	add	sp, sp, #20
    b250: 1e ff 2f e1  	bx	lr

0000b254 <_ZN108_$LT$core..iter..adapters..filter..Filter$LT$I$C$P$GT$$u20$as$u20$core..iter..traits..iterator..Iterator$GT$5count17h4d419545bff67014E>:
    b254: 00 48 2d e9  	push	{r11, lr}
    b258: 20 d0 4d e2  	sub	sp, sp, #32
    b25c: 10 10 8d e5  	str	r1, [sp, #16]
    b260: 14 00 8d e5  	str	r0, [sp, #20]
    b264: 18 00 8d e5  	str	r0, [sp, #24]
    b268: 1c 10 8d e5  	str	r1, [sp, #28]
    b26c: 0e 00 00 eb  	bl	#56 <_ZN108_$LT$core..iter..adapters..filter..Filter$LT$I$C$P$GT$$u20$as$u20$core..iter..traits..iterator..Iterator$GT$5count8to_usize17h24a9eb2d93f67194E>
    b270: ff ff ff ea  	b	#-4 <_ZN108_$LT$core..iter..adapters..filter..Filter$LT$I$C$P$GT$$u20$as$u20$core..iter..traits..iterator..Iterator$GT$5count17h4d419545bff67014E+0x20>
    b274: 10 10 9d e5  	ldr	r1, [sp, #16]
    b278: 14 00 9d e5  	ldr	r0, [sp, #20]
    b27c: 31 01 00 eb  	bl	#1220 <_ZN4core4iter6traits8iterator8Iterator3map17h6fb24ffd73d542ffE>
    b280: 08 00 8d e5  	str	r0, [sp, #8]
    b284: 0c 10 8d e5  	str	r1, [sp, #12]
    b288: ff ff ff ea  	b	#-4 <_ZN108_$LT$core..iter..adapters..filter..Filter$LT$I$C$P$GT$$u20$as$u20$core..iter..traits..iterator..Iterator$GT$5count17h4d419545bff67014E+0x38>
    b28c: 0c 10 9d e5  	ldr	r1, [sp, #12]
    b290: 08 00 9d e5  	ldr	r0, [sp, #8]
    b294: 82 01 00 eb  	bl	#1544 <_ZN4core4iter6traits8iterator8Iterator3sum17he3b263efd5072654E>
    b298: 04 00 8d e5  	str	r0, [sp, #4]
    b29c: ff ff ff ea  	b	#-4 <_ZN108_$LT$core..iter..adapters..filter..Filter$LT$I$C$P$GT$$u20$as$u20$core..iter..traits..iterator..Iterator$GT$5count17h4d419545bff67014E+0x4c>
    b2a0: 04 00 9d e5  	ldr	r0, [sp, #4]
    b2a4: 20 d0 8d e2  	add	sp, sp, #32
    b2a8: 00 88 bd e8  	pop	{r11, pc}

0000b2ac <_ZN108_$LT$core..iter..adapters..filter..Filter$LT$I$C$P$GT$$u20$as$u20$core..iter..traits..iterator..Iterator$GT$5count8to_usize17h24a9eb2d93f67194E>:
    b2ac: 08 d0 4d e2  	sub	sp, sp, #8
    b2b0: 08 d0 8d e2  	add	sp, sp, #8
    b2b4: 1e ff 2f e1  	bx	lr

0000b2b8 <_ZN108_$LT$core..iter..adapters..filter..Filter$LT$I$C$P$GT$$u20$as$u20$core..iter..traits..iterator..Iterator$GT$5count8to_usize28_$u7b$$u7b$closure$u7d$$u7d$17h0a32ef45571190ddE>:
    b2b8: 00 48 2d e9  	push	{r11, lr}
    b2bc: 18 d0 4d e2  	sub	sp, sp, #24
    b2c0: 0c 10 8d e5  	str	r1, [sp, #12]
    b2c4: 14 00 8d e5  	str	r0, [sp, #20]
    b2c8: 0c 10 8d e2  	add	r1, sp, #12
    b2cc: 10 10 8d e5  	str	r1, [sp, #16]
    b2d0: 10 10 9d e5  	ldr	r1, [sp, #16]
    b2d4: 11 18 00 eb  	bl	#24644 <_ZN4core3str5count23char_count_general_case28_$u7b$$u7b$closure$u7d$$u7d$17h3bfaf0e4922b22e5E>
    b2d8: 08 00 8d e5  	str	r0, [sp, #8]
    b2dc: ff ff ff ea  	b	#-4 <_ZN108_$LT$core..iter..adapters..filter..Filter$LT$I$C$P$GT$$u20$as$u20$core..iter..traits..iterator..Iterator$GT$5count8to_usize28_$u7b$$u7b$closure$u7d$$u7d$17h0a32ef45571190ddE+0x28>
    b2e0: 08 00 9d e5  	ldr	r0, [sp, #8]
    b2e4: 01 00 00 e2  	and	r0, r0, #1
    b2e8: 04 00 8d e5  	str	r0, [sp, #4]
    b2ec: ff ff ff ea  	b	#-4 <_ZN108_$LT$core..iter..adapters..filter..Filter$LT$I$C$P$GT$$u20$as$u20$core..iter..traits..iterator..Iterator$GT$5count8to_usize28_$u7b$$u7b$closure$u7d$$u7d$17h0a32ef45571190ddE+0x38>
    b2f0: 04 00 9d e5  	ldr	r0, [sp, #4]
    b2f4: 18 d0 8d e2  	add	sp, sp, #24
    b2f8: 00 88 bd e8  	pop	{r11, pc}

0000b2fc <_ZN4core4iter8adapters3map16Map$LT$I$C$F$GT$3new17h2edd8df264650194E>:
    b2fc: 14 d0 4d e2  	sub	sp, sp, #20
    b300: 08 00 8d e5  	str	r0, [sp, #8]
    b304: 0c 10 8d e5  	str	r1, [sp, #12]
    b308: 00 00 8d e5  	str	r0, [sp]
    b30c: 04 10 8d e5  	str	r1, [sp, #4]
    b310: 00 00 9d e5  	ldr	r0, [sp]
    b314: 04 10 9d e5  	ldr	r1, [sp, #4]
    b318: 14 d0 8d e2  	add	sp, sp, #20
    b31c: 1e ff 2f e1  	bx	lr

0000b320 <_ZN4core4iter8adapters3map8map_fold17hbb914d779fa750a4E>:
    b320: 0c d0 4d e2  	sub	sp, sp, #12
    b324: 0c d0 8d e2  	add	sp, sp, #12
    b328: 1e ff 2f e1  	bx	lr

0000b32c <_ZN4core4iter8adapters3map8map_fold28_$u7b$$u7b$closure$u7d$$u7d$17h5d5a7cdf537d9ae3E>:
    b32c: 00 48 2d e9  	push	{r11, lr}
    b330: 28 d0 4d e2  	sub	sp, sp, #40
    b334: 04 10 8d e5  	str	r1, [sp, #4]
    b338: 1c 00 8d e5  	str	r0, [sp, #28]
    b33c: 20 10 8d e5  	str	r1, [sp, #32]
    b340: 24 20 8d e5  	str	r2, [sp, #36]
    b344: 00 10 a0 e1  	mov	r1, r0
    b348: 08 10 8d e5  	str	r1, [sp, #8]
    b34c: 18 20 8d e5  	str	r2, [sp, #24]
    b350: 18 10 9d e5  	ldr	r1, [sp, #24]
    b354: d7 ff ff eb  	bl	#-164 <_ZN108_$LT$core..iter..adapters..filter..Filter$LT$I$C$P$GT$$u20$as$u20$core..iter..traits..iterator..Iterator$GT$5count8to_usize28_$u7b$$u7b$closure$u7d$$u7d$17h0a32ef45571190ddE>
    b358: 0c 00 8d e5  	str	r0, [sp, #12]
    b35c: ff ff ff ea  	b	#-4 <_ZN4core4iter8adapters3map8map_fold28_$u7b$$u7b$closure$u7d$$u7d$17h5d5a7cdf537d9ae3E+0x34>
    b360: 08 00 9d e5  	ldr	r0, [sp, #8]
    b364: 0c 10 9d e5  	ldr	r1, [sp, #12]
    b368: 04 20 9d e5  	ldr	r2, [sp, #4]
    b36c: 10 20 8d e5  	str	r2, [sp, #16]
    b370: 14 10 8d e5  	str	r1, [sp, #20]
    b374: 10 10 9d e5  	ldr	r1, [sp, #16]
    b378: 14 20 9d e5  	ldr	r2, [sp, #20]
    b37c: 2a 1b 00 eb  	bl	#27816 <_ZN56_$LT$usize$u20$as$u20$core..iter..traits..accum..Sum$GT$3sum28_$u7b$$u7b$closure$u7d$$u7d$17h354570db4f1bd5a0E>
    b380: 00 00 8d e5  	str	r0, [sp]
    b384: ff ff ff ea  	b	#-4 <_ZN4core4iter8adapters3map8map_fold28_$u7b$$u7b$closure$u7d$$u7d$17h5d5a7cdf537d9ae3E+0x5c>
    b388: 00 00 9d e5  	ldr	r0, [sp]
    b38c: 28 d0 8d e2  	add	sp, sp, #40
    b390: 00 88 bd e8  	pop	{r11, pc}

0000b394 <_ZN102_$LT$core..iter..adapters..map..Map$LT$I$C$F$GT$$u20$as$u20$core..iter..traits..iterator..Iterator$GT$4fold17h1864fdb0ab936070E>:
    b394: 00 48 2d e9  	push	{r11, lr}
    b398: 20 d0 4d e2  	sub	sp, sp, #32
    b39c: 04 20 8d e5  	str	r2, [sp, #4]
    b3a0: 08 10 8d e5  	str	r1, [sp, #8]
    b3a4: 0c 00 8d e5  	str	r0, [sp, #12]
    b3a8: 10 00 8d e5  	str	r0, [sp, #16]
    b3ac: 14 10 8d e5  	str	r1, [sp, #20]
    b3b0: 18 20 8d e5  	str	r2, [sp, #24]
    b3b4: d9 ff ff eb  	bl	#-156 <_ZN4core4iter8adapters3map8map_fold17hbb914d779fa750a4E>
    b3b8: ff ff ff ea  	b	#-4 <_ZN102_$LT$core..iter..adapters..map..Map$LT$I$C$F$GT$$u20$as$u20$core..iter..traits..iterator..Iterator$GT$4fold17h1864fdb0ab936070E+0x28>
    b3bc: 04 20 9d e5  	ldr	r2, [sp, #4]
    b3c0: 08 10 9d e5  	ldr	r1, [sp, #8]
    b3c4: 0c 00 9d e5  	ldr	r0, [sp, #12]
    b3c8: 06 01 00 eb  	bl	#1048 <_ZN4core4iter6traits8iterator8Iterator4fold17hb835c9ed5bafc7c4E>
    b3cc: 00 00 8d e5  	str	r0, [sp]
    b3d0: ff ff ff ea  	b	#-4 <_ZN102_$LT$core..iter..adapters..map..Map$LT$I$C$F$GT$$u20$as$u20$core..iter..traits..iterator..Iterator$GT$4fold17h1864fdb0ab936070E+0x40>
    b3d4: 00 00 9d e5  	ldr	r0, [sp]
    b3d8: 20 d0 8d e2  	add	sp, sp, #32
    b3dc: 00 88 bd e8  	pop	{r11, pc}

0000b3e0 <_ZN4core4iter8adapters3rev12Rev$LT$T$GT$3new17hdff58e4042bd065fE>:
    b3e0: 10 d0 4d e2  	sub	sp, sp, #16
    b3e4: 08 00 8d e5  	str	r0, [sp, #8]
    b3e8: 0c 10 8d e5  	str	r1, [sp, #12]
    b3ec: 00 00 8d e5  	str	r0, [sp]
    b3f0: 04 10 8d e5  	str	r1, [sp, #4]
    b3f4: 00 00 9d e5  	ldr	r0, [sp]
    b3f8: 04 10 9d e5  	ldr	r1, [sp, #4]
    b3fc: 10 d0 8d e2  	add	sp, sp, #16
    b400: 1e ff 2f e1  	bx	lr

0000b404 <_ZN98_$LT$core..iter..adapters..rev..Rev$LT$I$GT$$u20$as$u20$core..iter..traits..iterator..Iterator$GT$4next17haa679e51fd5c7fb6E>:
    b404: 00 48 2d e9  	push	{r11, lr}
    b408: 08 d0 4d e2  	sub	sp, sp, #8
    b40c: 04 00 8d e5  	str	r0, [sp, #4]
    b410: 0d 20 00 eb  	bl	#32820 <_ZN109_$LT$core..slice..iter..IterMut$LT$T$GT$$u20$as$u20$core..iter..traits..double_ended..DoubleEndedIterator$GT$9next_back17h7431d0be338170dbE>
    b414: 00 00 8d e5  	str	r0, [sp]
    b418: ff ff ff ea  	b	#-4 <_ZN98_$LT$core..iter..adapters..rev..Rev$LT$I$GT$$u20$as$u20$core..iter..traits..iterator..Iterator$GT$4next17haa679e51fd5c7fb6E+0x18>
    b41c: 00 00 9d e5  	ldr	r0, [sp]
    b420: 08 d0 8d e2  	add	sp, sp, #8
    b424: 00 88 bd e8  	pop	{r11, pc}

0000b428 <_ZN89_$LT$core..ops..range..Range$LT$T$GT$$u20$as$u20$core..iter..range..RangeIteratorImpl$GT$9spec_next17h3773e4f0e8313430E>:
    b428: 00 48 2d e9  	push	{r11, lr}
    b42c: 28 d0 4d e2  	sub	sp, sp, #40
    b430: 10 00 8d e5  	str	r0, [sp, #16]
    b434: 20 00 8d e5  	str	r0, [sp, #32]
    b438: 04 10 80 e2  	add	r1, r0, #4
    b43c: 70 1a 00 eb  	bl	#27072 <_ZN4core3cmp5impls57_$LT$impl$u20$core..cmp..PartialOrd$u20$for$u20$usize$GT$2lt17h50e18a8ad36b70d1E>
    b440: 14 00 8d e5  	str	r0, [sp, #20]
    b444: ff ff ff ea  	b	#-4 <_ZN89_$LT$core..ops..range..Range$LT$T$GT$$u20$as$u20$core..iter..range..RangeIteratorImpl$GT$9spec_next17h3773e4f0e8313430E+0x20>
    b448: 14 00 9d e5  	ldr	r0, [sp, #20]
    b44c: 01 00 10 e3  	tst	r0, #1
    b450: 03 00 00 1a  	bne	#12 <_ZN89_$LT$core..ops..range..Range$LT$T$GT$$u20$as$u20$core..iter..range..RangeIteratorImpl$GT$9spec_next17h3773e4f0e8313430E+0x3c>
    b454: ff ff ff ea  	b	#-4 <_ZN89_$LT$core..ops..range..Range$LT$T$GT$$u20$as$u20$core..iter..range..RangeIteratorImpl$GT$9spec_next17h3773e4f0e8313430E+0x30>
    b458: 00 00 a0 e3  	mov	r0, #0
    b45c: 18 00 8d e5  	str	r0, [sp, #24]
    b460: 14 00 00 ea  	b	#80 <_ZN89_$LT$core..ops..range..Range$LT$T$GT$$u20$as$u20$core..iter..range..RangeIteratorImpl$GT$9spec_next17h3773e4f0e8313430E+0x90>
    b464: 10 00 9d e5  	ldr	r0, [sp, #16]
    b468: 56 1a 00 eb  	bl	#26968 <_ZN4core5clone5impls54_$LT$impl$u20$core..clone..Clone$u20$for$u20$usize$GT$5clone17hd939152c9612436bE>
    b46c: 0c 00 8d e5  	str	r0, [sp, #12]
    b470: ff ff ff ea  	b	#-4 <_ZN89_$LT$core..ops..range..Range$LT$T$GT$$u20$as$u20$core..iter..range..RangeIteratorImpl$GT$9spec_next17h3773e4f0e8313430E+0x4c>
    b474: 0c 00 9d e5  	ldr	r0, [sp, #12]
    b478: 01 10 a0 e3  	mov	r1, #1
    b47c: d2 1a 00 eb  	bl	#27464 <_ZN49_$LT$usize$u20$as$u20$core..iter..range..Step$GT$17forward_unchecked17hc9da2c4e7235d338E>
    b480: 00 10 a0 e1  	mov	r1, r0
    b484: 08 10 8d e5  	str	r1, [sp, #8]
    b488: 24 00 8d e5  	str	r0, [sp, #36]
    b48c: ff ff ff ea  	b	#-4 <_ZN89_$LT$core..ops..range..Range$LT$T$GT$$u20$as$u20$core..iter..range..RangeIteratorImpl$GT$9spec_next17h3773e4f0e8313430E+0x68>
    b490: 08 10 9d e5  	ldr	r1, [sp, #8]
    b494: 10 00 9d e5  	ldr	r0, [sp, #16]
    b498: ad f9 ff eb  	bl	#-6476 <_ZN4core3mem7replace17h597251809dff5828E>
    b49c: 04 00 8d e5  	str	r0, [sp, #4]
    b4a0: ff ff ff ea  	b	#-4 <_ZN89_$LT$core..ops..range..Range$LT$T$GT$$u20$as$u20$core..iter..range..RangeIteratorImpl$GT$9spec_next17h3773e4f0e8313430E+0x7c>
    b4a4: 04 00 9d e5  	ldr	r0, [sp, #4]
    b4a8: 1c 00 8d e5  	str	r0, [sp, #28]
    b4ac: 01 00 a0 e3  	mov	r0, #1
    b4b0: 18 00 8d e5  	str	r0, [sp, #24]
    b4b4: ff ff ff ea  	b	#-4 <_ZN89_$LT$core..ops..range..Range$LT$T$GT$$u20$as$u20$core..iter..range..RangeIteratorImpl$GT$9spec_next17h3773e4f0e8313430E+0x90>
    b4b8: 18 00 9d e5  	ldr	r0, [sp, #24]
    b4bc: 1c 10 9d e5  	ldr	r1, [sp, #28]
    b4c0: 28 d0 8d e2  	add	sp, sp, #40
    b4c4: 00 88 bd e8  	pop	{r11, pc}

0000b4c8 <_ZN4core4iter5range101_$LT$impl$u20$core..iter..traits..iterator..Iterator$u20$for$u20$core..ops..range..Range$LT$A$GT$$GT$4next17h679e961ab2e050c2E>:
    b4c8: 00 48 2d e9  	push	{r11, lr}
    b4cc: 10 d0 4d e2  	sub	sp, sp, #16
    b4d0: 0c 00 8d e5  	str	r0, [sp, #12]
    b4d4: d3 ff ff eb  	bl	#-180 <_ZN89_$LT$core..ops..range..Range$LT$T$GT$$u20$as$u20$core..iter..range..RangeIteratorImpl$GT$9spec_next17h3773e4f0e8313430E>
    b4d8: 04 00 8d e5  	str	r0, [sp, #4]
    b4dc: 08 10 8d e5  	str	r1, [sp, #8]
    b4e0: ff ff ff ea  	b	#-4 <_ZN4core4iter5range101_$LT$impl$u20$core..iter..traits..iterator..Iterator$u20$for$u20$core..ops..range..Range$LT$A$GT$$GT$4next17h679e961ab2e050c2E+0x1c>
    b4e4: 08 10 9d e5  	ldr	r1, [sp, #8]
    b4e8: 04 00 9d e5  	ldr	r0, [sp, #4]
    b4ec: 10 d0 8d e2  	add	sp, sp, #16
    b4f0: 00 88 bd e8  	pop	{r11, pc}

0000b4f4 <_ZN63_$LT$I$u20$as$u20$core..iter..traits..collect..IntoIterator$GT$9into_iter17h50345055115cfa37E>:
    b4f4: 01 30 a0 e1  	mov	r3, r1
    b4f8: 00 10 a0 e1  	mov	r1, r0
    b4fc: 00 00 93 e5  	ldr	r0, [r3]
    b500: 04 20 93 e5  	ldr	r2, [r3, #4]
    b504: 08 30 93 e5  	ldr	r3, [r3, #8]
    b508: 08 30 81 e5  	str	r3, [r1, #8]
    b50c: 04 20 81 e5  	str	r2, [r1, #4]
    b510: 00 00 81 e5  	str	r0, [r1]
    b514: 1e ff 2f e1  	bx	lr

0000b518 <_ZN63_$LT$I$u20$as$u20$core..iter..traits..collect..IntoIterator$GT$9into_iter17ha824f1c680dbc5d5E>:
    b518: 08 d0 4d e2  	sub	sp, sp, #8
    b51c: 00 00 8d e5  	str	r0, [sp]
    b520: 04 10 8d e5  	str	r1, [sp, #4]
    b524: 08 d0 8d e2  	add	sp, sp, #8
    b528: 1e ff 2f e1  	bx	lr

0000b52c <_ZN63_$LT$I$u20$as$u20$core..iter..traits..collect..IntoIterator$GT$9into_iter17hb63fe79ffe64174cE>:
    b52c: 01 30 a0 e1  	mov	r3, r1
    b530: 00 10 a0 e1  	mov	r1, r0
    b534: 00 00 93 e5  	ldr	r0, [r3]
    b538: 04 20 93 e5  	ldr	r2, [r3, #4]
    b53c: 08 30 93 e5  	ldr	r3, [r3, #8]
    b540: 08 30 81 e5  	str	r3, [r1, #8]
    b544: 04 20 81 e5  	str	r2, [r1, #4]
    b548: 00 00 81 e5  	str	r0, [r1]
    b54c: 1e ff 2f e1  	bx	lr

0000b550 <_ZN63_$LT$I$u20$as$u20$core..iter..traits..collect..IntoIterator$GT$9into_iter17hbb596eea85a0534cE>:
    b550: 01 30 a0 e1  	mov	r3, r1
    b554: 00 10 a0 e1  	mov	r1, r0
    b558: 00 00 93 e5  	ldr	r0, [r3]
    b55c: 04 20 93 e5  	ldr	r2, [r3, #4]
    b560: 08 30 93 e5  	ldr	r3, [r3, #8]
    b564: 08 30 81 e5  	str	r3, [r1, #8]
    b568: 04 20 81 e5  	str	r2, [r1, #4]
    b56c: 00 00 81 e5  	str	r0, [r1]
    b570: 1e ff 2f e1  	bx	lr

0000b574 <_ZN63_$LT$I$u20$as$u20$core..iter..traits..collect..IntoIterator$GT$9into_iter17hcd91a9ec3b2efec4E>:
    b574: 08 d0 4d e2  	sub	sp, sp, #8
    b578: 00 00 8d e5  	str	r0, [sp]
    b57c: 04 10 8d e5  	str	r1, [sp, #4]
    b580: 08 d0 8d e2  	add	sp, sp, #8
    b584: 1e ff 2f e1  	bx	lr

0000b588 <_ZN4core4iter6traits8iterator8Iterator10advance_by17hefe3ae2eb520656bE>:
    b588: 00 48 2d e9  	push	{r11, lr}
    b58c: 68 d0 4d e2  	sub	sp, sp, #104
    b590: 0c 00 8d e5  	str	r0, [sp, #12]
    b594: 50 00 8d e5  	str	r0, [sp, #80]
    b598: 54 10 8d e5  	str	r1, [sp, #84]
    b59c: 00 00 a0 e3  	mov	r0, #0
    b5a0: 20 00 8d e5  	str	r0, [sp, #32]
    b5a4: 24 10 8d e5  	str	r1, [sp, #36]
    b5a8: 20 00 9d e5  	ldr	r0, [sp, #32]
    b5ac: 24 10 9d e5  	ldr	r1, [sp, #36]
    b5b0: d8 ff ff eb  	bl	#-160 <_ZN63_$LT$I$u20$as$u20$core..iter..traits..collect..IntoIterator$GT$9into_iter17ha824f1c680dbc5d5E>
    b5b4: 10 00 8d e5  	str	r0, [sp, #16]
    b5b8: 14 10 8d e5  	str	r1, [sp, #20]
    b5bc: ff ff ff ea  	b	#-4 <_ZN4core4iter6traits8iterator8Iterator10advance_by17hefe3ae2eb520656bE+0x38>
    b5c0: 14 00 9d e5  	ldr	r0, [sp, #20]
    b5c4: 10 10 9d e5  	ldr	r1, [sp, #16]
    b5c8: 28 10 8d e5  	str	r1, [sp, #40]
    b5cc: 2c 00 8d e5  	str	r0, [sp, #44]
    b5d0: ff ff ff ea  	b	#-4 <_ZN4core4iter6traits8iterator8Iterator10advance_by17hefe3ae2eb520656bE+0x4c>
    b5d4: 28 00 8d e2  	add	r0, sp, #40
    b5d8: ba ff ff eb  	bl	#-280 <_ZN4core4iter5range101_$LT$impl$u20$core..iter..traits..iterator..Iterator$u20$for$u20$core..ops..range..Range$LT$A$GT$$GT$4next17h679e961ab2e050c2E>
    b5dc: 34 10 8d e5  	str	r1, [sp, #52]
    b5e0: 30 00 8d e5  	str	r0, [sp, #48]
    b5e4: ff ff ff ea  	b	#-4 <_ZN4core4iter6traits8iterator8Iterator10advance_by17hefe3ae2eb520656bE+0x60>
    b5e8: 30 00 9d e5  	ldr	r0, [sp, #48]
    b5ec: 00 00 50 e3  	cmp	r0, #0
    b5f0: 02 00 00 0a  	beq	#8 <_ZN4core4iter6traits8iterator8Iterator10advance_by17hefe3ae2eb520656bE+0x78>
    b5f4: ff ff ff ea  	b	#-4 <_ZN4core4iter6traits8iterator8Iterator10advance_by17hefe3ae2eb520656bE+0x70>
    b5f8: 03 00 00 ea  	b	#12 <_ZN4core4iter6traits8iterator8Iterator10advance_by17hefe3ae2eb520656bE+0x84>
    b5fc: fe de ff e7  	trap
    b600: 00 00 a0 e3  	mov	r0, #0
    b604: 18 00 8d e5  	str	r0, [sp, #24]
    b608: 23 00 00 ea  	b	#140 <_ZN4core4iter6traits8iterator8Iterator10advance_by17hefe3ae2eb520656bE+0x114>
    b60c: 0c 00 9d e5  	ldr	r0, [sp, #12]
    b610: 34 10 9d e5  	ldr	r1, [sp, #52]
    b614: 00 10 8d e5  	str	r1, [sp]
    b618: 58 10 8d e5  	str	r1, [sp, #88]
    b61c: 88 17 00 eb  	bl	#24096 <_ZN87_$LT$core..str..iter..CharIndices$u20$as$u20$core..iter..traits..iterator..Iterator$GT$4next17hd773219ae4fca8caE>
    b620: 04 00 8d e5  	str	r0, [sp, #4]
    b624: 08 10 8d e5  	str	r1, [sp, #8]
    b628: ff ff ff ea  	b	#-4 <_ZN4core4iter6traits8iterator8Iterator10advance_by17hefe3ae2eb520656bE+0xa4>
    b62c: 00 30 9d e5  	ldr	r3, [sp]
    b630: 08 20 9d e5  	ldr	r2, [sp, #8]
    b634: 04 10 9d e5  	ldr	r1, [sp, #4]
    b638: 44 00 8d e2  	add	r0, sp, #68
    b63c: 67 01 00 eb  	bl	#1436 <_ZN4core6option15Option$LT$T$GT$5ok_or17ha3aa47d88639c8c3E>
    b640: ff ff ff ea  	b	#-4 <_ZN4core4iter6traits8iterator8Iterator10advance_by17hefe3ae2eb520656bE+0xbc>
    b644: 38 00 8d e2  	add	r0, sp, #56
    b648: 44 10 8d e2  	add	r1, sp, #68
    b64c: 1e 03 00 eb  	bl	#3192 <_ZN79_$LT$core..result..Result$LT$T$C$E$GT$$u20$as$u20$core..ops..try_trait..Try$GT$6branch17hcc6c949fd870dea7E>
    b650: ff ff ff ea  	b	#-4 <_ZN4core4iter6traits8iterator8Iterator10advance_by17hefe3ae2eb520656bE+0xcc>
    b654: 38 00 9d e5  	ldr	r0, [sp, #56]
    b658: 00 00 50 e3  	cmp	r0, #0
    b65c: 02 00 00 0a  	beq	#8 <_ZN4core4iter6traits8iterator8Iterator10advance_by17hefe3ae2eb520656bE+0xe4>
    b660: ff ff ff ea  	b	#-4 <_ZN4core4iter6traits8iterator8Iterator10advance_by17hefe3ae2eb520656bE+0xdc>
    b664: 05 00 00 ea  	b	#20 <_ZN4core4iter6traits8iterator8Iterator10advance_by17hefe3ae2eb520656bE+0xf8>
    b668: fe de ff e7  	trap
    b66c: 3c 10 9d e5  	ldr	r1, [sp, #60]
    b670: 40 00 9d e5  	ldr	r0, [sp, #64]
    b674: 60 10 8d e5  	str	r1, [sp, #96]
    b678: 64 00 8d e5  	str	r0, [sp, #100]
    b67c: d4 ff ff ea  	b	#-176 <_ZN4core4iter6traits8iterator8Iterator10advance_by17hefe3ae2eb520656bE+0x4c>
    b680: 3c 00 9d e5  	ldr	r0, [sp, #60]
    b684: 5c 00 8d e5  	str	r0, [sp, #92]
    b688: 1c 10 9f e5  	ldr	r1, [pc, #28]
    b68c: 72 03 00 eb  	bl	#3528 <_ZN153_$LT$core..result..Result$LT$T$C$F$GT$$u20$as$u20$core..ops..try_trait..FromResidual$LT$core..result..Result$LT$core..convert..Infallible$C$E$GT$$GT$$GT$13from_residual17h921f7eb520c50607E>
    b690: 1c 10 8d e5  	str	r1, [sp, #28]
    b694: 18 00 8d e5  	str	r0, [sp, #24]
    b698: ff ff ff ea  	b	#-4 <_ZN4core4iter6traits8iterator8Iterator10advance_by17hefe3ae2eb520656bE+0x114>
    b69c: 18 00 9d e5  	ldr	r0, [sp, #24]
    b6a0: 1c 10 9d e5  	ldr	r1, [sp, #28]
    b6a4: 68 d0 8d e2  	add	sp, sp, #104
    b6a8: 00 88 bd e8  	pop	{r11, pc}

0000b6ac <$d.963>:
    b6ac:	58 59 01 00	.word	0x00015958

0000b6b0 <_ZN4core4iter6traits8iterator8Iterator3nth17hdc2f8c5e43bea2abE>:
    b6b0: 00 48 2d e9  	push	{r11, lr}
    b6b4: 30 d0 4d e2  	sub	sp, sp, #48
    b6b8: 08 00 8d e5  	str	r0, [sp, #8]
    b6bc: 20 00 8d e5  	str	r0, [sp, #32]
    b6c0: 24 10 8d e5  	str	r1, [sp, #36]
    b6c4: af ff ff eb  	bl	#-324 <_ZN4core4iter6traits8iterator8Iterator10advance_by17hefe3ae2eb520656bE>
    b6c8: 0c 00 8d e5  	str	r0, [sp, #12]
    b6cc: 10 10 8d e5  	str	r1, [sp, #16]
    b6d0: ff ff ff ea  	b	#-4 <_ZN4core4iter6traits8iterator8Iterator3nth17hdc2f8c5e43bea2abE+0x24>
    b6d4: 10 10 9d e5  	ldr	r1, [sp, #16]
    b6d8: 0c 00 9d e5  	ldr	r0, [sp, #12]
    b6dc: e3 02 00 eb  	bl	#2956 <_ZN4core6result19Result$LT$T$C$E$GT$2ok17h994d761dd1548f19E>
    b6e0: 04 00 8d e5  	str	r0, [sp, #4]
    b6e4: ff ff ff ea  	b	#-4 <_ZN4core4iter6traits8iterator8Iterator3nth17hdc2f8c5e43bea2abE+0x38>
    b6e8: 04 00 9d e5  	ldr	r0, [sp, #4]
    b6ec: 01 00 00 e2  	and	r0, r0, #1
    b6f0: a4 01 00 eb  	bl	#1680 <_ZN75_$LT$core..option..Option$LT$T$GT$$u20$as$u20$core..ops..try_trait..Try$GT$6branch17hef7b8f4425754491E>
    b6f4: 1f 00 cd e5  	strb	r0, [sp, #31]
    b6f8: ff ff ff ea  	b	#-4 <_ZN4core4iter6traits8iterator8Iterator3nth17hdc2f8c5e43bea2abE+0x4c>
    b6fc: 1f 00 dd e5  	ldrb	r0, [sp, #31]
    b700: 01 00 10 e3  	tst	r0, #1
    b704: 02 00 00 0a  	beq	#8 <_ZN4core4iter6traits8iterator8Iterator3nth17hdc2f8c5e43bea2abE+0x64>
    b708: ff ff ff ea  	b	#-4 <_ZN4core4iter6traits8iterator8Iterator3nth17hdc2f8c5e43bea2abE+0x5c>
    b70c: 05 00 00 ea  	b	#20 <_ZN4core4iter6traits8iterator8Iterator3nth17hdc2f8c5e43bea2abE+0x78>
    b710: fe de ff e7  	trap
    b714: 08 00 9d e5  	ldr	r0, [sp, #8]
    b718: 49 17 00 eb  	bl	#23844 <_ZN87_$LT$core..str..iter..CharIndices$u20$as$u20$core..iter..traits..iterator..Iterator$GT$4next17hd773219ae4fca8caE>
    b71c: 18 10 8d e5  	str	r1, [sp, #24]
    b720: 14 00 8d e5  	str	r0, [sp, #20]
    b724: 03 00 00 ea  	b	#12 <_ZN4core4iter6traits8iterator8Iterator3nth17hdc2f8c5e43bea2abE+0x88>
    b728: ae 01 00 eb  	bl	#1720 <_ZN84_$LT$core..option..Option$LT$T$GT$$u20$as$u20$core..ops..try_trait..FromResidual$GT$13from_residual17h66d8bfb897ed8223E>
    b72c: 18 10 8d e5  	str	r1, [sp, #24]
    b730: 14 00 8d e5  	str	r0, [sp, #20]
    b734: ff ff ff ea  	b	#-4 <_ZN4core4iter6traits8iterator8Iterator3nth17hdc2f8c5e43bea2abE+0x88>
    b738: 14 00 9d e5  	ldr	r0, [sp, #20]
    b73c: 18 10 9d e5  	ldr	r1, [sp, #24]
    b740: 30 d0 8d e2  	add	sp, sp, #48
    b744: 00 88 bd e8  	pop	{r11, pc}

0000b748 <_ZN4core4iter6traits8iterator8Iterator3map17h6fb24ffd73d542ffE>:
    b748: 00 48 2d e9  	push	{r11, lr}
    b74c: 18 d0 4d e2  	sub	sp, sp, #24
    b750: 0c 00 8d e5  	str	r0, [sp, #12]
    b754: 10 10 8d e5  	str	r1, [sp, #16]
    b758: e7 fe ff eb  	bl	#-1124 <_ZN4core4iter8adapters3map16Map$LT$I$C$F$GT$3new17h2edd8df264650194E>
    b75c: 04 00 8d e5  	str	r0, [sp, #4]
    b760: 08 10 8d e5  	str	r1, [sp, #8]
    b764: ff ff ff ea  	b	#-4 <_ZN4core4iter6traits8iterator8Iterator3map17h6fb24ffd73d542ffE+0x20>
    b768: 08 10 9d e5  	ldr	r1, [sp, #8]
    b76c: 04 00 9d e5  	ldr	r0, [sp, #4]
    b770: 18 d0 8d e2  	add	sp, sp, #24
    b774: 00 88 bd e8  	pop	{r11, pc}

0000b778 <_ZN4core4iter6traits8iterator8Iterator6filter17hb66cd4fc014ab058E>:
    b778: 00 48 2d e9  	push	{r11, lr}
    b77c: 18 d0 4d e2  	sub	sp, sp, #24
    b780: 0c 00 8d e5  	str	r0, [sp, #12]
    b784: 10 10 8d e5  	str	r1, [sp, #16]
    b788: a8 fe ff eb  	bl	#-1376 <_ZN4core4iter8adapters6filter19Filter$LT$I$C$P$GT$3new17hda6d6ee773a1a87fE>
    b78c: 04 00 8d e5  	str	r0, [sp, #4]
    b790: 08 10 8d e5  	str	r1, [sp, #8]
    b794: ff ff ff ea  	b	#-4 <_ZN4core4iter6traits8iterator8Iterator6filter17hb66cd4fc014ab058E+0x20>
    b798: 08 10 9d e5  	ldr	r1, [sp, #8]
    b79c: 04 00 9d e5  	ldr	r0, [sp, #4]
    b7a0: 18 d0 8d e2  	add	sp, sp, #24
    b7a4: 00 88 bd e8  	pop	{r11, pc}

0000b7a8 <_ZN4core4iter6traits8iterator8Iterator9enumerate17h5694d946cc40cc59E>:
    b7a8: 00 48 2d e9  	push	{r11, lr}
    b7ac: 08 d0 4d e2  	sub	sp, sp, #8
    b7b0: 00 10 8d e5  	str	r1, [sp]
    b7b4: 04 20 8d e5  	str	r2, [sp, #4]
    b7b8: 0c fe ff eb  	bl	#-2000 <_ZN4core4iter8adapters9enumerate18Enumerate$LT$I$GT$3new17h30a86619e2211648E>
    b7bc: ff ff ff ea  	b	#-4 <_ZN4core4iter6traits8iterator8Iterator9enumerate17h5694d946cc40cc59E+0x18>
    b7c0: 08 d0 8d e2  	add	sp, sp, #8
    b7c4: 00 88 bd e8  	pop	{r11, pc}

0000b7c8 <_ZN4core4iter6traits8iterator8Iterator9enumerate17h8b3577cd1c43f4beE>:
    b7c8: 00 48 2d e9  	push	{r11, lr}
    b7cc: 08 d0 4d e2  	sub	sp, sp, #8
    b7d0: 00 10 8d e5  	str	r1, [sp]
    b7d4: 04 20 8d e5  	str	r2, [sp, #4]
    b7d8: 10 fe ff eb  	bl	#-1984 <_ZN4core4iter8adapters9enumerate18Enumerate$LT$I$GT$3new17h3c91e6ea800288abE>
    b7dc: ff ff ff ea  	b	#-4 <_ZN4core4iter6traits8iterator8Iterator9enumerate17h8b3577cd1c43f4beE+0x18>
    b7e0: 08 d0 8d e2  	add	sp, sp, #8
    b7e4: 00 88 bd e8  	pop	{r11, pc}

0000b7e8 <_ZN4core4iter6traits8iterator8Iterator4fold17hb835c9ed5bafc7c4E>:
    b7e8: 00 48 2d e9  	push	{r11, lr}
    b7ec: 28 d0 4d e2  	sub	sp, sp, #40
    b7f0: 04 00 8d e5  	str	r0, [sp, #4]
    b7f4: 08 10 8d e5  	str	r1, [sp, #8]
    b7f8: 20 20 8d e5  	str	r2, [sp, #32]
    b7fc: 10 20 8d e5  	str	r2, [sp, #16]
    b800: ff ff ff ea  	b	#-4 <_ZN4core4iter6traits8iterator8Iterator4fold17hb835c9ed5bafc7c4E+0x1c>
    b804: 04 00 8d e2  	add	r0, sp, #4
    b808: b1 1d 00 eb  	bl	#30404 <_ZN91_$LT$core..slice..iter..Iter$LT$T$GT$$u20$as$u20$core..iter..traits..iterator..Iterator$GT$4next17h09592dbd374f3d62E>
    b80c: 14 00 8d e5  	str	r0, [sp, #20]
    b810: ff ff ff ea  	b	#-4 <_ZN4core4iter6traits8iterator8Iterator4fold17hb835c9ed5bafc7c4E+0x2c>
    b814: 14 00 9d e5  	ldr	r0, [sp, #20]
    b818: 00 00 50 e3  	cmp	r0, #0
    b81c: 0b 00 00 0a  	beq	#44 <_ZN4core4iter6traits8iterator8Iterator4fold17hb835c9ed5bafc7c4E+0x68>
    b820: ff ff ff ea  	b	#-4 <_ZN4core4iter6traits8iterator8Iterator4fold17hb835c9ed5bafc7c4E+0x3c>
    b824: 14 00 9d e5  	ldr	r0, [sp, #20]
    b828: 24 00 8d e5  	str	r0, [sp, #36]
    b82c: 10 10 9d e5  	ldr	r1, [sp, #16]
    b830: 18 10 8d e5  	str	r1, [sp, #24]
    b834: 1c 00 8d e5  	str	r0, [sp, #28]
    b838: 18 10 9d e5  	ldr	r1, [sp, #24]
    b83c: 1c 20 9d e5  	ldr	r2, [sp, #28]
    b840: 0c 00 8d e2  	add	r0, sp, #12
    b844: b8 fe ff eb  	bl	#-1312 <_ZN4core4iter8adapters3map8map_fold28_$u7b$$u7b$closure$u7d$$u7d$17h5d5a7cdf537d9ae3E>
    b848: 00 00 8d e5  	str	r0, [sp]
    b84c: 05 00 00 ea  	b	#20 <_ZN4core4iter6traits8iterator8Iterator4fold17hb835c9ed5bafc7c4E+0x80>
    b850: ff ff ff ea  	b	#-4 <_ZN4core4iter6traits8iterator8Iterator4fold17hb835c9ed5bafc7c4E+0x6c>
    b854: ff ff ff ea  	b	#-4 <_ZN4core4iter6traits8iterator8Iterator4fold17hb835c9ed5bafc7c4E+0x70>
    b858: ff ff ff ea  	b	#-4 <_ZN4core4iter6traits8iterator8Iterator4fold17hb835c9ed5bafc7c4E+0x74>
    b85c: 10 00 9d e5  	ldr	r0, [sp, #16]
    b860: 28 d0 8d e2  	add	sp, sp, #40
    b864: 00 88 bd e8  	pop	{r11, pc}
    b868: 00 00 9d e5  	ldr	r0, [sp]
    b86c: 10 00 8d e5  	str	r0, [sp, #16]
    b870: e3 ff ff ea  	b	#-116 <_ZN4core4iter6traits8iterator8Iterator4fold17hb835c9ed5bafc7c4E+0x1c>

0000b874 <_ZN4core4iter6traits8iterator8Iterator3rev17hf285382833a11cd2E>:
    b874: 00 48 2d e9  	push	{r11, lr}
    b878: 10 d0 4d e2  	sub	sp, sp, #16
    b87c: 08 00 8d e5  	str	r0, [sp, #8]
    b880: 0c 10 8d e5  	str	r1, [sp, #12]
    b884: d5 fe ff eb  	bl	#-1196 <_ZN4core4iter8adapters3rev12Rev$LT$T$GT$3new17hdff58e4042bd065fE>
    b888: 00 00 8d e5  	str	r0, [sp]
    b88c: 04 10 8d e5  	str	r1, [sp, #4]
    b890: ff ff ff ea  	b	#-4 <_ZN4core4iter6traits8iterator8Iterator3rev17hf285382833a11cd2E+0x20>
    b894: 04 10 9d e5  	ldr	r1, [sp, #4]
    b898: 00 00 9d e5  	ldr	r0, [sp]
    b89c: 10 d0 8d e2  	add	sp, sp, #16
    b8a0: 00 88 bd e8  	pop	{r11, pc}

0000b8a4 <_ZN4core4iter6traits8iterator8Iterator3sum17he3b263efd5072654E>:
    b8a4: 00 48 2d e9  	push	{r11, lr}
    b8a8: 10 d0 4d e2  	sub	sp, sp, #16
    b8ac: 08 00 8d e5  	str	r0, [sp, #8]
    b8b0: 0c 10 8d e5  	str	r1, [sp, #12]
    b8b4: d1 19 00 eb  	bl	#26436 <_ZN56_$LT$usize$u20$as$u20$core..iter..traits..accum..Sum$GT$3sum17h175bd0e46bcbfc09E>
    b8b8: 04 00 8d e5  	str	r0, [sp, #4]
    b8bc: ff ff ff ea  	b	#-4 <_ZN4core4iter6traits8iterator8Iterator3sum17he3b263efd5072654E+0x1c>
    b8c0: 04 00 9d e5  	ldr	r0, [sp, #4]
    b8c4: 10 d0 8d e2  	add	sp, sp, #16
    b8c8: 00 88 bd e8  	pop	{r11, pc}

0000b8cc <_ZN4core6option15Option$LT$T$GT$7is_some17h0f59d8a1a3661378E>:
    b8cc: 08 d0 4d e2  	sub	sp, sp, #8
    b8d0: 04 00 8d e5  	str	r0, [sp, #4]
    b8d4: 00 00 90 e5  	ldr	r0, [r0]
    b8d8: 01 00 50 e3  	cmp	r0, #1
    b8dc: 03 00 00 1a  	bne	#12 <_ZN4core6option15Option$LT$T$GT$7is_some17h0f59d8a1a3661378E+0x24>
    b8e0: ff ff ff ea  	b	#-4 <_ZN4core6option15Option$LT$T$GT$7is_some17h0f59d8a1a3661378E+0x18>
    b8e4: 01 00 a0 e3  	mov	r0, #1
    b8e8: 03 00 cd e5  	strb	r0, [sp, #3]
    b8ec: 02 00 00 ea  	b	#8 <_ZN4core6option15Option$LT$T$GT$7is_some17h0f59d8a1a3661378E+0x30>
    b8f0: 00 00 a0 e3  	mov	r0, #0
    b8f4: 03 00 cd e5  	strb	r0, [sp, #3]
    b8f8: ff ff ff ea  	b	#-4 <_ZN4core6option15Option$LT$T$GT$7is_some17h0f59d8a1a3661378E+0x30>
    b8fc: 03 00 dd e5  	ldrb	r0, [sp, #3]
    b900: 08 d0 8d e2  	add	sp, sp, #8
    b904: 1e ff 2f e1  	bx	lr

0000b908 <_ZN4core6option15Option$LT$T$GT$7is_some17h594b3a26af5e585aE>:
    b908: 08 d0 4d e2  	sub	sp, sp, #8
    b90c: 04 00 8d e5  	str	r0, [sp, #4]
    b910: 00 00 90 e5  	ldr	r0, [r0]
    b914: 00 00 50 e3  	cmp	r0, #0
    b918: 03 00 00 0a  	beq	#12 <_ZN4core6option15Option$LT$T$GT$7is_some17h594b3a26af5e585aE+0x24>
    b91c: ff ff ff ea  	b	#-4 <_ZN4core6option15Option$LT$T$GT$7is_some17h594b3a26af5e585aE+0x18>
    b920: 01 00 a0 e3  	mov	r0, #1
    b924: 03 00 cd e5  	strb	r0, [sp, #3]
    b928: 02 00 00 ea  	b	#8 <_ZN4core6option15Option$LT$T$GT$7is_some17h594b3a26af5e585aE+0x30>
    b92c: 00 00 a0 e3  	mov	r0, #0
    b930: 03 00 cd e5  	strb	r0, [sp, #3]
    b934: ff ff ff ea  	b	#-4 <_ZN4core6option15Option$LT$T$GT$7is_some17h594b3a26af5e585aE+0x30>
    b938: 03 00 dd e5  	ldrb	r0, [sp, #3]
    b93c: 08 d0 8d e2  	add	sp, sp, #8
    b940: 1e ff 2f e1  	bx	lr

0000b944 <_ZN4core6option15Option$LT$T$GT$7is_none17h9670b1d25feabbc1E>:
    b944: 00 48 2d e9  	push	{r11, lr}
    b948: 08 d0 4d e2  	sub	sp, sp, #8
    b94c: 04 00 8d e5  	str	r0, [sp, #4]
    b950: dd ff ff eb  	bl	#-140 <_ZN4core6option15Option$LT$T$GT$7is_some17h0f59d8a1a3661378E>
    b954: 00 00 8d e5  	str	r0, [sp]
    b958: ff ff ff ea  	b	#-4 <_ZN4core6option15Option$LT$T$GT$7is_none17h9670b1d25feabbc1E+0x18>
    b95c: 00 10 9d e5  	ldr	r1, [sp]
    b960: 01 00 a0 e3  	mov	r0, #1
    b964: 01 00 c0 e1  	bic	r0, r0, r1
    b968: 08 d0 8d e2  	add	sp, sp, #8
    b96c: 00 88 bd e8  	pop	{r11, pc}

0000b970 <_ZN4core6option15Option$LT$T$GT$6unwrap17hd6e3fde6ca0fdbbcE>:
    b970: 10 d0 4d e2  	sub	sp, sp, #16
    b974: 00 20 8d e5  	str	r2, [sp]
    b978: 04 00 8d e5  	str	r0, [sp, #4]
    b97c: 08 10 8d e5  	str	r1, [sp, #8]
    b980: 04 00 9d e5  	ldr	r0, [sp, #4]
    b984: 00 00 50 e3  	cmp	r0, #0
    b988: 02 00 00 0a  	beq	#8 <_ZN4core6option15Option$LT$T$GT$6unwrap17hd6e3fde6ca0fdbbcE+0x28>
    b98c: ff ff ff ea  	b	#-4 <_ZN4core6option15Option$LT$T$GT$6unwrap17hd6e3fde6ca0fdbbcE+0x20>
    b990: 05 00 00 ea  	b	#20 <_ZN4core6option15Option$LT$T$GT$6unwrap17hd6e3fde6ca0fdbbcE+0x3c>
    b994: fe de ff e7  	trap
    b998: 00 20 9d e5  	ldr	r2, [sp]
    b99c: 18 00 9f e5  	ldr	r0, [pc, #24]
    b9a0: 2b 10 a0 e3  	mov	r1, #43
    b9a4: 42 01 00 eb  	bl	#1288 <_ZN4core9panicking5panic17h70f755644c6683e5E>
    b9a8: fe de ff e7  	trap
    b9ac: 08 00 9d e5  	ldr	r0, [sp, #8]
    b9b0: 0c 00 8d e5  	str	r0, [sp, #12]
    b9b4: 10 d0 8d e2  	add	sp, sp, #16
    b9b8: 1e ff 2f e1  	bx	lr

0000b9bc <$d.1056>:
    b9bc:	68 59 01 00	.word	0x00015968

0000b9c0 <_ZN4core6option15Option$LT$T$GT$6unwrap17hdd28b3b95a4a07dcE>:
    b9c0: 10 d0 4d e2  	sub	sp, sp, #16
    b9c4: 04 10 8d e5  	str	r1, [sp, #4]
    b9c8: 08 00 8d e5  	str	r0, [sp, #8]
    b9cc: 08 00 9d e5  	ldr	r0, [sp, #8]
    b9d0: 11 18 50 e2  	subs	r1, r0, #1114112
    b9d4: 01 10 a0 13  	movne	r1, #1
    b9d8: 11 08 50 e3  	cmp	r0, #1114112
    b9dc: 02 00 00 0a  	beq	#8 <_ZN4core6option15Option$LT$T$GT$6unwrap17hdd28b3b95a4a07dcE+0x2c>
    b9e0: ff ff ff ea  	b	#-4 <_ZN4core6option15Option$LT$T$GT$6unwrap17hdd28b3b95a4a07dcE+0x24>
    b9e4: 05 00 00 ea  	b	#20 <_ZN4core6option15Option$LT$T$GT$6unwrap17hdd28b3b95a4a07dcE+0x40>
    b9e8: fe de ff e7  	trap
    b9ec: 04 20 9d e5  	ldr	r2, [sp, #4]
    b9f0: 18 00 9f e5  	ldr	r0, [pc, #24]
    b9f4: 2b 10 a0 e3  	mov	r1, #43
    b9f8: 2d 01 00 eb  	bl	#1204 <_ZN4core9panicking5panic17h70f755644c6683e5E>
    b9fc: fe de ff e7  	trap
    ba00: 08 00 9d e5  	ldr	r0, [sp, #8]
    ba04: 0c 00 8d e5  	str	r0, [sp, #12]
    ba08: 10 d0 8d e2  	add	sp, sp, #16
    ba0c: 1e ff 2f e1  	bx	lr

0000ba10 <$d.1058>:
    ba10:	68 59 01 00	.word	0x00015968

0000ba14 <_ZN4core6option15Option$LT$T$GT$9unwrap_or17h015ab340b13816d4E>:
    ba14: 2c d0 4d e2  	sub	sp, sp, #44
    ba18: 00 30 8d e5  	str	r3, [sp]
    ba1c: 04 20 8d e5  	str	r2, [sp, #4]
    ba20: 08 00 8d e5  	str	r0, [sp, #8]
    ba24: 0c 10 8d e5  	str	r1, [sp, #12]
    ba28: 1c 20 8d e5  	str	r2, [sp, #28]
    ba2c: 20 30 8d e5  	str	r3, [sp, #32]
    ba30: 00 00 a0 e3  	mov	r0, #0
    ba34: 1b 00 cd e5  	strb	r0, [sp, #27]
    ba38: 01 00 a0 e3  	mov	r0, #1
    ba3c: 1b 00 cd e5  	strb	r0, [sp, #27]
    ba40: 08 00 9d e5  	ldr	r0, [sp, #8]
    ba44: 00 00 50 e3  	cmp	r0, #0
    ba48: 00 10 a0 e1  	mov	r1, r0
    ba4c: 01 10 a0 13  	movne	r1, #1
    ba50: 00 00 50 e3  	cmp	r0, #0
    ba54: 02 00 00 0a  	beq	#8 <_ZN4core6option15Option$LT$T$GT$9unwrap_or17h015ab340b13816d4E+0x50>
    ba58: ff ff ff ea  	b	#-4 <_ZN4core6option15Option$LT$T$GT$9unwrap_or17h015ab340b13816d4E+0x48>
    ba5c: 07 00 00 ea  	b	#28 <_ZN4core6option15Option$LT$T$GT$9unwrap_or17h015ab340b13816d4E+0x6c>
    ba60: fe de ff e7  	trap
    ba64: 00 00 9d e5  	ldr	r0, [sp]
    ba68: 04 10 9d e5  	ldr	r1, [sp, #4]
    ba6c: 00 20 a0 e3  	mov	r2, #0
    ba70: 1b 20 cd e5  	strb	r2, [sp, #27]
    ba74: 10 10 8d e5  	str	r1, [sp, #16]
    ba78: 14 00 8d e5  	str	r0, [sp, #20]
    ba7c: 06 00 00 ea  	b	#24 <_ZN4core6option15Option$LT$T$GT$9unwrap_or17h015ab340b13816d4E+0x88>
    ba80: 08 10 9d e5  	ldr	r1, [sp, #8]
    ba84: 0c 00 9d e5  	ldr	r0, [sp, #12]
    ba88: 24 10 8d e5  	str	r1, [sp, #36]
    ba8c: 28 00 8d e5  	str	r0, [sp, #40]
    ba90: 10 10 8d e5  	str	r1, [sp, #16]
    ba94: 14 00 8d e5  	str	r0, [sp, #20]
    ba98: ff ff ff ea  	b	#-4 <_ZN4core6option15Option$LT$T$GT$9unwrap_or17h015ab340b13816d4E+0x88>
    ba9c: 1b 00 dd e5  	ldrb	r0, [sp, #27]
    baa0: 01 00 10 e3  	tst	r0, #1
    baa4: 04 00 00 1a  	bne	#16 <_ZN4core6option15Option$LT$T$GT$9unwrap_or17h015ab340b13816d4E+0xa8>
    baa8: ff ff ff ea  	b	#-4 <_ZN4core6option15Option$LT$T$GT$9unwrap_or17h015ab340b13816d4E+0x98>
    baac: 10 00 9d e5  	ldr	r0, [sp, #16]
    bab0: 14 10 9d e5  	ldr	r1, [sp, #20]
    bab4: 2c d0 8d e2  	add	sp, sp, #44
    bab8: 1e ff 2f e1  	bx	lr
    babc: fa ff ff ea  	b	#-24 <_ZN4core6option15Option$LT$T$GT$9unwrap_or17h015ab340b13816d4E+0x98>

0000bac0 <_ZN4core6option15Option$LT$T$GT$16unwrap_unchecked17h26d673577bdd7b53E>:
    bac0: 00 48 2d e9  	push	{r11, lr}
    bac4: 10 d0 4d e2  	sub	sp, sp, #16
    bac8: 00 10 8d e5  	str	r1, [sp]
    bacc: 08 00 8d e5  	str	r0, [sp, #8]
    bad0: 08 00 8d e2  	add	r0, sp, #8
    bad4: 8b ff ff eb  	bl	#-468 <_ZN4core6option15Option$LT$T$GT$7is_some17h594b3a26af5e585aE>
    bad8: 04 00 8d e5  	str	r0, [sp, #4]
    badc: ff ff ff ea  	b	#-4 <_ZN4core6option15Option$LT$T$GT$16unwrap_unchecked17h26d673577bdd7b53E+0x20>
    bae0: 04 00 9d e5  	ldr	r0, [sp, #4]
    bae4: 01 00 10 e3  	tst	r0, #1
    bae8: 08 00 00 0a  	beq	#32 <_ZN4core6option15Option$LT$T$GT$16unwrap_unchecked17h26d673577bdd7b53E+0x50>
    baec: ff ff ff ea  	b	#-4 <_ZN4core6option15Option$LT$T$GT$16unwrap_unchecked17h26d673577bdd7b53E+0x30>
    baf0: 08 00 9d e5  	ldr	r0, [sp, #8]
    baf4: 00 00 50 e3  	cmp	r0, #0
    baf8: 00 10 a0 e1  	mov	r1, r0
    bafc: 01 10 a0 13  	movne	r1, #1
    bb00: 00 00 50 e3  	cmp	r0, #0
    bb04: 07 00 00 0a  	beq	#28 <_ZN4core6option15Option$LT$T$GT$16unwrap_unchecked17h26d673577bdd7b53E+0x68>
    bb08: ff ff ff ea  	b	#-4 <_ZN4core6option15Option$LT$T$GT$16unwrap_unchecked17h26d673577bdd7b53E+0x4c>
    bb0c: 07 00 00 ea  	b	#28 <_ZN4core6option15Option$LT$T$GT$16unwrap_unchecked17h26d673577bdd7b53E+0x70>
    bb10: 00 20 9d e5  	ldr	r2, [sp]
    bb14: 24 00 9f e5  	ldr	r0, [pc, #36]
    bb18: 20 10 a0 e3  	mov	r1, #32
    bb1c: e4 00 00 eb  	bl	#912 <_ZN4core9panicking5panic17h70f755644c6683e5E>
    bb20: fe de ff e7  	trap
    bb24: fe de ff e7  	trap
    bb28: e9 f5 ff eb  	bl	#-10332 <_ZN4core4hint21unreachable_unchecked17h18b8e30063cbc1c9E>
    bb2c: fe de ff e7  	trap
    bb30: 08 00 9d e5  	ldr	r0, [sp, #8]
    bb34: 0c 00 8d e5  	str	r0, [sp, #12]
    bb38: 10 d0 8d e2  	add	sp, sp, #16
    bb3c: 00 88 bd e8  	pop	{r11, pc}

0000bb40 <$d.1070>:
    bb40:	30 53 01 00	.word	0x00015330

0000bb44 <_ZN4core6option15Option$LT$T$GT$3map17h23edb8605e04aca5E>:
    bb44: 00 48 2d e9  	push	{r11, lr}
    bb48: 20 d0 4d e2  	sub	sp, sp, #32
    bb4c: 04 00 8d e5  	str	r0, [sp, #4]
    bb50: 08 10 8d e5  	str	r1, [sp, #8]
    bb54: 00 00 a0 e3  	mov	r0, #0
    bb58: 17 00 cd e5  	strb	r0, [sp, #23]
    bb5c: 01 00 a0 e3  	mov	r0, #1
    bb60: 17 00 cd e5  	strb	r0, [sp, #23]
    bb64: 04 00 9d e5  	ldr	r0, [sp, #4]
    bb68: 00 00 50 e3  	cmp	r0, #0
    bb6c: 02 00 00 0a  	beq	#8 <_ZN4core6option15Option$LT$T$GT$3map17h23edb8605e04aca5E+0x38>
    bb70: ff ff ff ea  	b	#-4 <_ZN4core6option15Option$LT$T$GT$3map17h23edb8605e04aca5E+0x30>
    bb74: 05 00 00 ea  	b	#20 <_ZN4core6option15Option$LT$T$GT$3map17h23edb8605e04aca5E+0x4c>
    bb78: fe de ff e7  	trap
    bb7c: 00 00 a0 e3  	mov	r0, #0
    bb80: 0c 00 8d e5  	str	r0, [sp, #12]
    bb84: 11 08 a0 e3  	mov	r0, #1114112
    bb88: 0c 00 8d e5  	str	r0, [sp, #12]
    bb8c: 0b 00 00 ea  	b	#44 <_ZN4core6option15Option$LT$T$GT$3map17h23edb8605e04aca5E+0x7c>
    bb90: 08 00 9d e5  	ldr	r0, [sp, #8]
    bb94: 1c 00 8d e5  	str	r0, [sp, #28]
    bb98: 00 10 a0 e3  	mov	r1, #0
    bb9c: 17 10 cd e5  	strb	r1, [sp, #23]
    bba0: 10 00 8d e5  	str	r0, [sp, #16]
    bba4: 10 00 9d e5  	ldr	r0, [sp, #16]
    bba8: fa 15 00 eb  	bl	#22504 <_ZN81_$LT$core..str..iter..Chars$u20$as$u20$core..iter..traits..iterator..Iterator$GT$4next28_$u7b$$u7b$closure$u7d$$u7d$17hd5e273e066f80caaE>
    bbac: 00 00 8d e5  	str	r0, [sp]
    bbb0: ff ff ff ea  	b	#-4 <_ZN4core6option15Option$LT$T$GT$3map17h23edb8605e04aca5E+0x70>
    bbb4: 00 00 9d e5  	ldr	r0, [sp]
    bbb8: 0c 00 8d e5  	str	r0, [sp, #12]
    bbbc: ff ff ff ea  	b	#-4 <_ZN4core6option15Option$LT$T$GT$3map17h23edb8605e04aca5E+0x7c>
    bbc0: 17 00 dd e5  	ldrb	r0, [sp, #23]
    bbc4: 01 00 10 e3  	tst	r0, #1
    bbc8: 03 00 00 1a  	bne	#12 <_ZN4core6option15Option$LT$T$GT$3map17h23edb8605e04aca5E+0x98>
    bbcc: ff ff ff ea  	b	#-4 <_ZN4core6option15Option$LT$T$GT$3map17h23edb8605e04aca5E+0x8c>
    bbd0: 0c 00 9d e5  	ldr	r0, [sp, #12]
    bbd4: 20 d0 8d e2  	add	sp, sp, #32
    bbd8: 00 88 bd e8  	pop	{r11, pc}
    bbdc: fb ff ff ea  	b	#-20 <_ZN4core6option15Option$LT$T$GT$3map17h23edb8605e04aca5E+0x8c>

0000bbe0 <_ZN4core6option15Option$LT$T$GT$5ok_or17ha3aa47d88639c8c3E>:
    bbe0: 20 d0 4d e2  	sub	sp, sp, #32
    bbe4: 00 30 8d e5  	str	r3, [sp]
    bbe8: 04 00 8d e5  	str	r0, [sp, #4]
    bbec: 08 10 8d e5  	str	r1, [sp, #8]
    bbf0: 0c 20 8d e5  	str	r2, [sp, #12]
    bbf4: 14 30 8d e5  	str	r3, [sp, #20]
    bbf8: 00 00 a0 e3  	mov	r0, #0
    bbfc: 13 00 cd e5  	strb	r0, [sp, #19]
    bc00: 01 00 a0 e3  	mov	r0, #1
    bc04: 13 00 cd e5  	strb	r0, [sp, #19]
    bc08: 0c 00 9d e5  	ldr	r0, [sp, #12]
    bc0c: 11 18 50 e2  	subs	r1, r0, #1114112
    bc10: 01 10 a0 13  	movne	r1, #1
    bc14: 11 08 50 e3  	cmp	r0, #1114112
    bc18: 02 00 00 0a  	beq	#8 <_ZN4core6option15Option$LT$T$GT$5ok_or17ha3aa47d88639c8c3E+0x48>
    bc1c: ff ff ff ea  	b	#-4 <_ZN4core6option15Option$LT$T$GT$5ok_or17ha3aa47d88639c8c3E+0x40>
    bc20: 08 00 00 ea  	b	#32 <_ZN4core6option15Option$LT$T$GT$5ok_or17ha3aa47d88639c8c3E+0x68>
    bc24: fe de ff e7  	trap
    bc28: 04 10 9d e5  	ldr	r1, [sp, #4]
    bc2c: 00 00 9d e5  	ldr	r0, [sp]
    bc30: 00 20 a0 e3  	mov	r2, #0
    bc34: 13 20 cd e5  	strb	r2, [sp, #19]
    bc38: 04 00 81 e5  	str	r0, [r1, #4]
    bc3c: 01 00 a0 e3  	mov	r0, #1
    bc40: 00 00 81 e5  	str	r0, [r1]
    bc44: 09 00 00 ea  	b	#36 <_ZN4core6option15Option$LT$T$GT$5ok_or17ha3aa47d88639c8c3E+0x90>
    bc48: 04 10 9d e5  	ldr	r1, [sp, #4]
    bc4c: 08 20 9d e5  	ldr	r2, [sp, #8]
    bc50: 0c 00 9d e5  	ldr	r0, [sp, #12]
    bc54: 18 20 8d e5  	str	r2, [sp, #24]
    bc58: 1c 00 8d e5  	str	r0, [sp, #28]
    bc5c: 04 20 81 e5  	str	r2, [r1, #4]
    bc60: 08 00 81 e5  	str	r0, [r1, #8]
    bc64: 00 00 a0 e3  	mov	r0, #0
    bc68: 00 00 81 e5  	str	r0, [r1]
    bc6c: ff ff ff ea  	b	#-4 <_ZN4core6option15Option$LT$T$GT$5ok_or17ha3aa47d88639c8c3E+0x90>
    bc70: 13 00 dd e5  	ldrb	r0, [sp, #19]
    bc74: 01 00 10 e3  	tst	r0, #1
    bc78: 02 00 00 1a  	bne	#8 <_ZN4core6option15Option$LT$T$GT$5ok_or17ha3aa47d88639c8c3E+0xa8>
    bc7c: ff ff ff ea  	b	#-4 <_ZN4core6option15Option$LT$T$GT$5ok_or17ha3aa47d88639c8c3E+0xa0>
    bc80: 20 d0 8d e2  	add	sp, sp, #32
    bc84: 1e ff 2f e1  	bx	lr
    bc88: fc ff ff ea  	b	#-16 <_ZN4core6option15Option$LT$T$GT$5ok_or17ha3aa47d88639c8c3E+0xa0>

0000bc8c <_ZN75_$LT$core..option..Option$LT$T$GT$$u20$as$u20$core..ops..try_trait..Try$GT$6branch17h0370284d3a85f031E>:
    bc8c: 0c d0 4d e2  	sub	sp, sp, #12
    bc90: 00 00 8d e5  	str	r0, [sp]
    bc94: 00 00 9d e5  	ldr	r0, [sp]
    bc98: 00 00 50 e3  	cmp	r0, #0
    bc9c: 00 10 a0 e1  	mov	r1, r0
    bca0: 01 10 a0 13  	movne	r1, #1
    bca4: 00 00 50 e3  	cmp	r0, #0
    bca8: 02 00 00 0a  	beq	#8 <_ZN75_$LT$core..option..Option$LT$T$GT$$u20$as$u20$core..ops..try_trait..Try$GT$6branch17h0370284d3a85f031E+0x2c>
    bcac: ff ff ff ea  	b	#-4 <_ZN75_$LT$core..option..Option$LT$T$GT$$u20$as$u20$core..ops..try_trait..Try$GT$6branch17h0370284d3a85f031E+0x24>
    bcb0: 03 00 00 ea  	b	#12 <_ZN75_$LT$core..option..Option$LT$T$GT$$u20$as$u20$core..ops..try_trait..Try$GT$6branch17h0370284d3a85f031E+0x38>
    bcb4: fe de ff e7  	trap
    bcb8: 00 00 a0 e3  	mov	r0, #0
    bcbc: 04 00 8d e5  	str	r0, [sp, #4]
    bcc0: 03 00 00 ea  	b	#12 <_ZN75_$LT$core..option..Option$LT$T$GT$$u20$as$u20$core..ops..try_trait..Try$GT$6branch17h0370284d3a85f031E+0x48>
    bcc4: 00 00 9d e5  	ldr	r0, [sp]
    bcc8: 08 00 8d e5  	str	r0, [sp, #8]
    bccc: 04 00 8d e5  	str	r0, [sp, #4]
    bcd0: ff ff ff ea  	b	#-4 <_ZN75_$LT$core..option..Option$LT$T$GT$$u20$as$u20$core..ops..try_trait..Try$GT$6branch17h0370284d3a85f031E+0x48>
    bcd4: 04 00 9d e5  	ldr	r0, [sp, #4]
    bcd8: 0c d0 8d e2  	add	sp, sp, #12
    bcdc: 1e ff 2f e1  	bx	lr

0000bce0 <_ZN75_$LT$core..option..Option$LT$T$GT$$u20$as$u20$core..ops..try_trait..Try$GT$6branch17h172a407fe4f652a4E>:
    bce0: 0c d0 4d e2  	sub	sp, sp, #12
    bce4: 00 00 8d e5  	str	r0, [sp]
    bce8: 00 00 9d e5  	ldr	r0, [sp]
    bcec: 00 00 50 e3  	cmp	r0, #0
    bcf0: 00 10 a0 e1  	mov	r1, r0
    bcf4: 01 10 a0 13  	movne	r1, #1
    bcf8: 00 00 50 e3  	cmp	r0, #0
    bcfc: 02 00 00 0a  	beq	#8 <_ZN75_$LT$core..option..Option$LT$T$GT$$u20$as$u20$core..ops..try_trait..Try$GT$6branch17h172a407fe4f652a4E+0x2c>
    bd00: ff ff ff ea  	b	#-4 <_ZN75_$LT$core..option..Option$LT$T$GT$$u20$as$u20$core..ops..try_trait..Try$GT$6branch17h172a407fe4f652a4E+0x24>
    bd04: 03 00 00 ea  	b	#12 <_ZN75_$LT$core..option..Option$LT$T$GT$$u20$as$u20$core..ops..try_trait..Try$GT$6branch17h172a407fe4f652a4E+0x38>
    bd08: fe de ff e7  	trap
    bd0c: 00 00 a0 e3  	mov	r0, #0
    bd10: 04 00 8d e5  	str	r0, [sp, #4]
    bd14: 03 00 00 ea  	b	#12 <_ZN75_$LT$core..option..Option$LT$T$GT$$u20$as$u20$core..ops..try_trait..Try$GT$6branch17h172a407fe4f652a4E+0x48>
    bd18: 00 00 9d e5  	ldr	r0, [sp]
    bd1c: 08 00 8d e5  	str	r0, [sp, #8]
    bd20: 04 00 8d e5  	str	r0, [sp, #4]
    bd24: ff ff ff ea  	b	#-4 <_ZN75_$LT$core..option..Option$LT$T$GT$$u20$as$u20$core..ops..try_trait..Try$GT$6branch17h172a407fe4f652a4E+0x48>
    bd28: 04 00 9d e5  	ldr	r0, [sp, #4]
    bd2c: 0c d0 8d e2  	add	sp, sp, #12
    bd30: 1e ff 2f e1  	bx	lr

0000bd34 <_ZN75_$LT$core..option..Option$LT$T$GT$$u20$as$u20$core..ops..try_trait..Try$GT$6branch17h1ec5a3c41af1443aE>:
    bd34: 0c d0 4d e2  	sub	sp, sp, #12
    bd38: 00 00 8d e5  	str	r0, [sp]
    bd3c: 00 00 9d e5  	ldr	r0, [sp]
    bd40: 00 00 50 e3  	cmp	r0, #0
    bd44: 00 10 a0 e1  	mov	r1, r0
    bd48: 01 10 a0 13  	movne	r1, #1
    bd4c: 00 00 50 e3  	cmp	r0, #0
    bd50: 02 00 00 0a  	beq	#8 <_ZN75_$LT$core..option..Option$LT$T$GT$$u20$as$u20$core..ops..try_trait..Try$GT$6branch17h1ec5a3c41af1443aE+0x2c>
    bd54: ff ff ff ea  	b	#-4 <_ZN75_$LT$core..option..Option$LT$T$GT$$u20$as$u20$core..ops..try_trait..Try$GT$6branch17h1ec5a3c41af1443aE+0x24>
    bd58: 03 00 00 ea  	b	#12 <_ZN75_$LT$core..option..Option$LT$T$GT$$u20$as$u20$core..ops..try_trait..Try$GT$6branch17h1ec5a3c41af1443aE+0x38>
    bd5c: fe de ff e7  	trap
    bd60: 00 00 a0 e3  	mov	r0, #0
    bd64: 04 00 8d e5  	str	r0, [sp, #4]
    bd68: 03 00 00 ea  	b	#12 <_ZN75_$LT$core..option..Option$LT$T$GT$$u20$as$u20$core..ops..try_trait..Try$GT$6branch17h1ec5a3c41af1443aE+0x48>
    bd6c: 00 00 9d e5  	ldr	r0, [sp]
    bd70: 08 00 8d e5  	str	r0, [sp, #8]
    bd74: 04 00 8d e5  	str	r0, [sp, #4]
    bd78: ff ff ff ea  	b	#-4 <_ZN75_$LT$core..option..Option$LT$T$GT$$u20$as$u20$core..ops..try_trait..Try$GT$6branch17h1ec5a3c41af1443aE+0x48>
    bd7c: 04 00 9d e5  	ldr	r0, [sp, #4]
    bd80: 0c d0 8d e2  	add	sp, sp, #12
    bd84: 1e ff 2f e1  	bx	lr

0000bd88 <_ZN75_$LT$core..option..Option$LT$T$GT$$u20$as$u20$core..ops..try_trait..Try$GT$6branch17hef7b8f4425754491E>:
    bd88: 08 d0 4d e2  	sub	sp, sp, #8
    bd8c: 02 00 cd e5  	strb	r0, [sp, #2]
    bd90: 02 00 dd e5  	ldrb	r0, [sp, #2]
    bd94: 01 00 10 e3  	tst	r0, #1
    bd98: 02 00 00 0a  	beq	#8 <_ZN75_$LT$core..option..Option$LT$T$GT$$u20$as$u20$core..ops..try_trait..Try$GT$6branch17hef7b8f4425754491E+0x20>
    bd9c: ff ff ff ea  	b	#-4 <_ZN75_$LT$core..option..Option$LT$T$GT$$u20$as$u20$core..ops..try_trait..Try$GT$6branch17hef7b8f4425754491E+0x18>
    bda0: 03 00 00 ea  	b	#12 <_ZN75_$LT$core..option..Option$LT$T$GT$$u20$as$u20$core..ops..try_trait..Try$GT$6branch17hef7b8f4425754491E+0x2c>
    bda4: fe de ff e7  	trap
    bda8: 01 00 a0 e3  	mov	r0, #1
    bdac: 03 00 cd e5  	strb	r0, [sp, #3]
    bdb0: 02 00 00 ea  	b	#8 <_ZN75_$LT$core..option..Option$LT$T$GT$$u20$as$u20$core..ops..try_trait..Try$GT$6branch17hef7b8f4425754491E+0x38>
    bdb4: 00 00 a0 e3  	mov	r0, #0
    bdb8: 03 00 cd e5  	strb	r0, [sp, #3]
    bdbc: ff ff ff ea  	b	#-4 <_ZN75_$LT$core..option..Option$LT$T$GT$$u20$as$u20$core..ops..try_trait..Try$GT$6branch17hef7b8f4425754491E+0x38>
    bdc0: 03 00 dd e5  	ldrb	r0, [sp, #3]
    bdc4: 08 d0 8d e2  	add	sp, sp, #8
    bdc8: 1e ff 2f e1  	bx	lr

0000bdcc <_ZN84_$LT$core..option..Option$LT$T$GT$$u20$as$u20$core..ops..try_trait..FromResidual$GT$13from_residual17h508954eeadc7c28aE>:
    bdcc: 0c d0 4d e2  	sub	sp, sp, #12
    bdd0: 00 00 a0 e3  	mov	r0, #0
    bdd4: 00 00 8d e5  	str	r0, [sp]
    bdd8: 00 00 9d e5  	ldr	r0, [sp]
    bddc: 04 10 9d e5  	ldr	r1, [sp, #4]
    bde0: 0c d0 8d e2  	add	sp, sp, #12
    bde4: 1e ff 2f e1  	bx	lr

0000bde8 <_ZN84_$LT$core..option..Option$LT$T$GT$$u20$as$u20$core..ops..try_trait..FromResidual$GT$13from_residual17h66d8bfb897ed8223E>:
    bde8: 0c d0 4d e2  	sub	sp, sp, #12
    bdec: 00 00 a0 e3  	mov	r0, #0
    bdf0: 04 00 8d e5  	str	r0, [sp, #4]
    bdf4: 00 00 8d e5  	str	r0, [sp]
    bdf8: 11 08 a0 e3  	mov	r0, #1114112
    bdfc: 04 00 8d e5  	str	r0, [sp, #4]
    be00: 00 00 9d e5  	ldr	r0, [sp]
    be04: 04 10 9d e5  	ldr	r1, [sp, #4]
    be08: 0c d0 8d e2  	add	sp, sp, #12
    be0c: 1e ff 2f e1  	bx	lr

0000be10 <_ZN84_$LT$core..option..Option$LT$T$GT$$u20$as$u20$core..ops..try_trait..FromResidual$GT$13from_residual17he5c01615d13b92aaE>:
    be10: 0c d0 4d e2  	sub	sp, sp, #12
    be14: 00 00 a0 e3  	mov	r0, #0
    be18: 04 00 8d e5  	str	r0, [sp, #4]
    be1c: 00 00 8d e5  	str	r0, [sp]
    be20: 04 00 8d e5  	str	r0, [sp, #4]
    be24: 00 00 9d e5  	ldr	r0, [sp]
    be28: 04 10 9d e5  	ldr	r1, [sp, #4]
    be2c: 0c d0 8d e2  	add	sp, sp, #12
    be30: 1e ff 2f e1  	bx	lr

0000be34 <_ZN84_$LT$core..option..Option$LT$T$GT$$u20$as$u20$core..ops..try_trait..FromResidual$GT$13from_residual17hf243c3f500f9a7ebE>:
    be34: 0c d0 4d e2  	sub	sp, sp, #12
    be38: 00 00 a0 e3  	mov	r0, #0
    be3c: 04 00 8d e5  	str	r0, [sp, #4]
    be40: 00 00 8d e5  	str	r0, [sp]
    be44: 04 00 8d e5  	str	r0, [sp, #4]
    be48: 00 00 9d e5  	ldr	r0, [sp]
    be4c: 04 10 9d e5  	ldr	r1, [sp, #4]
    be50: 0c d0 8d e2  	add	sp, sp, #12
    be54: 1e ff 2f e1  	bx	lr

0000be58 <_ZN4core5panic8location8Location6caller17h599fd882f0ca72d3E>:
    be58: 08 d0 4d e2  	sub	sp, sp, #8
    be5c: 04 00 8d e5  	str	r0, [sp, #4]
    be60: 04 00 9d e5  	ldr	r0, [sp, #4]
    be64: 00 00 8d e5  	str	r0, [sp]
    be68: ff ff ff ea  	b	#-4 <_ZN4core5panic8location8Location6caller17h599fd882f0ca72d3E+0x14>
    be6c: 00 00 9d e5  	ldr	r0, [sp]
    be70: 08 d0 8d e2  	add	sp, sp, #8
    be74: 1e ff 2f e1  	bx	lr

0000be78 <_ZN4core5panic10panic_info9PanicInfo20internal_constructor17hff58fc59f9b36707E>:
    be78: 0c d0 4d e2  	sub	sp, sp, #12
    be7c: 00 10 8d e5  	str	r1, [sp]
    be80: 04 20 8d e5  	str	r2, [sp, #4]
    be84: 0b 30 cd e5  	strb	r3, [sp, #11]
    be88: 1c c0 9f e5  	ldr	r12, [pc, #28]
    be8c: 00 c0 80 e5  	str	r12, [r0]
    be90: 18 c0 9f e5  	ldr	r12, [pc, #24]
    be94: 04 c0 80 e5  	str	r12, [r0, #4]
    be98: 08 10 80 e5  	str	r1, [r0, #8]
    be9c: 0c 20 80 e5  	str	r2, [r0, #12]
    bea0: 10 30 c0 e5  	strb	r3, [r0, #16]
    bea4: 0c d0 8d e2  	add	sp, sp, #12
    bea8: 1e ff 2f e1  	bx	lr

0000beac <$d.1152>:
    beac:	38 55 01 00	.word	0x00015538
    beb0:	94 59 01 00	.word	0x00015994

0000beb4 <_ZN4core9panicking5panic17h70f755644c6683e5E>:
    beb4: 30 d0 4d e2  	sub	sp, sp, #48
    beb8: 04 20 8d e5  	str	r2, [sp, #4]
    bebc: 28 00 8d e5  	str	r0, [sp, #40]
    bec0: 2c 10 8d e5  	str	r1, [sp, #44]
    bec4: 20 00 8d e5  	str	r0, [sp, #32]
    bec8: 24 10 8d e5  	str	r1, [sp, #36]
    becc: 0d 10 a0 e1  	mov	r1, sp
    bed0: 00 00 a0 e3  	mov	r0, #0
    bed4: 00 00 81 e5  	str	r0, [r1]
    bed8: 20 30 9f e5  	ldr	r3, [pc, #32]
    bedc: 08 00 8d e2  	add	r0, sp, #8
    bee0: 20 10 8d e2  	add	r1, sp, #32
    bee4: 01 20 a0 e3  	mov	r2, #1
    bee8: 53 04 00 eb  	bl	#4428 <_ZN4core3fmt9Arguments6new_v117hd47ebd6f67dc7416E>
    beec: ff ff ff ea  	b	#-4 <_ZN4core9panicking5panic17h70f755644c6683e5E+0x3c>
    bef0: 04 10 9d e5  	ldr	r1, [sp, #4]
    bef4: 08 00 8d e2  	add	r0, sp, #8
    bef8: 24 00 00 eb  	bl	#144 <_ZN4core9panicking9panic_fmt17h22cd6c9efa5fe474E>
    befc: fe de ff e7  	trap

0000bf00 <$d.1160>:
    bf00:	38 55 01 00	.word	0x00015538

0000bf04 <_ZN4core9panicking18panic_bounds_check17h0b43d6a3154b2a88E>:
    bf04: 48 d0 4d e2  	sub	sp, sp, #72
    bf08: 0c 20 8d e5  	str	r2, [sp, #12]
    bf0c: 18 00 8d e5  	str	r0, [sp, #24]
    bf10: 1c 10 8d e5  	str	r1, [sp, #28]
    bf14: 1c 00 8d e2  	add	r0, sp, #28
    bf18: 8f 1b 00 eb  	bl	#28220 <_ZN4core3fmt10ArgumentV111new_display17h62eda62979a94284E>
    bf1c: 10 00 8d e5  	str	r0, [sp, #16]
    bf20: 14 10 8d e5  	str	r1, [sp, #20]
    bf24: ff ff ff ea  	b	#-4 <_ZN4core9panicking18panic_bounds_check17h0b43d6a3154b2a88E+0x24>
    bf28: 18 00 8d e2  	add	r0, sp, #24
    bf2c: 8a 1b 00 eb  	bl	#28200 <_ZN4core3fmt10ArgumentV111new_display17h62eda62979a94284E>
    bf30: 04 00 8d e5  	str	r0, [sp, #4]
    bf34: 08 10 8d e5  	str	r1, [sp, #8]
    bf38: ff ff ff ea  	b	#-4 <_ZN4core9panicking18panic_bounds_check17h0b43d6a3154b2a88E+0x38>
    bf3c: 08 00 9d e5  	ldr	r0, [sp, #8]
    bf40: 04 10 9d e5  	ldr	r1, [sp, #4]
    bf44: 14 20 9d e5  	ldr	r2, [sp, #20]
    bf48: 10 30 9d e5  	ldr	r3, [sp, #16]
    bf4c: 38 30 8d e5  	str	r3, [sp, #56]
    bf50: 3c 20 8d e5  	str	r2, [sp, #60]
    bf54: 40 10 8d e5  	str	r1, [sp, #64]
    bf58: 44 00 8d e5  	str	r0, [sp, #68]
    bf5c: 0d 00 a0 e1  	mov	r0, sp
    bf60: 02 20 a0 e3  	mov	r2, #2
    bf64: 00 20 80 e5  	str	r2, [r0]
    bf68: 1c 10 9f e5  	ldr	r1, [pc, #28]
    bf6c: 20 00 8d e2  	add	r0, sp, #32
    bf70: 38 30 8d e2  	add	r3, sp, #56
    bf74: 30 04 00 eb  	bl	#4288 <_ZN4core3fmt9Arguments6new_v117hd47ebd6f67dc7416E>
    bf78: ff ff ff ea  	b	#-4 <_ZN4core9panicking18panic_bounds_check17h0b43d6a3154b2a88E+0x78>
    bf7c: 0c 10 9d e5  	ldr	r1, [sp, #12]
    bf80: 20 00 8d e2  	add	r0, sp, #32
    bf84: 01 00 00 eb  	bl	#4 <_ZN4core9panicking9panic_fmt17h22cd6c9efa5fe474E>
    bf88: fe de ff e7  	trap

0000bf8c <$d.1165>:
    bf8c:	b8 59 01 00	.word	0x000159b8

0000bf90 <_ZN4core9panicking9panic_fmt17h22cd6c9efa5fe474E>:
    bf90: 20 d0 4d e2  	sub	sp, sp, #32
    bf94: 00 10 8d e5  	str	r1, [sp]
    bf98: 00 10 a0 e1  	mov	r1, r0
    bf9c: 00 00 9d e5  	ldr	r0, [sp]
    bfa0: 1c 10 8d e5  	str	r1, [sp, #28]
    bfa4: ab ff ff eb  	bl	#-340 <_ZN4core5panic8location8Location6caller17h599fd882f0ca72d3E>
    bfa8: 04 00 8d e5  	str	r0, [sp, #4]
    bfac: ff ff ff ea  	b	#-4 <_ZN4core9panicking9panic_fmt17h22cd6c9efa5fe474E+0x20>
    bfb0: 04 20 9d e5  	ldr	r2, [sp, #4]
    bfb4: 1c 10 9d e5  	ldr	r1, [sp, #28]
    bfb8: 08 00 8d e2  	add	r0, sp, #8
    bfbc: 01 30 a0 e3  	mov	r3, #1
    bfc0: ac ff ff eb  	bl	#-336 <_ZN4core5panic10panic_info9PanicInfo20internal_constructor17hff58fc59f9b36707E>
    bfc4: ff ff ff ea  	b	#-4 <_ZN4core9panicking9panic_fmt17h22cd6c9efa5fe474E+0x38>
    bfc8: 08 00 8d e2  	add	r0, sp, #8
    bfcc: 14 f0 ff eb  	bl	#-16304 <rust_begin_unwind>
    bfd0: fe de ff e7  	trap

0000bfd4 <_ZN4core9panicking13assert_failed17h5e83c24258d73ba7E>:
    bfd4: 30 d0 4d e2  	sub	sp, sp, #48
    bfd8: 03 c0 a0 e1  	mov	r12, r3
    bfdc: 30 30 9d e5  	ldr	r3, [sp, #48]
    bfe0: 0c 10 8d e5  	str	r1, [sp, #12]
    bfe4: 10 20 8d e5  	str	r2, [sp, #16]
    bfe8: 2f 00 cd e5  	strb	r0, [sp, #47]
    bfec: 14 20 8d e2  	add	r2, sp, #20
    bff0: 02 10 a0 e1  	mov	r1, r2
    bff4: f0 41 9c e8  	ldm	r12, {r4, r5, r6, r7, r8, lr}
    bff8: f0 41 81 e8  	stm	r1, {r4, r5, r6, r7, r8, lr}
    bffc: 0d 10 a0 e1  	mov	r1, sp
    c000: 08 30 81 e5  	str	r3, [r1, #8]
    c004: 04 20 81 e5  	str	r2, [r1, #4]
    c008: 10 20 9f e5  	ldr	r2, [pc, #16]
    c00c: 00 20 81 e5  	str	r2, [r1]
    c010: 0c 10 8d e2  	add	r1, sp, #12
    c014: 10 30 8d e2  	add	r3, sp, #16
    c018: 01 00 00 eb  	bl	#4 <_ZN4core9panicking19assert_failed_inner17ha32612bf0b3c1066E>
    c01c: fe de ff e7  	trap

0000c020 <$d.1176>:
    c020:	c8 59 01 00	.word	0x000159c8

0000c024 <_ZN4core9panicking19assert_failed_inner17ha32612bf0b3c1066E>:
    c024: 30 00 2d e9  	push	{r4, r5}
    c028: e8 d0 4d e2  	sub	sp, sp, #232
    c02c: 00 c0 a0 e1  	mov	r12, r0
    c030: f8 00 9d e5  	ldr	r0, [sp, #248]
    c034: 40 00 8d e5  	str	r0, [sp, #64]
    c038: f4 00 9d e5  	ldr	r0, [sp, #244]
    c03c: 44 00 8d e5  	str	r0, [sp, #68]
    c040: f0 00 9d e5  	ldr	r0, [sp, #240]
    c044: 4f c0 cd e5  	strb	r12, [sp, #79]
    c048: 50 10 8d e5  	str	r1, [sp, #80]
    c04c: 54 20 8d e5  	str	r2, [sp, #84]
    c050: 58 30 8d e5  	str	r3, [sp, #88]
    c054: 5c 00 8d e5  	str	r0, [sp, #92]
    c058: 4f 00 dd e5  	ldrb	r0, [sp, #79]
    c05c: 00 10 a0 e1  	mov	r1, r0
    c060: 48 10 8d e5  	str	r1, [sp, #72]
    c064: 00 00 50 e3  	cmp	r0, #0
    c068: 06 00 00 0a  	beq	#24 <_ZN4core9panicking19assert_failed_inner17ha32612bf0b3c1066E+0x64>
    c06c: ff ff ff ea  	b	#-4 <_ZN4core9panicking19assert_failed_inner17ha32612bf0b3c1066E+0x4c>
    c070: 48 00 9d e5  	ldr	r0, [sp, #72]
    c074: 01 00 50 e3  	cmp	r0, #1
    c078: 07 00 00 0a  	beq	#28 <_ZN4core9panicking19assert_failed_inner17ha32612bf0b3c1066E+0x78>
    c07c: ff ff ff ea  	b	#-4 <_ZN4core9panicking19assert_failed_inner17ha32612bf0b3c1066E+0x5c>
    c080: 0a 00 00 ea  	b	#40 <_ZN4core9panicking19assert_failed_inner17ha32612bf0b3c1066E+0x8c>
    c084: fe de ff e7  	trap
    c088: d4 01 9f e5  	ldr	r0, [pc, #468]
    c08c: 60 00 8d e5  	str	r0, [sp, #96]
    c090: 02 00 a0 e3  	mov	r0, #2
    c094: 64 00 8d e5  	str	r0, [sp, #100]
    c098: 09 00 00 ea  	b	#36 <_ZN4core9panicking19assert_failed_inner17ha32612bf0b3c1066E+0xa0>
    c09c: bc 01 9f e5  	ldr	r0, [pc, #444]
    c0a0: 60 00 8d e5  	str	r0, [sp, #96]
    c0a4: 02 00 a0 e3  	mov	r0, #2
    c0a8: 64 00 8d e5  	str	r0, [sp, #100]
    c0ac: 04 00 00 ea  	b	#16 <_ZN4core9panicking19assert_failed_inner17ha32612bf0b3c1066E+0xa0>
    c0b0: a4 01 9f e5  	ldr	r0, [pc, #420]
    c0b4: 60 00 8d e5  	str	r0, [sp, #96]
    c0b8: 07 00 a0 e3  	mov	r0, #7
    c0bc: 64 00 8d e5  	str	r0, [sp, #100]
    c0c0: ff ff ff ea  	b	#-4 <_ZN4core9panicking19assert_failed_inner17ha32612bf0b3c1066E+0xa0>
    c0c4: 44 00 9d e5  	ldr	r0, [sp, #68]
    c0c8: 00 00 90 e5  	ldr	r0, [r0]
    c0cc: 00 00 50 e3  	cmp	r0, #0
    c0d0: 00 10 a0 e1  	mov	r1, r0
    c0d4: 01 10 a0 13  	movne	r1, #1
    c0d8: 00 00 50 e3  	cmp	r0, #0
    c0dc: 02 00 00 0a  	beq	#8 <_ZN4core9panicking19assert_failed_inner17ha32612bf0b3c1066E+0xc8>
    c0e0: ff ff ff ea  	b	#-4 <_ZN4core9panicking19assert_failed_inner17ha32612bf0b3c1066E+0xc0>
    c0e4: 05 00 00 ea  	b	#20 <_ZN4core9panicking19assert_failed_inner17ha32612bf0b3c1066E+0xdc>
    c0e8: fe de ff e7  	trap
    c0ec: 60 00 8d e2  	add	r0, sp, #96
    c0f0: 0c 1b 00 eb  	bl	#27696 <_ZN4core3fmt10ArgumentV111new_display17h5becac182c5242eeE>
    c0f4: 38 00 8d e5  	str	r0, [sp, #56]
    c0f8: 3c 10 8d e5  	str	r1, [sp, #60]
    c0fc: 33 00 00 ea  	b	#204 <_ZN4core9panicking19assert_failed_inner17ha32612bf0b3c1066E+0x1ac>
    c100: 44 10 9d e5  	ldr	r1, [sp, #68]
    c104: 68 00 8d e2  	add	r0, sp, #104
    c108: 3c 50 91 e8  	ldm	r1, {r2, r3, r4, r5, r12, lr}
    c10c: 3c 50 80 e8  	stm	r0, {r2, r3, r4, r5, r12, lr}
    c110: 60 00 8d e2  	add	r0, sp, #96
    c114: 03 1b 00 eb  	bl	#27660 <_ZN4core3fmt10ArgumentV111new_display17h5becac182c5242eeE>
    c118: 30 00 8d e5  	str	r0, [sp, #48]
    c11c: 34 10 8d e5  	str	r1, [sp, #52]
    c120: ff ff ff ea  	b	#-4 <_ZN4core9panicking19assert_failed_inner17ha32612bf0b3c1066E+0x100>
    c124: 50 00 8d e2  	add	r0, sp, #80
    c128: 32 1b 00 eb  	bl	#27848 <_ZN4core3fmt10ArgumentV19new_debug17h8fa7896cd18c0858E>
    c12c: 28 00 8d e5  	str	r0, [sp, #40]
    c130: 2c 10 8d e5  	str	r1, [sp, #44]
    c134: ff ff ff ea  	b	#-4 <_ZN4core9panicking19assert_failed_inner17ha32612bf0b3c1066E+0x114>
    c138: 58 00 8d e2  	add	r0, sp, #88
    c13c: 2d 1b 00 eb  	bl	#27828 <_ZN4core3fmt10ArgumentV19new_debug17h8fa7896cd18c0858E>
    c140: 20 00 8d e5  	str	r0, [sp, #32]
    c144: 24 10 8d e5  	str	r1, [sp, #36]
    c148: ff ff ff ea  	b	#-4 <_ZN4core9panicking19assert_failed_inner17ha32612bf0b3c1066E+0x128>
    c14c: 68 00 8d e2  	add	r0, sp, #104
    c150: 1b 1b 00 eb  	bl	#27756 <_ZN4core3fmt10ArgumentV111new_display17h70b2dfacf2c69a11E>
    c154: 18 00 8d e5  	str	r0, [sp, #24]
    c158: 1c 10 8d e5  	str	r1, [sp, #28]
    c15c: ff ff ff ea  	b	#-4 <_ZN4core9panicking19assert_failed_inner17ha32612bf0b3c1066E+0x13c>
    c160: 1c 00 9d e5  	ldr	r0, [sp, #28]
    c164: 18 10 9d e5  	ldr	r1, [sp, #24]
    c168: 24 20 9d e5  	ldr	r2, [sp, #36]
    c16c: 20 30 9d e5  	ldr	r3, [sp, #32]
    c170: 2c c0 9d e5  	ldr	r12, [sp, #44]
    c174: 28 e0 9d e5  	ldr	lr, [sp, #40]
    c178: 34 40 9d e5  	ldr	r4, [sp, #52]
    c17c: 30 50 9d e5  	ldr	r5, [sp, #48]
    c180: 98 50 8d e5  	str	r5, [sp, #152]
    c184: 9c 40 8d e5  	str	r4, [sp, #156]
    c188: a0 e0 8d e5  	str	lr, [sp, #160]
    c18c: a4 c0 8d e5  	str	r12, [sp, #164]
    c190: a8 30 8d e5  	str	r3, [sp, #168]
    c194: ac 20 8d e5  	str	r2, [sp, #172]
    c198: b0 10 8d e5  	str	r1, [sp, #176]
    c19c: b4 00 8d e5  	str	r0, [sp, #180]
    c1a0: 0d 00 a0 e1  	mov	r0, sp
    c1a4: 04 20 a0 e3  	mov	r2, #4
    c1a8: 00 20 80 e5  	str	r2, [r0]
    c1ac: b4 10 9f e5  	ldr	r1, [pc, #180]
    c1b0: 80 00 8d e2  	add	r0, sp, #128
    c1b4: 98 30 8d e2  	add	r3, sp, #152
    c1b8: 9f 03 00 eb  	bl	#3708 <_ZN4core3fmt9Arguments6new_v117hd47ebd6f67dc7416E>
    c1bc: ff ff ff ea  	b	#-4 <_ZN4core9panicking19assert_failed_inner17ha32612bf0b3c1066E+0x19c>
    c1c0: 40 10 9d e5  	ldr	r1, [sp, #64]
    c1c4: 80 00 8d e2  	add	r0, sp, #128
    c1c8: 70 ff ff eb  	bl	#-576 <_ZN4core9panicking9panic_fmt17h22cd6c9efa5fe474E>
    c1cc: fe de ff e7  	trap
    c1d0: 50 00 8d e2  	add	r0, sp, #80
    c1d4: 07 1b 00 eb  	bl	#27676 <_ZN4core3fmt10ArgumentV19new_debug17h8fa7896cd18c0858E>
    c1d8: 10 00 8d e5  	str	r0, [sp, #16]
    c1dc: 14 10 8d e5  	str	r1, [sp, #20]
    c1e0: ff ff ff ea  	b	#-4 <_ZN4core9panicking19assert_failed_inner17ha32612bf0b3c1066E+0x1c0>
    c1e4: 58 00 8d e2  	add	r0, sp, #88
    c1e8: 02 1b 00 eb  	bl	#27656 <_ZN4core3fmt10ArgumentV19new_debug17h8fa7896cd18c0858E>
    c1ec: 08 00 8d e5  	str	r0, [sp, #8]
    c1f0: 0c 10 8d e5  	str	r1, [sp, #12]
    c1f4: ff ff ff ea  	b	#-4 <_ZN4core9panicking19assert_failed_inner17ha32612bf0b3c1066E+0x1d4>
    c1f8: 0c 00 9d e5  	ldr	r0, [sp, #12]
    c1fc: 08 10 9d e5  	ldr	r1, [sp, #8]
    c200: 14 20 9d e5  	ldr	r2, [sp, #20]
    c204: 10 30 9d e5  	ldr	r3, [sp, #16]
    c208: 3c c0 9d e5  	ldr	r12, [sp, #60]
    c20c: 38 e0 9d e5  	ldr	lr, [sp, #56]
    c210: d0 e0 8d e5  	str	lr, [sp, #208]
    c214: d4 c0 8d e5  	str	r12, [sp, #212]
    c218: d8 30 8d e5  	str	r3, [sp, #216]
    c21c: dc 20 8d e5  	str	r2, [sp, #220]
    c220: e0 10 8d e5  	str	r1, [sp, #224]
    c224: e4 00 8d e5  	str	r0, [sp, #228]
    c228: 0d 10 a0 e1  	mov	r1, sp
    c22c: 03 00 a0 e3  	mov	r0, #3
    c230: 00 00 81 e5  	str	r0, [r1]
    c234: 30 10 9f e5  	ldr	r1, [pc, #48]
    c238: b8 00 8d e2  	add	r0, sp, #184
    c23c: 04 20 a0 e3  	mov	r2, #4
    c240: d0 30 8d e2  	add	r3, sp, #208
    c244: 7c 03 00 eb  	bl	#3568 <_ZN4core3fmt9Arguments6new_v117hd47ebd6f67dc7416E>
    c248: ff ff ff ea  	b	#-4 <_ZN4core9panicking19assert_failed_inner17ha32612bf0b3c1066E+0x228>
    c24c: 40 10 9d e5  	ldr	r1, [sp, #64]
    c250: b8 00 8d e2  	add	r0, sp, #184
    c254: 4d ff ff eb  	bl	#-716 <_ZN4core9panicking9panic_fmt17h22cd6c9efa5fe474E>
    c258: fe de ff e7  	trap

0000c25c <$d.1183>:
    c25c:	d8 59 01 00	.word	0x000159d8
    c260:	df 59 01 00	.word	0x000159df
    c264:	e1 59 01 00	.word	0x000159e1
    c268:	20 5a 01 00	.word	0x00015a20
    c26c:	44 5a 01 00	.word	0x00015a44

0000c270 <_ZN4core6result19Result$LT$T$C$E$GT$2ok17h994d761dd1548f19E>:
    c270: 10 d0 4d e2  	sub	sp, sp, #16
    c274: 00 00 8d e5  	str	r0, [sp]
    c278: 04 10 8d e5  	str	r1, [sp, #4]
    c27c: 00 00 9d e5  	ldr	r0, [sp]
    c280: 00 00 50 e3  	cmp	r0, #0
    c284: 02 00 00 0a  	beq	#8 <_ZN4core6result19Result$LT$T$C$E$GT$2ok17h994d761dd1548f19E+0x24>
    c288: ff ff ff ea  	b	#-4 <_ZN4core6result19Result$LT$T$C$E$GT$2ok17h994d761dd1548f19E+0x1c>
    c28c: 03 00 00 ea  	b	#12 <_ZN4core6result19Result$LT$T$C$E$GT$2ok17h994d761dd1548f19E+0x30>
    c290: fe de ff e7  	trap
    c294: 01 00 a0 e3  	mov	r0, #1
    c298: 0b 00 cd e5  	strb	r0, [sp, #11]
    c29c: 02 00 00 ea  	b	#8 <_ZN4core6result19Result$LT$T$C$E$GT$2ok17h994d761dd1548f19E+0x3c>
    c2a0: 00 00 a0 e3  	mov	r0, #0
    c2a4: 0b 00 cd e5  	strb	r0, [sp, #11]
    c2a8: ff ff ff ea  	b	#-4 <_ZN4core6result19Result$LT$T$C$E$GT$2ok17h994d761dd1548f19E+0x3c>
    c2ac: 00 00 9d e5  	ldr	r0, [sp]
    c2b0: 00 00 50 e3  	cmp	r0, #0
    c2b4: 03 00 00 1a  	bne	#12 <_ZN4core6result19Result$LT$T$C$E$GT$2ok17h994d761dd1548f19E+0x58>
    c2b8: ff ff ff ea  	b	#-4 <_ZN4core6result19Result$LT$T$C$E$GT$2ok17h994d761dd1548f19E+0x4c>
    c2bc: 0b 00 dd e5  	ldrb	r0, [sp, #11]
    c2c0: 10 d0 8d e2  	add	sp, sp, #16
    c2c4: 1e ff 2f e1  	bx	lr
    c2c8: fb ff ff ea  	b	#-20 <_ZN4core6result19Result$LT$T$C$E$GT$2ok17h994d761dd1548f19E+0x4c>

0000c2cc <_ZN79_$LT$core..result..Result$LT$T$C$E$GT$$u20$as$u20$core..ops..try_trait..Try$GT$6branch17hcc6c949fd870dea7E>:
    c2cc: 18 d0 4d e2  	sub	sp, sp, #24
    c2d0: 00 10 8d e5  	str	r1, [sp]
    c2d4: 04 00 8d e5  	str	r0, [sp, #4]
    c2d8: 00 00 91 e5  	ldr	r0, [r1]
    c2dc: 00 00 50 e3  	cmp	r0, #0
    c2e0: 02 00 00 0a  	beq	#8 <_ZN79_$LT$core..result..Result$LT$T$C$E$GT$$u20$as$u20$core..ops..try_trait..Try$GT$6branch17hcc6c949fd870dea7E+0x24>
    c2e4: ff ff ff ea  	b	#-4 <_ZN79_$LT$core..result..Result$LT$T$C$E$GT$$u20$as$u20$core..ops..try_trait..Try$GT$6branch17hcc6c949fd870dea7E+0x1c>
    c2e8: 0b 00 00 ea  	b	#44 <_ZN79_$LT$core..result..Result$LT$T$C$E$GT$$u20$as$u20$core..ops..try_trait..Try$GT$6branch17hcc6c949fd870dea7E+0x50>
    c2ec: fe de ff e7  	trap
    c2f0: 04 10 9d e5  	ldr	r1, [sp, #4]
    c2f4: 00 00 9d e5  	ldr	r0, [sp]
    c2f8: 04 20 90 e5  	ldr	r2, [r0, #4]
    c2fc: 08 00 90 e5  	ldr	r0, [r0, #8]
    c300: 10 20 8d e5  	str	r2, [sp, #16]
    c304: 14 00 8d e5  	str	r0, [sp, #20]
    c308: 04 20 81 e5  	str	r2, [r1, #4]
    c30c: 08 00 81 e5  	str	r0, [r1, #8]
    c310: 00 00 a0 e3  	mov	r0, #0
    c314: 00 00 81 e5  	str	r0, [r1]
    c318: 09 00 00 ea  	b	#36 <_ZN79_$LT$core..result..Result$LT$T$C$E$GT$$u20$as$u20$core..ops..try_trait..Try$GT$6branch17hcc6c949fd870dea7E+0x78>
    c31c: 04 10 9d e5  	ldr	r1, [sp, #4]
    c320: 00 00 9d e5  	ldr	r0, [sp]
    c324: 04 00 90 e5  	ldr	r0, [r0, #4]
    c328: 0c 00 8d e5  	str	r0, [sp, #12]
    c32c: 08 00 8d e5  	str	r0, [sp, #8]
    c330: 08 00 9d e5  	ldr	r0, [sp, #8]
    c334: 04 00 81 e5  	str	r0, [r1, #4]
    c338: 01 00 a0 e3  	mov	r0, #1
    c33c: 00 00 81 e5  	str	r0, [r1]
    c340: ff ff ff ea  	b	#-4 <_ZN79_$LT$core..result..Result$LT$T$C$E$GT$$u20$as$u20$core..ops..try_trait..Try$GT$6branch17hcc6c949fd870dea7E+0x78>
    c344: 18 d0 8d e2  	add	sp, sp, #24
    c348: 1e ff 2f e1  	bx	lr

0000c34c <_ZN79_$LT$core..result..Result$LT$T$C$E$GT$$u20$as$u20$core..ops..try_trait..Try$GT$6branch17hd1d9da8509624ae6E>:
    c34c: 10 d0 4d e2  	sub	sp, sp, #16
    c350: 02 00 cd e5  	strb	r0, [sp, #2]
    c354: 02 00 dd e5  	ldrb	r0, [sp, #2]
    c358: 01 00 10 e3  	tst	r0, #1
    c35c: 02 00 00 0a  	beq	#8 <_ZN79_$LT$core..result..Result$LT$T$C$E$GT$$u20$as$u20$core..ops..try_trait..Try$GT$6branch17hd1d9da8509624ae6E+0x20>
    c360: ff ff ff ea  	b	#-4 <_ZN79_$LT$core..result..Result$LT$T$C$E$GT$$u20$as$u20$core..ops..try_trait..Try$GT$6branch17hd1d9da8509624ae6E+0x18>
    c364: 03 00 00 ea  	b	#12 <_ZN79_$LT$core..result..Result$LT$T$C$E$GT$$u20$as$u20$core..ops..try_trait..Try$GT$6branch17hd1d9da8509624ae6E+0x2c>
    c368: fe de ff e7  	trap
    c36c: 00 00 a0 e3  	mov	r0, #0
    c370: 03 00 cd e5  	strb	r0, [sp, #3]
    c374: 02 00 00 ea  	b	#8 <_ZN79_$LT$core..result..Result$LT$T$C$E$GT$$u20$as$u20$core..ops..try_trait..Try$GT$6branch17hd1d9da8509624ae6E+0x38>
    c378: 01 00 a0 e3  	mov	r0, #1
    c37c: 03 00 cd e5  	strb	r0, [sp, #3]
    c380: ff ff ff ea  	b	#-4 <_ZN79_$LT$core..result..Result$LT$T$C$E$GT$$u20$as$u20$core..ops..try_trait..Try$GT$6branch17hd1d9da8509624ae6E+0x38>
    c384: 03 00 dd e5  	ldrb	r0, [sp, #3]
    c388: 10 d0 8d e2  	add	sp, sp, #16
    c38c: 1e ff 2f e1  	bx	lr

0000c390 <_ZN79_$LT$core..result..Result$LT$T$C$E$GT$$u20$as$u20$core..ops..try_trait..Try$GT$6branch17hec82a34d0273634fE>:
    c390: 20 d0 4d e2  	sub	sp, sp, #32
    c394: 00 00 8d e5  	str	r0, [sp]
    c398: 04 10 8d e5  	str	r1, [sp, #4]
    c39c: 00 00 9d e5  	ldr	r0, [sp]
    c3a0: 11 18 40 e2  	sub	r1, r0, #1114112
    c3a4: 11 1f 6f e1  	clz	r1, r1
    c3a8: a1 12 a0 e1  	lsr	r1, r1, #5
    c3ac: 11 08 50 e3  	cmp	r0, #1114112
    c3b0: 02 00 00 1a  	bne	#8 <_ZN79_$LT$core..result..Result$LT$T$C$E$GT$$u20$as$u20$core..ops..try_trait..Try$GT$6branch17hec82a34d0273634fE+0x30>
    c3b4: ff ff ff ea  	b	#-4 <_ZN79_$LT$core..result..Result$LT$T$C$E$GT$$u20$as$u20$core..ops..try_trait..Try$GT$6branch17hec82a34d0273634fE+0x28>
    c3b8: 07 00 00 ea  	b	#28 <_ZN79_$LT$core..result..Result$LT$T$C$E$GT$$u20$as$u20$core..ops..try_trait..Try$GT$6branch17hec82a34d0273634fE+0x4c>
    c3bc: fe de ff e7  	trap
    c3c0: 00 10 9d e5  	ldr	r1, [sp]
    c3c4: 04 00 9d e5  	ldr	r0, [sp, #4]
    c3c8: 18 10 8d e5  	str	r1, [sp, #24]
    c3cc: 1c 00 8d e5  	str	r0, [sp, #28]
    c3d0: 08 10 8d e5  	str	r1, [sp, #8]
    c3d4: 0c 00 8d e5  	str	r0, [sp, #12]
    c3d8: 05 00 00 ea  	b	#20 <_ZN79_$LT$core..result..Result$LT$T$C$E$GT$$u20$as$u20$core..ops..try_trait..Try$GT$6branch17hec82a34d0273634fE+0x64>
    c3dc: 00 00 a0 e3  	mov	r0, #0
    c3e0: 0c 00 8d e5  	str	r0, [sp, #12]
    c3e4: 08 00 8d e5  	str	r0, [sp, #8]
    c3e8: 11 08 a0 e3  	mov	r0, #1114112
    c3ec: 08 00 8d e5  	str	r0, [sp, #8]
    c3f0: ff ff ff ea  	b	#-4 <_ZN79_$LT$core..result..Result$LT$T$C$E$GT$$u20$as$u20$core..ops..try_trait..Try$GT$6branch17hec82a34d0273634fE+0x64>
    c3f4: 08 00 9d e5  	ldr	r0, [sp, #8]
    c3f8: 0c 10 9d e5  	ldr	r1, [sp, #12]
    c3fc: 20 d0 8d e2  	add	sp, sp, #32
    c400: 1e ff 2f e1  	bx	lr

0000c404 <_ZN153_$LT$core..result..Result$LT$T$C$F$GT$$u20$as$u20$core..ops..try_trait..FromResidual$LT$core..result..Result$LT$core..convert..Infallible$C$E$GT$$GT$$GT$13from_residual17h411b96776abd096cE>:
    c404: 00 48 2d e9  	push	{r11, lr}
    c408: 10 d0 4d e2  	sub	sp, sp, #16
    c40c: 58 fa ff eb  	bl	#-5792 <_ZN50_$LT$T$u20$as$u20$core..convert..From$LT$T$GT$$GT$4from17hec8ef8de88f19ff9E>
    c410: ff ff ff ea  	b	#-4 <_ZN153_$LT$core..result..Result$LT$T$C$F$GT$$u20$as$u20$core..ops..try_trait..FromResidual$LT$core..result..Result$LT$core..convert..Infallible$C$E$GT$$GT$$GT$13from_residual17h411b96776abd096cE+0x10>
    c414: 01 00 a0 e3  	mov	r0, #1
    c418: 07 00 cd e5  	strb	r0, [sp, #7]
    c41c: 07 00 dd e5  	ldrb	r0, [sp, #7]
    c420: 10 d0 8d e2  	add	sp, sp, #16
    c424: 00 88 bd e8  	pop	{r11, pc}

0000c428 <_ZN153_$LT$core..result..Result$LT$T$C$F$GT$$u20$as$u20$core..ops..try_trait..FromResidual$LT$core..result..Result$LT$core..convert..Infallible$C$E$GT$$GT$$GT$13from_residual17h54991ea20b922efbE>:
    c428: 00 48 2d e9  	push	{r11, lr}
    c42c: 10 d0 4d e2  	sub	sp, sp, #16
    c430: 4f fa ff eb  	bl	#-5828 <_ZN50_$LT$T$u20$as$u20$core..convert..From$LT$T$GT$$GT$4from17hec8ef8de88f19ff9E>
    c434: ff ff ff ea  	b	#-4 <_ZN153_$LT$core..result..Result$LT$T$C$F$GT$$u20$as$u20$core..ops..try_trait..FromResidual$LT$core..result..Result$LT$core..convert..Infallible$C$E$GT$$GT$$GT$13from_residual17h54991ea20b922efbE+0x10>
    c438: 00 00 a0 e3  	mov	r0, #0
    c43c: 04 00 8d e5  	str	r0, [sp, #4]
    c440: 00 00 8d e5  	str	r0, [sp]
    c444: 11 08 a0 e3  	mov	r0, #1114112
    c448: 00 00 8d e5  	str	r0, [sp]
    c44c: 00 00 9d e5  	ldr	r0, [sp]
    c450: 04 10 9d e5  	ldr	r1, [sp, #4]
    c454: 10 d0 8d e2  	add	sp, sp, #16
    c458: 00 88 bd e8  	pop	{r11, pc}

0000c45c <_ZN153_$LT$core..result..Result$LT$T$C$F$GT$$u20$as$u20$core..ops..try_trait..FromResidual$LT$core..result..Result$LT$core..convert..Infallible$C$E$GT$$GT$$GT$13from_residual17h921f7eb520c50607E>:
    c45c: 00 48 2d e9  	push	{r11, lr}
    c460: 18 d0 4d e2  	sub	sp, sp, #24
    c464: 08 00 8d e5  	str	r0, [sp, #8]
    c468: 08 00 9d e5  	ldr	r0, [sp, #8]
    c46c: 14 00 8d e5  	str	r0, [sp, #20]
    c470: 3b fa ff eb  	bl	#-5908 <_ZN50_$LT$T$u20$as$u20$core..convert..From$LT$T$GT$$GT$4from17h6610ac7b74997422E>
    c474: 04 00 8d e5  	str	r0, [sp, #4]
    c478: ff ff ff ea  	b	#-4 <_ZN153_$LT$core..result..Result$LT$T$C$F$GT$$u20$as$u20$core..ops..try_trait..FromResidual$LT$core..result..Result$LT$core..convert..Infallible$C$E$GT$$GT$$GT$13from_residual17h921f7eb520c50607E+0x20>
    c47c: 04 00 9d e5  	ldr	r0, [sp, #4]
    c480: 10 00 8d e5  	str	r0, [sp, #16]
    c484: 01 00 a0 e3  	mov	r0, #1
    c488: 0c 00 8d e5  	str	r0, [sp, #12]
    c48c: 0c 00 9d e5  	ldr	r0, [sp, #12]
    c490: 10 10 9d e5  	ldr	r1, [sp, #16]
    c494: 18 d0 8d e2  	add	sp, sp, #24
    c498: 00 88 bd e8  	pop	{r11, pc}

0000c49c <_ZN4core3fmt3num12GenericRadix7fmt_int17h3d51f26de88d8bbeE>:
    c49c: 00 48 2d e9  	push	{r11, lr}
    c4a0: 1b de 4d e2  	sub	sp, sp, #432
    c4a4: a0 20 8d e5  	str	r2, [sp, #160]
    c4a8: a4 10 8d e5  	str	r1, [sp, #164]
    c4ac: 54 01 8d e5  	str	r0, [sp, #340]
    c4b0: 58 21 8d e5  	str	r2, [sp, #344]
    c4b4: f4 16 00 eb  	bl	#23504 <_ZN52_$LT$usize$u20$as$u20$core..fmt..num..DisplayInt$GT$4zero17h71a2b1b2c5062d51E>
    c4b8: a8 00 8d e5  	str	r0, [sp, #168]
    c4bc: ff ff ff ea  	b	#-4 <_ZN4core3fmt3num12GenericRadix7fmt_int17h3d51f26de88d8bbeE+0x24>
    c4c0: a4 00 8d e2  	add	r0, sp, #164
    c4c4: a8 10 8d e2  	add	r1, sp, #168
    c4c8: 5a 16 00 eb  	bl	#22888 <_ZN4core3cmp5impls57_$LT$impl$u20$core..cmp..PartialOrd$u20$for$u20$usize$GT$2ge17h3b07ee89d904bc72E>
    c4cc: 00 10 a0 e1  	mov	r1, r0
    c4d0: 9c 10 8d e5  	str	r1, [sp, #156]
    c4d4: 5f 01 cd e5  	strb	r0, [sp, #351]
    c4d8: ff ff ff ea  	b	#-4 <_ZN4core3fmt3num12GenericRadix7fmt_int17h3d51f26de88d8bbeE+0x40>
    c4dc: 7f 01 dd e5  	ldrb	r0, [sp, #383]
    c4e0: 98 00 8d e5  	str	r0, [sp, #152]
    c4e4: ff ff ff ea  	b	#-4 <_ZN4core3fmt3num12GenericRadix7fmt_int17h3d51f26de88d8bbeE+0x4c>
    c4e8: 98 00 9d e5  	ldr	r0, [sp, #152]
    c4ec: 70 20 ef e6  	uxtb	r2, r0
    c4f0: ac 00 8d e2  	add	r0, sp, #172
    c4f4: 80 10 a0 e3  	mov	r1, #128
    c4f8: 90 10 8d e5  	str	r1, [sp, #144]
    c4fc: ce 1e 00 eb  	bl	#31544 <__aeabi_memset>
    c500: 90 00 9d e5  	ldr	r0, [sp, #144]
    c504: 2c 01 8d e5  	str	r0, [sp, #300]
    c508: 10 00 a0 e3  	mov	r0, #16
    c50c: e0 16 00 eb  	bl	#23424 <_ZN52_$LT$usize$u20$as$u20$core..fmt..num..DisplayInt$GT$7from_u817h534d523d1617fc6eE>
    c510: 00 10 a0 e1  	mov	r1, r0
    c514: 94 10 8d e5  	str	r1, [sp, #148]
    c518: 60 01 8d e5  	str	r0, [sp, #352]
    c51c: ff ff ff ea  	b	#-4 <_ZN4core3fmt3num12GenericRadix7fmt_int17h3d51f26de88d8bbeE+0x84>
    c520: 9c 00 9d e5  	ldr	r0, [sp, #156]
    c524: 01 00 10 e3  	tst	r0, #1
    c528: 06 00 00 1a  	bne	#24 <_ZN4core3fmt3num12GenericRadix7fmt_int17h3d51f26de88d8bbeE+0xac>
    c52c: ff ff ff ea  	b	#-4 <_ZN4core3fmt3num12GenericRadix7fmt_int17h3d51f26de88d8bbeE+0x94>
    c530: ac 00 8d e2  	add	r0, sp, #172
    c534: 80 10 a0 e3  	mov	r1, #128
    c538: 76 0e 00 eb  	bl	#14808 <_ZN4core5slice29_$LT$impl$u20$$u5b$T$u5d$$GT$8iter_mut17hc7e629f952ad5a61E>
    c53c: 88 00 8d e5  	str	r0, [sp, #136]
    c540: 8c 10 8d e5  	str	r1, [sp, #140]
    c544: 67 00 00 ea  	b	#412 <_ZN4core3fmt3num12GenericRadix7fmt_int17h3d51f26de88d8bbeE+0x24c>
    c548: ac 00 8d e2  	add	r0, sp, #172
    c54c: 80 10 a0 e3  	mov	r1, #128
    c550: 70 0e 00 eb  	bl	#14784 <_ZN4core5slice29_$LT$impl$u20$$u5b$T$u5d$$GT$8iter_mut17hc7e629f952ad5a61E>
    c554: 80 00 8d e5  	str	r0, [sp, #128]
    c558: 84 10 8d e5  	str	r1, [sp, #132]
    c55c: ff ff ff ea  	b	#-4 <_ZN4core3fmt3num12GenericRadix7fmt_int17h3d51f26de88d8bbeE+0xc4>
    c560: 84 10 9d e5  	ldr	r1, [sp, #132]
    c564: 80 00 9d e5  	ldr	r0, [sp, #128]
    c568: c1 fc ff eb  	bl	#-3324 <_ZN4core4iter6traits8iterator8Iterator3rev17hf285382833a11cd2E>
    c56c: 78 00 8d e5  	str	r0, [sp, #120]
    c570: 7c 10 8d e5  	str	r1, [sp, #124]
    c574: ff ff ff ea  	b	#-4 <_ZN4core3fmt3num12GenericRadix7fmt_int17h3d51f26de88d8bbeE+0xdc>
    c578: 7c 10 9d e5  	ldr	r1, [sp, #124]
    c57c: 78 00 9d e5  	ldr	r0, [sp, #120]
    c580: fb fb ff eb  	bl	#-4116 <_ZN63_$LT$I$u20$as$u20$core..iter..traits..collect..IntoIterator$GT$9into_iter17hcd91a9ec3b2efec4E>
    c584: 70 00 8d e5  	str	r0, [sp, #112]
    c588: 74 10 8d e5  	str	r1, [sp, #116]
    c58c: ff ff ff ea  	b	#-4 <_ZN4core3fmt3num12GenericRadix7fmt_int17h3d51f26de88d8bbeE+0xf4>
    c590: 74 00 9d e5  	ldr	r0, [sp, #116]
    c594: 70 10 9d e5  	ldr	r1, [sp, #112]
    c598: 30 11 8d e5  	str	r1, [sp, #304]
    c59c: 34 01 8d e5  	str	r0, [sp, #308]
    c5a0: ff ff ff ea  	b	#-4 <_ZN4core3fmt3num12GenericRadix7fmt_int17h3d51f26de88d8bbeE+0x108>
    c5a4: 13 0e 8d e2  	add	r0, sp, #304
    c5a8: 95 fb ff eb  	bl	#-4524 <_ZN98_$LT$core..iter..adapters..rev..Rev$LT$I$GT$$u20$as$u20$core..iter..traits..iterator..Iterator$GT$4next17haa679e51fd5c7fb6E>
    c5ac: 38 01 8d e5  	str	r0, [sp, #312]
    c5b0: ff ff ff ea  	b	#-4 <_ZN4core3fmt3num12GenericRadix7fmt_int17h3d51f26de88d8bbeE+0x118>
    c5b4: 38 01 9d e5  	ldr	r0, [sp, #312]
    c5b8: 00 00 50 e3  	cmp	r0, #0
    c5bc: 00 10 a0 e1  	mov	r1, r0
    c5c0: 01 10 a0 13  	movne	r1, #1
    c5c4: 00 00 50 e3  	cmp	r0, #0
    c5c8: 02 00 00 0a  	beq	#8 <_ZN4core3fmt3num12GenericRadix7fmt_int17h3d51f26de88d8bbeE+0x13c>
    c5cc: ff ff ff ea  	b	#-4 <_ZN4core3fmt3num12GenericRadix7fmt_int17h3d51f26de88d8bbeE+0x134>
    c5d0: 09 00 00 ea  	b	#36 <_ZN4core3fmt3num12GenericRadix7fmt_int17h3d51f26de88d8bbeE+0x160>
    c5d4: fe de ff e7  	trap
    c5d8: 2c 01 9d e5  	ldr	r0, [sp, #300]
    c5dc: 50 01 8d e5  	str	r0, [sp, #336]
    c5e0: 50 11 9d e5  	ldr	r1, [sp, #336]
    c5e4: 30 23 9f e5  	ldr	r2, [pc, #816]
    c5e8: ac 00 8d e2  	add	r0, sp, #172
    c5ec: 0e fa ff eb  	bl	#-6088 <_ZN4core5array85_$LT$impl$u20$core..ops..index..Index$LT$I$GT$$u20$for$u20$$u5b$T$u3b$$u20$N$u5d$$GT$5index17h014adf7b6a71ea87E>
    c5f0: 68 00 8d e5  	str	r0, [sp, #104]
    c5f4: 6c 10 8d e5  	str	r1, [sp, #108]
    c5f8: 9a 00 00 ea  	b	#616 <_ZN4core3fmt3num12GenericRadix7fmt_int17h3d51f26de88d8bbeE+0x3cc>
    c5fc: 94 10 9d e5  	ldr	r1, [sp, #148]
    c600: 38 01 9d e5  	ldr	r0, [sp, #312]
    c604: 64 00 8d e5  	str	r0, [sp, #100]
    c608: 64 01 8d e5  	str	r0, [sp, #356]
    c60c: a4 00 9d e5  	ldr	r0, [sp, #164]
    c610: 57 16 00 eb  	bl	#22876 <_ZN47_$LT$usize$u20$as$u20$core..ops..arith..Rem$GT$3rem17hed0e05905b88c63fE>
    c614: 3c 01 8d e5  	str	r0, [sp, #316]
    c618: ff ff ff ea  	b	#-4 <_ZN4core3fmt3num12GenericRadix7fmt_int17h3d51f26de88d8bbeE+0x180>
    c61c: 94 10 9d e5  	ldr	r1, [sp, #148]
    c620: a4 00 9d e5  	ldr	r0, [sp, #164]
    c624: 3f 16 00 eb  	bl	#22780 <_ZN47_$LT$usize$u20$as$u20$core..ops..arith..Div$GT$3div17h2df646bc9efd9019E>
    c628: 60 00 8d e5  	str	r0, [sp, #96]
    c62c: ff ff ff ea  	b	#-4 <_ZN4core3fmt3num12GenericRadix7fmt_int17h3d51f26de88d8bbeE+0x194>
    c630: 60 00 9d e5  	ldr	r0, [sp, #96]
    c634: a4 00 8d e5  	str	r0, [sp, #164]
    c638: 4f 0f 8d e2  	add	r0, sp, #316
    c63c: 99 16 00 eb  	bl	#23140 <_ZN52_$LT$usize$u20$as$u20$core..fmt..num..DisplayInt$GT$5to_u817hc1b2240e79eebfa1E>
    c640: 5c 00 8d e5  	str	r0, [sp, #92]
    c644: ff ff ff ea  	b	#-4 <_ZN4core3fmt3num12GenericRadix7fmt_int17h3d51f26de88d8bbeE+0x1ac>
    c648: 5c 00 9d e5  	ldr	r0, [sp, #92]
    c64c: 14 17 00 eb  	bl	#23632 <_ZN73_$LT$core..fmt..num..UpperHex$u20$as$u20$core..fmt..num..GenericRadix$GT$5digit17heaf3f1595d42a858E>
    c650: 58 00 8d e5  	str	r0, [sp, #88]
    c654: ff ff ff ea  	b	#-4 <_ZN4core3fmt3num12GenericRadix7fmt_int17h3d51f26de88d8bbeE+0x1bc>
    c658: 64 00 9d e5  	ldr	r0, [sp, #100]
    c65c: 58 10 9d e5  	ldr	r1, [sp, #88]
    c660: 8c 01 8d e5  	str	r0, [sp, #396]
    c664: 93 11 cd e5  	strb	r1, [sp, #403]
    c668: 95 11 cd e5  	strb	r1, [sp, #405]
    c66c: 97 11 cd e5  	strb	r1, [sp, #407]
    c670: 96 11 cd e5  	strb	r1, [sp, #406]
    c674: 96 11 dd e5  	ldrb	r1, [sp, #406]
    c678: 94 11 cd e5  	strb	r1, [sp, #404]
    c67c: 94 11 dd e5  	ldrb	r1, [sp, #404]
    c680: 00 10 c0 e5  	strb	r1, [r0]
    c684: 98 01 8d e5  	str	r0, [sp, #408]
    c688: 9c 01 8d e5  	str	r0, [sp, #412]
    c68c: ff ff ff ea  	b	#-4 <_ZN4core3fmt3num12GenericRadix7fmt_int17h3d51f26de88d8bbeE+0x1f4>
    c690: 2c 01 9d e5  	ldr	r0, [sp, #300]
    c694: 01 10 40 e2  	sub	r1, r0, #1
    c698: 54 10 8d e5  	str	r1, [sp, #84]
    c69c: 01 00 50 e3  	cmp	r0, #1
    c6a0: 07 00 00 3a  	blo	#28 <_ZN4core3fmt3num12GenericRadix7fmt_int17h3d51f26de88d8bbeE+0x228>
    c6a4: ff ff ff ea  	b	#-4 <_ZN4core3fmt3num12GenericRadix7fmt_int17h3d51f26de88d8bbeE+0x20c>
    c6a8: 54 00 9d e5  	ldr	r0, [sp, #84]
    c6ac: 2c 01 8d e5  	str	r0, [sp, #300]
    c6b0: a4 00 8d e2  	add	r0, sp, #164
    c6b4: a8 10 8d e2  	add	r1, sp, #168
    c6b8: c7 15 00 eb  	bl	#22300 <_ZN4core3cmp5impls56_$LT$impl$u20$core..cmp..PartialEq$u20$for$u20$usize$GT$2eq17h72e042646ebe0583E>
    c6bc: 50 00 8d e5  	str	r0, [sp, #80]
    c6c0: 04 00 00 ea  	b	#16 <_ZN4core3fmt3num12GenericRadix7fmt_int17h3d51f26de88d8bbeE+0x23c>
    c6c4: 44 02 9f e5  	ldr	r0, [pc, #580]
    c6c8: 48 22 9f e5  	ldr	r2, [pc, #584]
    c6cc: 21 10 a0 e3  	mov	r1, #33
    c6d0: f7 fd ff eb  	bl	#-2084 <_ZN4core9panicking5panic17h70f755644c6683e5E>
    c6d4: fe de ff e7  	trap
    c6d8: 50 00 9d e5  	ldr	r0, [sp, #80]
    c6dc: 01 00 10 e3  	tst	r0, #1
    c6e0: bc ff ff 1a  	bne	#-272 <_ZN4core3fmt3num12GenericRadix7fmt_int17h3d51f26de88d8bbeE+0x13c>
    c6e4: ae ff ff ea  	b	#-328 <_ZN4core3fmt3num12GenericRadix7fmt_int17h3d51f26de88d8bbeE+0x108>
    c6e8: 8c 10 9d e5  	ldr	r1, [sp, #140]
    c6ec: 88 00 9d e5  	ldr	r0, [sp, #136]
    c6f0: 5f fc ff eb  	bl	#-3716 <_ZN4core4iter6traits8iterator8Iterator3rev17hf285382833a11cd2E>
    c6f4: 48 00 8d e5  	str	r0, [sp, #72]
    c6f8: 4c 10 8d e5  	str	r1, [sp, #76]
    c6fc: ff ff ff ea  	b	#-4 <_ZN4core3fmt3num12GenericRadix7fmt_int17h3d51f26de88d8bbeE+0x264>
    c700: 4c 10 9d e5  	ldr	r1, [sp, #76]
    c704: 48 00 9d e5  	ldr	r0, [sp, #72]
    c708: 99 fb ff eb  	bl	#-4508 <_ZN63_$LT$I$u20$as$u20$core..iter..traits..collect..IntoIterator$GT$9into_iter17hcd91a9ec3b2efec4E>
    c70c: 40 00 8d e5  	str	r0, [sp, #64]
    c710: 44 10 8d e5  	str	r1, [sp, #68]
    c714: ff ff ff ea  	b	#-4 <_ZN4core3fmt3num12GenericRadix7fmt_int17h3d51f26de88d8bbeE+0x27c>
    c718: 44 00 9d e5  	ldr	r0, [sp, #68]
    c71c: 40 10 9d e5  	ldr	r1, [sp, #64]
    c720: 40 11 8d e5  	str	r1, [sp, #320]
    c724: 44 01 8d e5  	str	r0, [sp, #324]
    c728: ff ff ff ea  	b	#-4 <_ZN4core3fmt3num12GenericRadix7fmt_int17h3d51f26de88d8bbeE+0x290>
    c72c: 05 0d 8d e2  	add	r0, sp, #320
    c730: 33 fb ff eb  	bl	#-4916 <_ZN98_$LT$core..iter..adapters..rev..Rev$LT$I$GT$$u20$as$u20$core..iter..traits..iterator..Iterator$GT$4next17haa679e51fd5c7fb6E>
    c734: 48 01 8d e5  	str	r0, [sp, #328]
    c738: ff ff ff ea  	b	#-4 <_ZN4core3fmt3num12GenericRadix7fmt_int17h3d51f26de88d8bbeE+0x2a0>
    c73c: 48 01 9d e5  	ldr	r0, [sp, #328]
    c740: 00 00 50 e3  	cmp	r0, #0
    c744: 00 10 a0 e1  	mov	r1, r0
    c748: 01 10 a0 13  	movne	r1, #1
    c74c: 00 00 50 e3  	cmp	r0, #0
    c750: a0 ff ff 0a  	beq	#-384 <_ZN4core3fmt3num12GenericRadix7fmt_int17h3d51f26de88d8bbeE+0x13c>
    c754: ff ff ff ea  	b	#-4 <_ZN4core3fmt3num12GenericRadix7fmt_int17h3d51f26de88d8bbeE+0x2bc>
    c758: 00 00 00 ea  	b	#0 <_ZN4core3fmt3num12GenericRadix7fmt_int17h3d51f26de88d8bbeE+0x2c4>
    c75c: fe de ff e7  	trap
    c760: 94 10 9d e5  	ldr	r1, [sp, #148]
    c764: 48 01 9d e5  	ldr	r0, [sp, #328]
    c768: 34 00 8d e5  	str	r0, [sp, #52]
    c76c: 68 01 8d e5  	str	r0, [sp, #360]
    c770: a8 00 9d e5  	ldr	r0, [sp, #168]
    c774: 38 00 8d e5  	str	r0, [sp, #56]
    c778: a4 00 9d e5  	ldr	r0, [sp, #164]
    c77c: fc 15 00 eb  	bl	#22512 <_ZN47_$LT$usize$u20$as$u20$core..ops..arith..Rem$GT$3rem17hed0e05905b88c63fE>
    c780: 3c 00 8d e5  	str	r0, [sp, #60]
    c784: ff ff ff ea  	b	#-4 <_ZN4core3fmt3num12GenericRadix7fmt_int17h3d51f26de88d8bbeE+0x2ec>
    c788: 3c 10 9d e5  	ldr	r1, [sp, #60]
    c78c: 38 00 9d e5  	ldr	r0, [sp, #56]
    c790: d2 15 00 eb  	bl	#22344 <_ZN47_$LT$usize$u20$as$u20$core..ops..arith..Sub$GT$3sub17h64ad1807df18bbb0E>
    c794: 4c 01 8d e5  	str	r0, [sp, #332]
    c798: ff ff ff ea  	b	#-4 <_ZN4core3fmt3num12GenericRadix7fmt_int17h3d51f26de88d8bbeE+0x300>
    c79c: 94 10 9d e5  	ldr	r1, [sp, #148]
    c7a0: a4 00 9d e5  	ldr	r0, [sp, #164]
    c7a4: df 15 00 eb  	bl	#22396 <_ZN47_$LT$usize$u20$as$u20$core..ops..arith..Div$GT$3div17h2df646bc9efd9019E>
    c7a8: 30 00 8d e5  	str	r0, [sp, #48]
    c7ac: ff ff ff ea  	b	#-4 <_ZN4core3fmt3num12GenericRadix7fmt_int17h3d51f26de88d8bbeE+0x314>
    c7b0: 30 00 9d e5  	ldr	r0, [sp, #48]
    c7b4: a4 00 8d e5  	str	r0, [sp, #164]
    c7b8: 53 0f 8d e2  	add	r0, sp, #332
    c7bc: 39 16 00 eb  	bl	#22756 <_ZN52_$LT$usize$u20$as$u20$core..fmt..num..DisplayInt$GT$5to_u817hc1b2240e79eebfa1E>
    c7c0: 2c 00 8d e5  	str	r0, [sp, #44]
    c7c4: ff ff ff ea  	b	#-4 <_ZN4core3fmt3num12GenericRadix7fmt_int17h3d51f26de88d8bbeE+0x32c>
    c7c8: 2c 00 9d e5  	ldr	r0, [sp, #44]
    c7cc: b4 16 00 eb  	bl	#23248 <_ZN73_$LT$core..fmt..num..UpperHex$u20$as$u20$core..fmt..num..GenericRadix$GT$5digit17heaf3f1595d42a858E>
    c7d0: 28 00 8d e5  	str	r0, [sp, #40]
    c7d4: ff ff ff ea  	b	#-4 <_ZN4core3fmt3num12GenericRadix7fmt_int17h3d51f26de88d8bbeE+0x33c>
    c7d8: 34 00 9d e5  	ldr	r0, [sp, #52]
    c7dc: 28 10 9d e5  	ldr	r1, [sp, #40]
    c7e0: 80 01 8d e5  	str	r0, [sp, #384]
    c7e4: 87 11 cd e5  	strb	r1, [sp, #391]
    c7e8: 89 11 cd e5  	strb	r1, [sp, #393]
    c7ec: 8b 11 cd e5  	strb	r1, [sp, #395]
    c7f0: 8a 11 cd e5  	strb	r1, [sp, #394]
    c7f4: 8a 11 dd e5  	ldrb	r1, [sp, #394]
    c7f8: 88 11 cd e5  	strb	r1, [sp, #392]
    c7fc: 88 11 dd e5  	ldrb	r1, [sp, #392]
    c800: 00 10 c0 e5  	strb	r1, [r0]
    c804: a0 01 8d e5  	str	r0, [sp, #416]
    c808: a4 01 8d e5  	str	r0, [sp, #420]
    c80c: ff ff ff ea  	b	#-4 <_ZN4core3fmt3num12GenericRadix7fmt_int17h3d51f26de88d8bbeE+0x374>
    c810: 2c 01 9d e5  	ldr	r0, [sp, #300]
    c814: 01 10 40 e2  	sub	r1, r0, #1
    c818: 24 10 8d e5  	str	r1, [sp, #36]
    c81c: 01 00 50 e3  	cmp	r0, #1
    c820: 07 00 00 3a  	blo	#28 <_ZN4core3fmt3num12GenericRadix7fmt_int17h3d51f26de88d8bbeE+0x3a8>
    c824: ff ff ff ea  	b	#-4 <_ZN4core3fmt3num12GenericRadix7fmt_int17h3d51f26de88d8bbeE+0x38c>
    c828: 24 00 9d e5  	ldr	r0, [sp, #36]
    c82c: 2c 01 8d e5  	str	r0, [sp, #300]
    c830: a4 00 8d e2  	add	r0, sp, #164
    c834: a8 10 8d e2  	add	r1, sp, #168
    c838: 67 15 00 eb  	bl	#21916 <_ZN4core3cmp5impls56_$LT$impl$u20$core..cmp..PartialEq$u20$for$u20$usize$GT$2eq17h72e042646ebe0583E>
    c83c: 20 00 8d e5  	str	r0, [sp, #32]
    c840: 04 00 00 ea  	b	#16 <_ZN4core3fmt3num12GenericRadix7fmt_int17h3d51f26de88d8bbeE+0x3bc>
    c844: c4 00 9f e5  	ldr	r0, [pc, #196]
    c848: c4 20 9f e5  	ldr	r2, [pc, #196]
    c84c: 21 10 a0 e3  	mov	r1, #33
    c850: 97 fd ff eb  	bl	#-2468 <_ZN4core9panicking5panic17h70f755644c6683e5E>
    c854: fe de ff e7  	trap
    c858: 20 00 9d e5  	ldr	r0, [sp, #32]
    c85c: 01 00 10 e3  	tst	r0, #1
    c860: 5c ff ff 1a  	bne	#-656 <_ZN4core3fmt3num12GenericRadix7fmt_int17h3d51f26de88d8bbeE+0x13c>
    c864: b0 ff ff ea  	b	#-320 <_ZN4core3fmt3num12GenericRadix7fmt_int17h3d51f26de88d8bbeE+0x290>
    c868: 6c 10 9d e5  	ldr	r1, [sp, #108]
    c86c: 68 00 9d e5  	ldr	r0, [sp, #104]
    c870: 6c 01 8d e5  	str	r0, [sp, #364]
    c874: 70 11 8d e5  	str	r1, [sp, #368]
    c878: a8 01 8d e5  	str	r0, [sp, #424]
    c87c: ac 11 8d e5  	str	r1, [sp, #428]
    c880: 45 0d 00 eb  	bl	#13588 <_ZN4core5slice29_$LT$impl$u20$$u5b$T$u5d$$GT$6as_ptr17h4a00a55ffdc398ecE>
    c884: 1c 00 8d e5  	str	r0, [sp, #28]
    c888: ff ff ff ea  	b	#-4 <_ZN4core3fmt3num12GenericRadix7fmt_int17h3d51f26de88d8bbeE+0x3f0>
    c88c: 6c 10 9d e5  	ldr	r1, [sp, #108]
    c890: 1c 00 9d e5  	ldr	r0, [sp, #28]
    c894: d2 0b 00 eb  	bl	#12104 <_ZN4core5slice3raw14from_raw_parts17h2c7aceaf3e66256fE>
    c898: 14 00 8d e5  	str	r0, [sp, #20]
    c89c: 18 10 8d e5  	str	r1, [sp, #24]
    c8a0: ff ff ff ea  	b	#-4 <_ZN4core3fmt3num12GenericRadix7fmt_int17h3d51f26de88d8bbeE+0x408>
    c8a4: 18 10 9d e5  	ldr	r1, [sp, #24]
    c8a8: 14 00 9d e5  	ldr	r0, [sp, #20]
    c8ac: c7 10 00 eb  	bl	#17180 <_ZN4core3str8converts19from_utf8_unchecked17h52dbaed8b9b07d57E>
    c8b0: 00 20 a0 e1  	mov	r2, r0
    c8b4: 0c 20 8d e5  	str	r2, [sp, #12]
    c8b8: 01 20 a0 e1  	mov	r2, r1
    c8bc: 10 20 8d e5  	str	r2, [sp, #16]
    c8c0: 74 01 8d e5  	str	r0, [sp, #372]
    c8c4: 78 11 8d e5  	str	r1, [sp, #376]
    c8c8: ff ff ff ea  	b	#-4 <_ZN4core3fmt3num12GenericRadix7fmt_int17h3d51f26de88d8bbeE+0x430>
    c8cc: a0 00 9d e5  	ldr	r0, [sp, #160]
    c8d0: 9c 10 9d e5  	ldr	r1, [sp, #156]
    c8d4: 0c 20 9d e5  	ldr	r2, [sp, #12]
    c8d8: 10 c0 9d e5  	ldr	r12, [sp, #16]
    c8dc: 0d 30 a0 e1  	mov	r3, sp
    c8e0: 04 c0 83 e5  	str	r12, [r3, #4]
    c8e4: 00 20 83 e5  	str	r2, [r3]
    c8e8: 01 10 01 e2  	and	r1, r1, #1
    c8ec: 2c 20 9f e5  	ldr	r2, [pc, #44]
    c8f0: 02 30 a0 e3  	mov	r3, #2
    c8f4: 38 04 00 eb  	bl	#4320 <_ZN4core3fmt9Formatter12pad_integral17h6338b9e6c1af941fE>
    c8f8: 08 00 8d e5  	str	r0, [sp, #8]
    c8fc: ff ff ff ea  	b	#-4 <_ZN4core3fmt3num12GenericRadix7fmt_int17h3d51f26de88d8bbeE+0x464>
    c900: 08 00 9d e5  	ldr	r0, [sp, #8]
    c904: 01 00 00 e2  	and	r0, r0, #1
    c908: 1b de 8d e2  	add	sp, sp, #432
    c90c: 00 88 bd e8  	pop	{r11, pc}

0000c910 <$d.1363>:
    c910:	d0 51 01 00	.word	0x000151d0
    c914:	ec 5a 01 00	.word	0x00015aec
    c918:	dc 5a 01 00	.word	0x00015adc
    c91c:	fc 5a 01 00	.word	0x00015afc
    c920:	0c 5b 01 00	.word	0x00015b0c

0000c924 <_ZN4core3fmt3num12GenericRadix7fmt_int17h51ec0ad097deb597E>:
    c924: 00 48 2d e9  	push	{r11, lr}
    c928: 1b de 4d e2  	sub	sp, sp, #432
    c92c: a0 20 8d e5  	str	r2, [sp, #160]
    c930: a4 10 8d e5  	str	r1, [sp, #164]
    c934: 54 01 8d e5  	str	r0, [sp, #340]
    c938: 58 21 8d e5  	str	r2, [sp, #344]
    c93c: d2 15 00 eb  	bl	#22344 <_ZN52_$LT$usize$u20$as$u20$core..fmt..num..DisplayInt$GT$4zero17h71a2b1b2c5062d51E>
    c940: a8 00 8d e5  	str	r0, [sp, #168]
    c944: ff ff ff ea  	b	#-4 <_ZN4core3fmt3num12GenericRadix7fmt_int17h51ec0ad097deb597E+0x24>
    c948: a4 00 8d e2  	add	r0, sp, #164
    c94c: a8 10 8d e2  	add	r1, sp, #168
    c950: 38 15 00 eb  	bl	#21728 <_ZN4core3cmp5impls57_$LT$impl$u20$core..cmp..PartialOrd$u20$for$u20$usize$GT$2ge17h3b07ee89d904bc72E>
    c954: 00 10 a0 e1  	mov	r1, r0
    c958: 9c 10 8d e5  	str	r1, [sp, #156]
    c95c: 5f 01 cd e5  	strb	r0, [sp, #351]
    c960: ff ff ff ea  	b	#-4 <_ZN4core3fmt3num12GenericRadix7fmt_int17h51ec0ad097deb597E+0x40>
    c964: 7f 01 dd e5  	ldrb	r0, [sp, #383]
    c968: 98 00 8d e5  	str	r0, [sp, #152]
    c96c: ff ff ff ea  	b	#-4 <_ZN4core3fmt3num12GenericRadix7fmt_int17h51ec0ad097deb597E+0x4c>
    c970: 98 00 9d e5  	ldr	r0, [sp, #152]
    c974: 70 20 ef e6  	uxtb	r2, r0
    c978: ac 00 8d e2  	add	r0, sp, #172
    c97c: 80 10 a0 e3  	mov	r1, #128
    c980: 90 10 8d e5  	str	r1, [sp, #144]
    c984: ac 1d 00 eb  	bl	#30384 <__aeabi_memset>
    c988: 90 00 9d e5  	ldr	r0, [sp, #144]
    c98c: 2c 01 8d e5  	str	r0, [sp, #300]
    c990: 10 00 a0 e3  	mov	r0, #16
    c994: be 15 00 eb  	bl	#22264 <_ZN52_$LT$usize$u20$as$u20$core..fmt..num..DisplayInt$GT$7from_u817h534d523d1617fc6eE>
    c998: 00 10 a0 e1  	mov	r1, r0
    c99c: 94 10 8d e5  	str	r1, [sp, #148]
    c9a0: 60 01 8d e5  	str	r0, [sp, #352]
    c9a4: ff ff ff ea  	b	#-4 <_ZN4core3fmt3num12GenericRadix7fmt_int17h51ec0ad097deb597E+0x84>
    c9a8: 9c 00 9d e5  	ldr	r0, [sp, #156]
    c9ac: 01 00 10 e3  	tst	r0, #1
    c9b0: 06 00 00 1a  	bne	#24 <_ZN4core3fmt3num12GenericRadix7fmt_int17h51ec0ad097deb597E+0xac>
    c9b4: ff ff ff ea  	b	#-4 <_ZN4core3fmt3num12GenericRadix7fmt_int17h51ec0ad097deb597E+0x94>
    c9b8: ac 00 8d e2  	add	r0, sp, #172
    c9bc: 80 10 a0 e3  	mov	r1, #128
    c9c0: 54 0d 00 eb  	bl	#13648 <_ZN4core5slice29_$LT$impl$u20$$u5b$T$u5d$$GT$8iter_mut17hc7e629f952ad5a61E>
    c9c4: 88 00 8d e5  	str	r0, [sp, #136]
    c9c8: 8c 10 8d e5  	str	r1, [sp, #140]
    c9cc: 67 00 00 ea  	b	#412 <_ZN4core3fmt3num12GenericRadix7fmt_int17h51ec0ad097deb597E+0x24c>
    c9d0: ac 00 8d e2  	add	r0, sp, #172
    c9d4: 80 10 a0 e3  	mov	r1, #128
    c9d8: 4e 0d 00 eb  	bl	#13624 <_ZN4core5slice29_$LT$impl$u20$$u5b$T$u5d$$GT$8iter_mut17hc7e629f952ad5a61E>
    c9dc: 80 00 8d e5  	str	r0, [sp, #128]
    c9e0: 84 10 8d e5  	str	r1, [sp, #132]
    c9e4: ff ff ff ea  	b	#-4 <_ZN4core3fmt3num12GenericRadix7fmt_int17h51ec0ad097deb597E+0xc4>
    c9e8: 84 10 9d e5  	ldr	r1, [sp, #132]
    c9ec: 80 00 9d e5  	ldr	r0, [sp, #128]
    c9f0: 9f fb ff eb  	bl	#-4484 <_ZN4core4iter6traits8iterator8Iterator3rev17hf285382833a11cd2E>
    c9f4: 78 00 8d e5  	str	r0, [sp, #120]
    c9f8: 7c 10 8d e5  	str	r1, [sp, #124]
    c9fc: ff ff ff ea  	b	#-4 <_ZN4core3fmt3num12GenericRadix7fmt_int17h51ec0ad097deb597E+0xdc>
    ca00: 7c 10 9d e5  	ldr	r1, [sp, #124]
    ca04: 78 00 9d e5  	ldr	r0, [sp, #120]
    ca08: d9 fa ff eb  	bl	#-5276 <_ZN63_$LT$I$u20$as$u20$core..iter..traits..collect..IntoIterator$GT$9into_iter17hcd91a9ec3b2efec4E>
    ca0c: 70 00 8d e5  	str	r0, [sp, #112]
    ca10: 74 10 8d e5  	str	r1, [sp, #116]
    ca14: ff ff ff ea  	b	#-4 <_ZN4core3fmt3num12GenericRadix7fmt_int17h51ec0ad097deb597E+0xf4>
    ca18: 74 00 9d e5  	ldr	r0, [sp, #116]
    ca1c: 70 10 9d e5  	ldr	r1, [sp, #112]
    ca20: 30 11 8d e5  	str	r1, [sp, #304]
    ca24: 34 01 8d e5  	str	r0, [sp, #308]
    ca28: ff ff ff ea  	b	#-4 <_ZN4core3fmt3num12GenericRadix7fmt_int17h51ec0ad097deb597E+0x108>
    ca2c: 13 0e 8d e2  	add	r0, sp, #304
    ca30: 73 fa ff eb  	bl	#-5684 <_ZN98_$LT$core..iter..adapters..rev..Rev$LT$I$GT$$u20$as$u20$core..iter..traits..iterator..Iterator$GT$4next17haa679e51fd5c7fb6E>
    ca34: 38 01 8d e5  	str	r0, [sp, #312]
    ca38: ff ff ff ea  	b	#-4 <_ZN4core3fmt3num12GenericRadix7fmt_int17h51ec0ad097deb597E+0x118>
    ca3c: 38 01 9d e5  	ldr	r0, [sp, #312]
    ca40: 00 00 50 e3  	cmp	r0, #0
    ca44: 00 10 a0 e1  	mov	r1, r0
    ca48: 01 10 a0 13  	movne	r1, #1
    ca4c: 00 00 50 e3  	cmp	r0, #0
    ca50: 02 00 00 0a  	beq	#8 <_ZN4core3fmt3num12GenericRadix7fmt_int17h51ec0ad097deb597E+0x13c>
    ca54: ff ff ff ea  	b	#-4 <_ZN4core3fmt3num12GenericRadix7fmt_int17h51ec0ad097deb597E+0x134>
    ca58: 09 00 00 ea  	b	#36 <_ZN4core3fmt3num12GenericRadix7fmt_int17h51ec0ad097deb597E+0x160>
    ca5c: fe de ff e7  	trap
    ca60: 2c 01 9d e5  	ldr	r0, [sp, #300]
    ca64: 50 01 8d e5  	str	r0, [sp, #336]
    ca68: 50 11 9d e5  	ldr	r1, [sp, #336]
    ca6c: 30 23 9f e5  	ldr	r2, [pc, #816]
    ca70: ac 00 8d e2  	add	r0, sp, #172
    ca74: ec f8 ff eb  	bl	#-7248 <_ZN4core5array85_$LT$impl$u20$core..ops..index..Index$LT$I$GT$$u20$for$u20$$u5b$T$u3b$$u20$N$u5d$$GT$5index17h014adf7b6a71ea87E>
    ca78: 68 00 8d e5  	str	r0, [sp, #104]
    ca7c: 6c 10 8d e5  	str	r1, [sp, #108]
    ca80: 9a 00 00 ea  	b	#616 <_ZN4core3fmt3num12GenericRadix7fmt_int17h51ec0ad097deb597E+0x3cc>
    ca84: 94 10 9d e5  	ldr	r1, [sp, #148]
    ca88: 38 01 9d e5  	ldr	r0, [sp, #312]
    ca8c: 64 00 8d e5  	str	r0, [sp, #100]
    ca90: 64 01 8d e5  	str	r0, [sp, #356]
    ca94: a4 00 9d e5  	ldr	r0, [sp, #164]
    ca98: 35 15 00 eb  	bl	#21716 <_ZN47_$LT$usize$u20$as$u20$core..ops..arith..Rem$GT$3rem17hed0e05905b88c63fE>
    ca9c: 3c 01 8d e5  	str	r0, [sp, #316]
    caa0: ff ff ff ea  	b	#-4 <_ZN4core3fmt3num12GenericRadix7fmt_int17h51ec0ad097deb597E+0x180>
    caa4: 94 10 9d e5  	ldr	r1, [sp, #148]
    caa8: a4 00 9d e5  	ldr	r0, [sp, #164]
    caac: 1d 15 00 eb  	bl	#21620 <_ZN47_$LT$usize$u20$as$u20$core..ops..arith..Div$GT$3div17h2df646bc9efd9019E>
    cab0: 60 00 8d e5  	str	r0, [sp, #96]
    cab4: ff ff ff ea  	b	#-4 <_ZN4core3fmt3num12GenericRadix7fmt_int17h51ec0ad097deb597E+0x194>
    cab8: 60 00 9d e5  	ldr	r0, [sp, #96]
    cabc: a4 00 8d e5  	str	r0, [sp, #164]
    cac0: 4f 0f 8d e2  	add	r0, sp, #316
    cac4: 77 15 00 eb  	bl	#21980 <_ZN52_$LT$usize$u20$as$u20$core..fmt..num..DisplayInt$GT$5to_u817hc1b2240e79eebfa1E>
    cac8: 5c 00 8d e5  	str	r0, [sp, #92]
    cacc: ff ff ff ea  	b	#-4 <_ZN4core3fmt3num12GenericRadix7fmt_int17h51ec0ad097deb597E+0x1ac>
    cad0: 5c 00 9d e5  	ldr	r0, [sp, #92]
    cad4: 7d 15 00 eb  	bl	#22004 <_ZN73_$LT$core..fmt..num..LowerHex$u20$as$u20$core..fmt..num..GenericRadix$GT$5digit17hb059fe59c40e6289E>
    cad8: 58 00 8d e5  	str	r0, [sp, #88]
    cadc: ff ff ff ea  	b	#-4 <_ZN4core3fmt3num12GenericRadix7fmt_int17h51ec0ad097deb597E+0x1bc>
    cae0: 64 00 9d e5  	ldr	r0, [sp, #100]
    cae4: 58 10 9d e5  	ldr	r1, [sp, #88]
    cae8: 8c 01 8d e5  	str	r0, [sp, #396]
    caec: 93 11 cd e5  	strb	r1, [sp, #403]
    caf0: 95 11 cd e5  	strb	r1, [sp, #405]
    caf4: 97 11 cd e5  	strb	r1, [sp, #407]
    caf8: 96 11 cd e5  	strb	r1, [sp, #406]
    cafc: 96 11 dd e5  	ldrb	r1, [sp, #406]
    cb00: 94 11 cd e5  	strb	r1, [sp, #404]
    cb04: 94 11 dd e5  	ldrb	r1, [sp, #404]
    cb08: 00 10 c0 e5  	strb	r1, [r0]
    cb0c: 98 01 8d e5  	str	r0, [sp, #408]
    cb10: 9c 01 8d e5  	str	r0, [sp, #412]
    cb14: ff ff ff ea  	b	#-4 <_ZN4core3fmt3num12GenericRadix7fmt_int17h51ec0ad097deb597E+0x1f4>
    cb18: 2c 01 9d e5  	ldr	r0, [sp, #300]
    cb1c: 01 10 40 e2  	sub	r1, r0, #1
    cb20: 54 10 8d e5  	str	r1, [sp, #84]
    cb24: 01 00 50 e3  	cmp	r0, #1
    cb28: 07 00 00 3a  	blo	#28 <_ZN4core3fmt3num12GenericRadix7fmt_int17h51ec0ad097deb597E+0x228>
    cb2c: ff ff ff ea  	b	#-4 <_ZN4core3fmt3num12GenericRadix7fmt_int17h51ec0ad097deb597E+0x20c>
    cb30: 54 00 9d e5  	ldr	r0, [sp, #84]
    cb34: 2c 01 8d e5  	str	r0, [sp, #300]
    cb38: a4 00 8d e2  	add	r0, sp, #164
    cb3c: a8 10 8d e2  	add	r1, sp, #168
    cb40: a5 14 00 eb  	bl	#21140 <_ZN4core3cmp5impls56_$LT$impl$u20$core..cmp..PartialEq$u20$for$u20$usize$GT$2eq17h72e042646ebe0583E>
    cb44: 50 00 8d e5  	str	r0, [sp, #80]
    cb48: 04 00 00 ea  	b	#16 <_ZN4core3fmt3num12GenericRadix7fmt_int17h51ec0ad097deb597E+0x23c>
    cb4c: 44 02 9f e5  	ldr	r0, [pc, #580]
    cb50: 48 22 9f e5  	ldr	r2, [pc, #584]
    cb54: 21 10 a0 e3  	mov	r1, #33
    cb58: d5 fc ff eb  	bl	#-3244 <_ZN4core9panicking5panic17h70f755644c6683e5E>
    cb5c: fe de ff e7  	trap
    cb60: 50 00 9d e5  	ldr	r0, [sp, #80]
    cb64: 01 00 10 e3  	tst	r0, #1
    cb68: bc ff ff 1a  	bne	#-272 <_ZN4core3fmt3num12GenericRadix7fmt_int17h51ec0ad097deb597E+0x13c>
    cb6c: ae ff ff ea  	b	#-328 <_ZN4core3fmt3num12GenericRadix7fmt_int17h51ec0ad097deb597E+0x108>
    cb70: 8c 10 9d e5  	ldr	r1, [sp, #140]
    cb74: 88 00 9d e5  	ldr	r0, [sp, #136]
    cb78: 3d fb ff eb  	bl	#-4876 <_ZN4core4iter6traits8iterator8Iterator3rev17hf285382833a11cd2E>
    cb7c: 48 00 8d e5  	str	r0, [sp, #72]
    cb80: 4c 10 8d e5  	str	r1, [sp, #76]
    cb84: ff ff ff ea  	b	#-4 <_ZN4core3fmt3num12GenericRadix7fmt_int17h51ec0ad097deb597E+0x264>
    cb88: 4c 10 9d e5  	ldr	r1, [sp, #76]
    cb8c: 48 00 9d e5  	ldr	r0, [sp, #72]
    cb90: 77 fa ff eb  	bl	#-5668 <_ZN63_$LT$I$u20$as$u20$core..iter..traits..collect..IntoIterator$GT$9into_iter17hcd91a9ec3b2efec4E>
    cb94: 40 00 8d e5  	str	r0, [sp, #64]
    cb98: 44 10 8d e5  	str	r1, [sp, #68]
    cb9c: ff ff ff ea  	b	#-4 <_ZN4core3fmt3num12GenericRadix7fmt_int17h51ec0ad097deb597E+0x27c>
    cba0: 44 00 9d e5  	ldr	r0, [sp, #68]
    cba4: 40 10 9d e5  	ldr	r1, [sp, #64]
    cba8: 40 11 8d e5  	str	r1, [sp, #320]
    cbac: 44 01 8d e5  	str	r0, [sp, #324]
    cbb0: ff ff ff ea  	b	#-4 <_ZN4core3fmt3num12GenericRadix7fmt_int17h51ec0ad097deb597E+0x290>
    cbb4: 05 0d 8d e2  	add	r0, sp, #320
    cbb8: 11 fa ff eb  	bl	#-6076 <_ZN98_$LT$core..iter..adapters..rev..Rev$LT$I$GT$$u20$as$u20$core..iter..traits..iterator..Iterator$GT$4next17haa679e51fd5c7fb6E>
    cbbc: 48 01 8d e5  	str	r0, [sp, #328]
    cbc0: ff ff ff ea  	b	#-4 <_ZN4core3fmt3num12GenericRadix7fmt_int17h51ec0ad097deb597E+0x2a0>
    cbc4: 48 01 9d e5  	ldr	r0, [sp, #328]
    cbc8: 00 00 50 e3  	cmp	r0, #0
    cbcc: 00 10 a0 e1  	mov	r1, r0
    cbd0: 01 10 a0 13  	movne	r1, #1
    cbd4: 00 00 50 e3  	cmp	r0, #0
    cbd8: a0 ff ff 0a  	beq	#-384 <_ZN4core3fmt3num12GenericRadix7fmt_int17h51ec0ad097deb597E+0x13c>
    cbdc: ff ff ff ea  	b	#-4 <_ZN4core3fmt3num12GenericRadix7fmt_int17h51ec0ad097deb597E+0x2bc>
    cbe0: 00 00 00 ea  	b	#0 <_ZN4core3fmt3num12GenericRadix7fmt_int17h51ec0ad097deb597E+0x2c4>
    cbe4: fe de ff e7  	trap
    cbe8: 94 10 9d e5  	ldr	r1, [sp, #148]
    cbec: 48 01 9d e5  	ldr	r0, [sp, #328]
    cbf0: 34 00 8d e5  	str	r0, [sp, #52]
    cbf4: 68 01 8d e5  	str	r0, [sp, #360]
    cbf8: a8 00 9d e5  	ldr	r0, [sp, #168]
    cbfc: 38 00 8d e5  	str	r0, [sp, #56]
    cc00: a4 00 9d e5  	ldr	r0, [sp, #164]
    cc04: da 14 00 eb  	bl	#21352 <_ZN47_$LT$usize$u20$as$u20$core..ops..arith..Rem$GT$3rem17hed0e05905b88c63fE>
    cc08: 3c 00 8d e5  	str	r0, [sp, #60]
    cc0c: ff ff ff ea  	b	#-4 <_ZN4core3fmt3num12GenericRadix7fmt_int17h51ec0ad097deb597E+0x2ec>
    cc10: 3c 10 9d e5  	ldr	r1, [sp, #60]
    cc14: 38 00 9d e5  	ldr	r0, [sp, #56]
    cc18: b0 14 00 eb  	bl	#21184 <_ZN47_$LT$usize$u20$as$u20$core..ops..arith..Sub$GT$3sub17h64ad1807df18bbb0E>
    cc1c: 4c 01 8d e5  	str	r0, [sp, #332]
    cc20: ff ff ff ea  	b	#-4 <_ZN4core3fmt3num12GenericRadix7fmt_int17h51ec0ad097deb597E+0x300>
    cc24: 94 10 9d e5  	ldr	r1, [sp, #148]
    cc28: a4 00 9d e5  	ldr	r0, [sp, #164]
    cc2c: bd 14 00 eb  	bl	#21236 <_ZN47_$LT$usize$u20$as$u20$core..ops..arith..Div$GT$3div17h2df646bc9efd9019E>
    cc30: 30 00 8d e5  	str	r0, [sp, #48]
    cc34: ff ff ff ea  	b	#-4 <_ZN4core3fmt3num12GenericRadix7fmt_int17h51ec0ad097deb597E+0x314>
    cc38: 30 00 9d e5  	ldr	r0, [sp, #48]
    cc3c: a4 00 8d e5  	str	r0, [sp, #164]
    cc40: 53 0f 8d e2  	add	r0, sp, #332
    cc44: 17 15 00 eb  	bl	#21596 <_ZN52_$LT$usize$u20$as$u20$core..fmt..num..DisplayInt$GT$5to_u817hc1b2240e79eebfa1E>
    cc48: 2c 00 8d e5  	str	r0, [sp, #44]
    cc4c: ff ff ff ea  	b	#-4 <_ZN4core3fmt3num12GenericRadix7fmt_int17h51ec0ad097deb597E+0x32c>
    cc50: 2c 00 9d e5  	ldr	r0, [sp, #44]
    cc54: 1d 15 00 eb  	bl	#21620 <_ZN73_$LT$core..fmt..num..LowerHex$u20$as$u20$core..fmt..num..GenericRadix$GT$5digit17hb059fe59c40e6289E>
    cc58: 28 00 8d e5  	str	r0, [sp, #40]
    cc5c: ff ff ff ea  	b	#-4 <_ZN4core3fmt3num12GenericRadix7fmt_int17h51ec0ad097deb597E+0x33c>
    cc60: 34 00 9d e5  	ldr	r0, [sp, #52]
    cc64: 28 10 9d e5  	ldr	r1, [sp, #40]
    cc68: 80 01 8d e5  	str	r0, [sp, #384]
    cc6c: 87 11 cd e5  	strb	r1, [sp, #391]
    cc70: 89 11 cd e5  	strb	r1, [sp, #393]
    cc74: 8b 11 cd e5  	strb	r1, [sp, #395]
    cc78: 8a 11 cd e5  	strb	r1, [sp, #394]
    cc7c: 8a 11 dd e5  	ldrb	r1, [sp, #394]
    cc80: 88 11 cd e5  	strb	r1, [sp, #392]
    cc84: 88 11 dd e5  	ldrb	r1, [sp, #392]
    cc88: 00 10 c0 e5  	strb	r1, [r0]
    cc8c: a0 01 8d e5  	str	r0, [sp, #416]
    cc90: a4 01 8d e5  	str	r0, [sp, #420]
    cc94: ff ff ff ea  	b	#-4 <_ZN4core3fmt3num12GenericRadix7fmt_int17h51ec0ad097deb597E+0x374>
    cc98: 2c 01 9d e5  	ldr	r0, [sp, #300]
    cc9c: 01 10 40 e2  	sub	r1, r0, #1
    cca0: 24 10 8d e5  	str	r1, [sp, #36]
    cca4: 01 00 50 e3  	cmp	r0, #1
    cca8: 07 00 00 3a  	blo	#28 <_ZN4core3fmt3num12GenericRadix7fmt_int17h51ec0ad097deb597E+0x3a8>
    ccac: ff ff ff ea  	b	#-4 <_ZN4core3fmt3num12GenericRadix7fmt_int17h51ec0ad097deb597E+0x38c>
    ccb0: 24 00 9d e5  	ldr	r0, [sp, #36]
    ccb4: 2c 01 8d e5  	str	r0, [sp, #300]
    ccb8: a4 00 8d e2  	add	r0, sp, #164
    ccbc: a8 10 8d e2  	add	r1, sp, #168
    ccc0: 45 14 00 eb  	bl	#20756 <_ZN4core3cmp5impls56_$LT$impl$u20$core..cmp..PartialEq$u20$for$u20$usize$GT$2eq17h72e042646ebe0583E>
    ccc4: 20 00 8d e5  	str	r0, [sp, #32]
    ccc8: 04 00 00 ea  	b	#16 <_ZN4core3fmt3num12GenericRadix7fmt_int17h51ec0ad097deb597E+0x3bc>
    cccc: c4 00 9f e5  	ldr	r0, [pc, #196]
    ccd0: c4 20 9f e5  	ldr	r2, [pc, #196]
    ccd4: 21 10 a0 e3  	mov	r1, #33
    ccd8: 75 fc ff eb  	bl	#-3628 <_ZN4core9panicking5panic17h70f755644c6683e5E>
    ccdc: fe de ff e7  	trap
    cce0: 20 00 9d e5  	ldr	r0, [sp, #32]
    cce4: 01 00 10 e3  	tst	r0, #1
    cce8: 5c ff ff 1a  	bne	#-656 <_ZN4core3fmt3num12GenericRadix7fmt_int17h51ec0ad097deb597E+0x13c>
    ccec: b0 ff ff ea  	b	#-320 <_ZN4core3fmt3num12GenericRadix7fmt_int17h51ec0ad097deb597E+0x290>
    ccf0: 6c 10 9d e5  	ldr	r1, [sp, #108]
    ccf4: 68 00 9d e5  	ldr	r0, [sp, #104]
    ccf8: 6c 01 8d e5  	str	r0, [sp, #364]
    ccfc: 70 11 8d e5  	str	r1, [sp, #368]
    cd00: a8 01 8d e5  	str	r0, [sp, #424]
    cd04: ac 11 8d e5  	str	r1, [sp, #428]
    cd08: 23 0c 00 eb  	bl	#12428 <_ZN4core5slice29_$LT$impl$u20$$u5b$T$u5d$$GT$6as_ptr17h4a00a55ffdc398ecE>
    cd0c: 1c 00 8d e5  	str	r0, [sp, #28]
    cd10: ff ff ff ea  	b	#-4 <_ZN4core3fmt3num12GenericRadix7fmt_int17h51ec0ad097deb597E+0x3f0>
    cd14: 6c 10 9d e5  	ldr	r1, [sp, #108]
    cd18: 1c 00 9d e5  	ldr	r0, [sp, #28]
    cd1c: b0 0a 00 eb  	bl	#10944 <_ZN4core5slice3raw14from_raw_parts17h2c7aceaf3e66256fE>
    cd20: 14 00 8d e5  	str	r0, [sp, #20]
    cd24: 18 10 8d e5  	str	r1, [sp, #24]
    cd28: ff ff ff ea  	b	#-4 <_ZN4core3fmt3num12GenericRadix7fmt_int17h51ec0ad097deb597E+0x408>
    cd2c: 18 10 9d e5  	ldr	r1, [sp, #24]
    cd30: 14 00 9d e5  	ldr	r0, [sp, #20]
    cd34: a5 0f 00 eb  	bl	#16020 <_ZN4core3str8converts19from_utf8_unchecked17h52dbaed8b9b07d57E>
    cd38: 00 20 a0 e1  	mov	r2, r0
    cd3c: 0c 20 8d e5  	str	r2, [sp, #12]
    cd40: 01 20 a0 e1  	mov	r2, r1
    cd44: 10 20 8d e5  	str	r2, [sp, #16]
    cd48: 74 01 8d e5  	str	r0, [sp, #372]
    cd4c: 78 11 8d e5  	str	r1, [sp, #376]
    cd50: ff ff ff ea  	b	#-4 <_ZN4core3fmt3num12GenericRadix7fmt_int17h51ec0ad097deb597E+0x430>
    cd54: a0 00 9d e5  	ldr	r0, [sp, #160]
    cd58: 9c 10 9d e5  	ldr	r1, [sp, #156]
    cd5c: 0c 20 9d e5  	ldr	r2, [sp, #12]
    cd60: 10 c0 9d e5  	ldr	r12, [sp, #16]
    cd64: 0d 30 a0 e1  	mov	r3, sp
    cd68: 04 c0 83 e5  	str	r12, [r3, #4]
    cd6c: 00 20 83 e5  	str	r2, [r3]
    cd70: 01 10 01 e2  	and	r1, r1, #1
    cd74: 2c 20 9f e5  	ldr	r2, [pc, #44]
    cd78: 02 30 a0 e3  	mov	r3, #2
    cd7c: 16 03 00 eb  	bl	#3160 <_ZN4core3fmt9Formatter12pad_integral17h6338b9e6c1af941fE>
    cd80: 08 00 8d e5  	str	r0, [sp, #8]
    cd84: ff ff ff ea  	b	#-4 <_ZN4core3fmt3num12GenericRadix7fmt_int17h51ec0ad097deb597E+0x464>
    cd88: 08 00 9d e5  	ldr	r0, [sp, #8]
    cd8c: 01 00 00 e2  	and	r0, r0, #1
    cd90: 1b de 8d e2  	add	sp, sp, #432
    cd94: 00 88 bd e8  	pop	{r11, pc}

0000cd98 <$d.1365>:
    cd98:	d0 51 01 00	.word	0x000151d0
    cd9c:	ec 5a 01 00	.word	0x00015aec
    cda0:	dc 5a 01 00	.word	0x00015adc
    cda4:	fc 5a 01 00	.word	0x00015afc
    cda8:	0c 5b 01 00	.word	0x00015b0c

0000cdac <_ZN4core3fmt9Formatter3new17h4709c3f5378b429bE>:
    cdac: 18 d0 4d e2  	sub	sp, sp, #24
    cdb0: 10 10 8d e5  	str	r1, [sp, #16]
    cdb4: 14 20 8d e5  	str	r2, [sp, #20]
    cdb8: 00 30 a0 e3  	mov	r3, #0
    cdbc: 00 30 8d e5  	str	r3, [sp]
    cdc0: 08 30 8d e5  	str	r3, [sp, #8]
    cdc4: 00 30 80 e5  	str	r3, [r0]
    cdc8: 20 30 a0 e3  	mov	r3, #32
    cdcc: 04 30 80 e5  	str	r3, [r0, #4]
    cdd0: 03 30 a0 e3  	mov	r3, #3
    cdd4: 20 30 c0 e5  	strb	r3, [r0, #32]
    cdd8: 00 c0 9d e5  	ldr	r12, [sp]
    cddc: 04 30 9d e5  	ldr	r3, [sp, #4]
    cde0: 08 c0 80 e5  	str	r12, [r0, #8]
    cde4: 0c 30 80 e5  	str	r3, [r0, #12]
    cde8: 08 c0 9d e5  	ldr	r12, [sp, #8]
    cdec: 0c 30 9d e5  	ldr	r3, [sp, #12]
    cdf0: 10 c0 80 e5  	str	r12, [r0, #16]
    cdf4: 14 30 80 e5  	str	r3, [r0, #20]
    cdf8: 18 10 80 e5  	str	r1, [r0, #24]
    cdfc: 1c 20 80 e5  	str	r2, [r0, #28]
    ce00: 18 d0 8d e2  	add	sp, sp, #24
    ce04: 1e ff 2f e1  	bx	lr

0000ce08 <_ZN4core3fmt12USIZE_MARKER28_$u7b$$u7b$closure$u7d$$u7d$17hc8ead2c0d1435e3eE>:
    ce08: 00 48 2d e9  	push	{r11, lr}
    ce0c: 18 d0 4d e2  	sub	sp, sp, #24
    ce10: 04 10 8d e5  	str	r1, [sp, #4]
    ce14: 00 10 a0 e1  	mov	r1, r0
    ce18: 04 00 9d e5  	ldr	r0, [sp, #4]
    ce1c: 08 10 8d e5  	str	r1, [sp, #8]
    ce20: 0c 00 8d e5  	str	r0, [sp, #12]
    ce24: 10 20 8d e5  	str	r2, [sp, #16]
    ce28: 84 f6 ff eb  	bl	#-9712 <_ZN4core3ptr13read_volatile17hc050ce1962d20f3dE>
    ce2c: 14 00 8d e5  	str	r0, [sp, #20]
    ce30: ff ff ff ea  	b	#-4 <_ZN4core3fmt12USIZE_MARKER28_$u7b$$u7b$closure$u7d$$u7d$17hc8ead2c0d1435e3eE+0x2c>
    ce34: fe ff ff ea  	b	#-8 <_ZN4core3fmt12USIZE_MARKER28_$u7b$$u7b$closure$u7d$$u7d$17hc8ead2c0d1435e3eE+0x2c>

0000ce38 <_ZN4core3fmt10ArgumentV13new17h37f891f565a643d9E>:
    ce38: 24 d0 4d e2  	sub	sp, sp, #36
    ce3c: 04 00 8d e5  	str	r0, [sp, #4]
    ce40: 14 00 8d e5  	str	r0, [sp, #20]
    ce44: 18 10 8d e5  	str	r1, [sp, #24]
    ce48: 1c 10 8d e5  	str	r1, [sp, #28]
    ce4c: 1c 00 9d e5  	ldr	r0, [sp, #28]
    ce50: 08 00 8d e5  	str	r0, [sp, #8]
    ce54: ff ff ff ea  	b	#-4 <_ZN4core3fmt10ArgumentV13new17h37f891f565a643d9E+0x20>
    ce58: 04 00 9d e5  	ldr	r0, [sp, #4]
    ce5c: 20 00 8d e5  	str	r0, [sp, #32]
    ce60: 20 00 9d e5  	ldr	r0, [sp, #32]
    ce64: 00 00 8d e5  	str	r0, [sp]
    ce68: ff ff ff ea  	b	#-4 <_ZN4core3fmt10ArgumentV13new17h37f891f565a643d9E+0x34>
    ce6c: 08 00 9d e5  	ldr	r0, [sp, #8]
    ce70: 00 10 9d e5  	ldr	r1, [sp]
    ce74: 0c 10 8d e5  	str	r1, [sp, #12]
    ce78: 10 00 8d e5  	str	r0, [sp, #16]
    ce7c: 0c 00 9d e5  	ldr	r0, [sp, #12]
    ce80: 10 10 9d e5  	ldr	r1, [sp, #16]
    ce84: 24 d0 8d e2  	add	sp, sp, #36
    ce88: 1e ff 2f e1  	bx	lr

0000ce8c <_ZN4core3fmt10ArgumentV13new17h4c844c993ed35af8E>:
    ce8c: 24 d0 4d e2  	sub	sp, sp, #36
    ce90: 04 00 8d e5  	str	r0, [sp, #4]
    ce94: 14 00 8d e5  	str	r0, [sp, #20]
    ce98: 18 10 8d e5  	str	r1, [sp, #24]
    ce9c: 1c 10 8d e5  	str	r1, [sp, #28]
    cea0: 1c 00 9d e5  	ldr	r0, [sp, #28]
    cea4: 08 00 8d e5  	str	r0, [sp, #8]
    cea8: ff ff ff ea  	b	#-4 <_ZN4core3fmt10ArgumentV13new17h4c844c993ed35af8E+0x20>
    ceac: 04 00 9d e5  	ldr	r0, [sp, #4]
    ceb0: 20 00 8d e5  	str	r0, [sp, #32]
    ceb4: 20 00 9d e5  	ldr	r0, [sp, #32]
    ceb8: 00 00 8d e5  	str	r0, [sp]
    cebc: ff ff ff ea  	b	#-4 <_ZN4core3fmt10ArgumentV13new17h4c844c993ed35af8E+0x34>
    cec0: 08 00 9d e5  	ldr	r0, [sp, #8]
    cec4: 00 10 9d e5  	ldr	r1, [sp]
    cec8: 0c 10 8d e5  	str	r1, [sp, #12]
    cecc: 10 00 8d e5  	str	r0, [sp, #16]
    ced0: 0c 00 9d e5  	ldr	r0, [sp, #12]
    ced4: 10 10 9d e5  	ldr	r1, [sp, #16]
    ced8: 24 d0 8d e2  	add	sp, sp, #36
    cedc: 1e ff 2f e1  	bx	lr

0000cee0 <_ZN4core3fmt10ArgumentV13new17ha876e96e5dc117f4E>:
    cee0: 24 d0 4d e2  	sub	sp, sp, #36
    cee4: 04 00 8d e5  	str	r0, [sp, #4]
    cee8: 14 00 8d e5  	str	r0, [sp, #20]
    ceec: 18 10 8d e5  	str	r1, [sp, #24]
    cef0: 1c 10 8d e5  	str	r1, [sp, #28]
    cef4: 1c 00 9d e5  	ldr	r0, [sp, #28]
    cef8: 08 00 8d e5  	str	r0, [sp, #8]
    cefc: ff ff ff ea  	b	#-4 <_ZN4core3fmt10ArgumentV13new17ha876e96e5dc117f4E+0x20>
    cf00: 04 00 9d e5  	ldr	r0, [sp, #4]
    cf04: 20 00 8d e5  	str	r0, [sp, #32]
    cf08: 20 00 9d e5  	ldr	r0, [sp, #32]
    cf0c: 00 00 8d e5  	str	r0, [sp]
    cf10: ff ff ff ea  	b	#-4 <_ZN4core3fmt10ArgumentV13new17ha876e96e5dc117f4E+0x34>
    cf14: 08 00 9d e5  	ldr	r0, [sp, #8]
    cf18: 00 10 9d e5  	ldr	r1, [sp]
    cf1c: 0c 10 8d e5  	str	r1, [sp, #12]
    cf20: 10 00 8d e5  	str	r0, [sp, #16]
    cf24: 0c 00 9d e5  	ldr	r0, [sp, #12]
    cf28: 10 10 9d e5  	ldr	r1, [sp, #16]
    cf2c: 24 d0 8d e2  	add	sp, sp, #36
    cf30: 1e ff 2f e1  	bx	lr

0000cf34 <_ZN4core3fmt10ArgumentV13new17hbd460d47a42de93cE>:
    cf34: 24 d0 4d e2  	sub	sp, sp, #36
    cf38: 04 00 8d e5  	str	r0, [sp, #4]
    cf3c: 14 00 8d e5  	str	r0, [sp, #20]
    cf40: 18 10 8d e5  	str	r1, [sp, #24]
    cf44: 1c 10 8d e5  	str	r1, [sp, #28]
    cf48: 1c 00 9d e5  	ldr	r0, [sp, #28]
    cf4c: 08 00 8d e5  	str	r0, [sp, #8]
    cf50: ff ff ff ea  	b	#-4 <_ZN4core3fmt10ArgumentV13new17hbd460d47a42de93cE+0x20>
    cf54: 04 00 9d e5  	ldr	r0, [sp, #4]
    cf58: 20 00 8d e5  	str	r0, [sp, #32]
    cf5c: 20 00 9d e5  	ldr	r0, [sp, #32]
    cf60: 00 00 8d e5  	str	r0, [sp]
    cf64: ff ff ff ea  	b	#-4 <_ZN4core3fmt10ArgumentV13new17hbd460d47a42de93cE+0x34>
    cf68: 08 00 9d e5  	ldr	r0, [sp, #8]
    cf6c: 00 10 9d e5  	ldr	r1, [sp]
    cf70: 0c 10 8d e5  	str	r1, [sp, #12]
    cf74: 10 00 8d e5  	str	r0, [sp, #16]
    cf78: 0c 00 9d e5  	ldr	r0, [sp, #12]
    cf7c: 10 10 9d e5  	ldr	r1, [sp, #16]
    cf80: 24 d0 8d e2  	add	sp, sp, #36
    cf84: 1e ff 2f e1  	bx	lr

0000cf88 <_ZN4core3fmt10ArgumentV13new17hf34e7092f2803bf0E>:
    cf88: 24 d0 4d e2  	sub	sp, sp, #36
    cf8c: 04 00 8d e5  	str	r0, [sp, #4]
    cf90: 14 00 8d e5  	str	r0, [sp, #20]
    cf94: 18 10 8d e5  	str	r1, [sp, #24]
    cf98: 1c 10 8d e5  	str	r1, [sp, #28]
    cf9c: 1c 00 9d e5  	ldr	r0, [sp, #28]
    cfa0: 08 00 8d e5  	str	r0, [sp, #8]
    cfa4: ff ff ff ea  	b	#-4 <_ZN4core3fmt10ArgumentV13new17hf34e7092f2803bf0E+0x20>
    cfa8: 04 00 9d e5  	ldr	r0, [sp, #4]
    cfac: 20 00 8d e5  	str	r0, [sp, #32]
    cfb0: 20 00 9d e5  	ldr	r0, [sp, #32]
    cfb4: 00 00 8d e5  	str	r0, [sp]
    cfb8: ff ff ff ea  	b	#-4 <_ZN4core3fmt10ArgumentV13new17hf34e7092f2803bf0E+0x34>
    cfbc: 08 00 9d e5  	ldr	r0, [sp, #8]
    cfc0: 00 10 9d e5  	ldr	r1, [sp]
    cfc4: 0c 10 8d e5  	str	r1, [sp, #12]
    cfc8: 10 00 8d e5  	str	r0, [sp, #16]
    cfcc: 0c 00 9d e5  	ldr	r0, [sp, #12]
    cfd0: 10 10 9d e5  	ldr	r1, [sp, #16]
    cfd4: 24 d0 8d e2  	add	sp, sp, #36
    cfd8: 1e ff 2f e1  	bx	lr

0000cfdc <_ZN4core3fmt10ArgumentV18as_usize17h90afd2da165caa5cE>:
    cfdc: 10 d0 4d e2  	sub	sp, sp, #16
    cfe0: 00 00 8d e5  	str	r0, [sp]
    cfe4: 0c 00 8d e5  	str	r0, [sp, #12]
    cfe8: 04 00 90 e5  	ldr	r0, [r0, #4]
    cfec: 44 10 9f e5  	ldr	r1, [pc, #68]
    cff0: 00 10 91 e5  	ldr	r1, [r1]
    cff4: 01 00 50 e1  	cmp	r0, r1
    cff8: 03 00 00 0a  	beq	#12 <_ZN4core3fmt10ArgumentV18as_usize17h90afd2da165caa5cE+0x30>
    cffc: ff ff ff ea  	b	#-4 <_ZN4core3fmt10ArgumentV18as_usize17h90afd2da165caa5cE+0x24>
    d000: 00 00 a0 e3  	mov	r0, #0
    d004: 04 00 8d e5  	str	r0, [sp, #4]
    d008: 06 00 00 ea  	b	#24 <_ZN4core3fmt10ArgumentV18as_usize17h90afd2da165caa5cE+0x4c>
    d00c: 00 00 9d e5  	ldr	r0, [sp]
    d010: 00 00 90 e5  	ldr	r0, [r0]
    d014: 00 00 90 e5  	ldr	r0, [r0]
    d018: 08 00 8d e5  	str	r0, [sp, #8]
    d01c: 01 00 a0 e3  	mov	r0, #1
    d020: 04 00 8d e5  	str	r0, [sp, #4]
    d024: ff ff ff ea  	b	#-4 <_ZN4core3fmt10ArgumentV18as_usize17h90afd2da165caa5cE+0x4c>
    d028: 04 00 9d e5  	ldr	r0, [sp, #4]
    d02c: 08 10 9d e5  	ldr	r1, [sp, #8]
    d030: 10 d0 8d e2  	add	sp, sp, #16
    d034: 1e ff 2f e1  	bx	lr

0000d038 <$d.1430>:
    d038:	dc 5b 01 00	.word	0x00015bdc

0000d03c <_ZN4core3fmt9Arguments6new_v117hd47ebd6f67dc7416E>:
    d03c: 00 48 2d e9  	push	{r11, lr}
    d040: 50 d0 4d e2  	sub	sp, sp, #80
    d044: 08 30 8d e5  	str	r3, [sp, #8]
    d048: 0c 20 8d e5  	str	r2, [sp, #12]
    d04c: 10 10 8d e5  	str	r1, [sp, #16]
    d050: 14 00 8d e5  	str	r0, [sp, #20]
    d054: 58 00 9d e5  	ldr	r0, [sp, #88]
    d058: 18 00 8d e5  	str	r0, [sp, #24]
    d05c: 40 10 8d e5  	str	r1, [sp, #64]
    d060: 44 20 8d e5  	str	r2, [sp, #68]
    d064: 48 30 8d e5  	str	r3, [sp, #72]
    d068: 4c 00 8d e5  	str	r0, [sp, #76]
    d06c: 00 00 52 e1  	cmp	r2, r0
    d070: 06 00 00 3a  	blo	#24 <_ZN4core3fmt9Arguments6new_v117hd47ebd6f67dc7416E+0x54>
    d074: ff ff ff ea  	b	#-4 <_ZN4core3fmt9Arguments6new_v117hd47ebd6f67dc7416E+0x3c>
    d078: 18 10 9d e5  	ldr	r1, [sp, #24]
    d07c: 01 00 81 e2  	add	r0, r1, #1
    d080: 04 00 8d e5  	str	r0, [sp, #4]
    d084: 01 00 50 e1  	cmp	r0, r1
    d088: 0e 00 00 3a  	blo	#56 <_ZN4core3fmt9Arguments6new_v117hd47ebd6f67dc7416E+0x8c>
    d08c: 06 00 00 ea  	b	#24 <_ZN4core3fmt9Arguments6new_v117hd47ebd6f67dc7416E+0x70>
    d090: 01 00 a0 e3  	mov	r0, #1
    d094: 1f 00 cd e5  	strb	r0, [sp, #31]
    d098: ff ff ff ea  	b	#-4 <_ZN4core3fmt9Arguments6new_v117hd47ebd6f67dc7416E+0x60>
    d09c: 1f 00 dd e5  	ldrb	r0, [sp, #31]
    d0a0: 01 00 10 e3  	tst	r0, #1
    d0a4: 1f 00 00 1a  	bne	#124 <_ZN4core3fmt9Arguments6new_v117hd47ebd6f67dc7416E+0xec>
    d0a8: 0b 00 00 ea  	b	#44 <_ZN4core3fmt9Arguments6new_v117hd47ebd6f67dc7416E+0xa0>
    d0ac: 0c 10 9d e5  	ldr	r1, [sp, #12]
    d0b0: 04 20 9d e5  	ldr	r2, [sp, #4]
    d0b4: 00 00 a0 e3  	mov	r0, #0
    d0b8: 02 00 51 e1  	cmp	r1, r2
    d0bc: 01 00 a0 83  	movhi	r0, #1
    d0c0: 1f 00 cd e5  	strb	r0, [sp, #31]
    d0c4: f4 ff ff ea  	b	#-48 <_ZN4core3fmt9Arguments6new_v117hd47ebd6f67dc7416E+0x60>
    d0c8: 8c 00 9f e5  	ldr	r0, [pc, #140]
    d0cc: 8c 20 9f e5  	ldr	r2, [pc, #140]
    d0d0: 1c 10 a0 e3  	mov	r1, #28
    d0d4: 76 fb ff eb  	bl	#-4648 <_ZN4core9panicking5panic17h70f755644c6683e5E>
    d0d8: fe de ff e7  	trap
    d0dc: 18 00 9d e5  	ldr	r0, [sp, #24]
    d0e0: 14 10 9d e5  	ldr	r1, [sp, #20]
    d0e4: 08 20 9d e5  	ldr	r2, [sp, #8]
    d0e8: 0c 30 9d e5  	ldr	r3, [sp, #12]
    d0ec: 10 c0 9d e5  	ldr	r12, [sp, #16]
    d0f0: 00 e0 a0 e3  	mov	lr, #0
    d0f4: 3c e0 8d e5  	str	lr, [sp, #60]
    d0f8: 38 e0 8d e5  	str	lr, [sp, #56]
    d0fc: 38 e0 8d e5  	str	lr, [sp, #56]
    d100: 00 c0 81 e5  	str	r12, [r1]
    d104: 04 30 81 e5  	str	r3, [r1, #4]
    d108: 38 c0 9d e5  	ldr	r12, [sp, #56]
    d10c: 3c 30 9d e5  	ldr	r3, [sp, #60]
    d110: 08 c0 81 e5  	str	r12, [r1, #8]
    d114: 0c 30 81 e5  	str	r3, [r1, #12]
    d118: 10 20 81 e5  	str	r2, [r1, #16]
    d11c: 14 00 81 e5  	str	r0, [r1, #20]
    d120: 50 d0 8d e2  	add	sp, sp, #80
    d124: 00 88 bd e8  	pop	{r11, pc}
    d128: 0d 10 a0 e1  	mov	r1, sp
    d12c: 00 00 a0 e3  	mov	r0, #0
    d130: 00 00 81 e5  	str	r0, [r1]
    d134: 28 10 9f e5  	ldr	r1, [pc, #40]
    d138: 28 30 9f e5  	ldr	r3, [pc, #40]
    d13c: 20 00 8d e2  	add	r0, sp, #32
    d140: 01 20 a0 e3  	mov	r2, #1
    d144: bc ff ff eb  	bl	#-272 <_ZN4core3fmt9Arguments6new_v117hd47ebd6f67dc7416E>
    d148: ff ff ff ea  	b	#-4 <_ZN4core3fmt9Arguments6new_v117hd47ebd6f67dc7416E+0x110>
    d14c: 18 10 9f e5  	ldr	r1, [pc, #24]
    d150: 20 00 8d e2  	add	r0, sp, #32
    d154: 8d fb ff eb  	bl	#-4556 <_ZN4core9panicking9panic_fmt17h22cd6c9efa5fe474E>
    d158: fe de ff e7  	trap

0000d15c <$d.1432>:
    d15c:	00 52 01 00	.word	0x00015200
    d160:	58 5c 01 00	.word	0x00015c58
    d164:	74 5c 01 00	.word	0x00015c74
    d168:	38 55 01 00	.word	0x00015538
    d16c:	7c 5c 01 00	.word	0x00015c7c

0000d170 <_ZN59_$LT$core..fmt..Arguments$u20$as$u20$core..fmt..Display$GT$3fmt17hce94dc99427bbd49E>:
    d170: f0 41 2d e9  	push	{r4, r5, r6, r7, r8, lr}
    d174: 28 d0 4d e2  	sub	sp, sp, #40
    d178: 00 c0 a0 e1  	mov	r12, r0
    d17c: 20 c0 8d e5  	str	r12, [sp, #32]
    d180: 24 10 8d e5  	str	r1, [sp, #36]
    d184: 18 00 91 e5  	ldr	r0, [r1, #24]
    d188: 1c 10 91 e5  	ldr	r1, [r1, #28]
    d18c: 08 20 8d e2  	add	r2, sp, #8
    d190: 02 30 a0 e1  	mov	r3, r2
    d194: f0 41 9c e8  	ldm	r12, {r4, r5, r6, r7, r8, lr}
    d198: f0 41 83 e8  	stm	r3, {r4, r5, r6, r7, r8, lr}
    d19c: 05 00 00 eb  	bl	#20 <_ZN4core3fmt5write17h4ea4b5723b208be1E>
    d1a0: 04 00 8d e5  	str	r0, [sp, #4]
    d1a4: ff ff ff ea  	b	#-4 <_ZN59_$LT$core..fmt..Arguments$u20$as$u20$core..fmt..Display$GT$3fmt17hce94dc99427bbd49E+0x38>
    d1a8: 04 00 9d e5  	ldr	r0, [sp, #4]
    d1ac: 01 00 00 e2  	and	r0, r0, #1
    d1b0: 28 d0 8d e2  	add	sp, sp, #40
    d1b4: f0 81 bd e8  	pop	{r4, r5, r6, r7, r8, pc}

0000d1b8 <_ZN4core3fmt5write17h4ea4b5723b208be1E>:
    d1b8: 00 48 2d e9  	push	{r11, lr}
    d1bc: 13 de 4d e2  	sub	sp, sp, #304
    d1c0: 44 20 8d e5  	str	r2, [sp, #68]
    d1c4: 01 20 a0 e1  	mov	r2, r1
    d1c8: 00 10 a0 e1  	mov	r1, r0
    d1cc: dc 10 8d e5  	str	r1, [sp, #220]
    d1d0: e0 20 8d e5  	str	r2, [sp, #224]
    d1d4: 4c 00 8d e2  	add	r0, sp, #76
    d1d8: f3 fe ff eb  	bl	#-1076 <_ZN4core3fmt9Formatter3new17h4709c3f5378b429bE>
    d1dc: ff ff ff ea  	b	#-4 <_ZN4core3fmt5write17h4ea4b5723b208be1E+0x28>
    d1e0: 44 00 9d e5  	ldr	r0, [sp, #68]
    d1e4: 00 10 a0 e3  	mov	r1, #0
    d1e8: 70 10 8d e5  	str	r1, [sp, #112]
    d1ec: 08 00 90 e5  	ldr	r0, [r0, #8]
    d1f0: 00 00 50 e3  	cmp	r0, #0
    d1f4: 00 10 a0 e1  	mov	r1, r0
    d1f8: 01 10 a0 13  	movne	r1, #1
    d1fc: 00 00 50 e3  	cmp	r0, #0
    d200: 02 00 00 0a  	beq	#8 <_ZN4core3fmt5write17h4ea4b5723b208be1E+0x58>
    d204: ff ff ff ea  	b	#-4 <_ZN4core3fmt5write17h4ea4b5723b208be1E+0x50>
    d208: 07 00 00 ea  	b	#28 <_ZN4core3fmt5write17h4ea4b5723b208be1E+0x74>
    d20c: fe de ff e7  	trap
    d210: 44 10 9d e5  	ldr	r1, [sp, #68]
    d214: 10 00 91 e5  	ldr	r0, [r1, #16]
    d218: 14 10 91 e5  	ldr	r1, [r1, #20]
    d21c: 25 0b 00 eb  	bl	#11412 <_ZN4core5slice29_$LT$impl$u20$$u5b$T$u5d$$GT$4iter17h5fc31ae58636ccf6E>
    d220: 3c 00 8d e5  	str	r0, [sp, #60]
    d224: 40 10 8d e5  	str	r1, [sp, #64]
    d228: 84 00 00 ea  	b	#528 <_ZN4core3fmt5write17h4ea4b5723b208be1E+0x288>
    d22c: 44 10 9d e5  	ldr	r1, [sp, #68]
    d230: 08 00 91 e5  	ldr	r0, [r1, #8]
    d234: 0c 10 91 e5  	ldr	r1, [r1, #12]
    d238: 0c 01 8d e5  	str	r0, [sp, #268]
    d23c: 10 11 8d e5  	str	r1, [sp, #272]
    d240: 04 0b 00 eb  	bl	#11280 <_ZN4core5slice29_$LT$impl$u20$$u5b$T$u5d$$GT$4iter17h0e9b2b815f0a80b4E>
    d244: 34 00 8d e5  	str	r0, [sp, #52]
    d248: 38 10 8d e5  	str	r1, [sp, #56]
    d24c: ff ff ff ea  	b	#-4 <_ZN4core3fmt5write17h4ea4b5723b208be1E+0x98>
    d250: 38 20 9d e5  	ldr	r2, [sp, #56]
    d254: 34 10 9d e5  	ldr	r1, [sp, #52]
    d258: b0 00 8d e2  	add	r0, sp, #176
    d25c: 59 f9 ff eb  	bl	#-6812 <_ZN4core4iter6traits8iterator8Iterator9enumerate17h8b3577cd1c43f4beE>
    d260: ff ff ff ea  	b	#-4 <_ZN4core3fmt5write17h4ea4b5723b208be1E+0xac>
    d264: a4 00 8d e2  	add	r0, sp, #164
    d268: b0 10 8d e2  	add	r1, sp, #176
    d26c: b7 f8 ff eb  	bl	#-7460 <_ZN63_$LT$I$u20$as$u20$core..iter..traits..collect..IntoIterator$GT$9into_iter17hbb596eea85a0534cE>
    d270: ff ff ff ea  	b	#-4 <_ZN4core3fmt5write17h4ea4b5723b208be1E+0xbc>
    d274: a4 00 9d e5  	ldr	r0, [sp, #164]
    d278: a8 10 9d e5  	ldr	r1, [sp, #168]
    d27c: ac 20 9d e5  	ldr	r2, [sp, #172]
    d280: c4 20 8d e5  	str	r2, [sp, #196]
    d284: c0 10 8d e5  	str	r1, [sp, #192]
    d288: bc 00 8d e5  	str	r0, [sp, #188]
    d28c: ff ff ff ea  	b	#-4 <_ZN4core3fmt5write17h4ea4b5723b208be1E+0xd8>
    d290: bc 00 8d e2  	add	r0, sp, #188
    d294: a9 f7 ff eb  	bl	#-8540 <_ZN110_$LT$core..iter..adapters..enumerate..Enumerate$LT$I$GT$$u20$as$u20$core..iter..traits..iterator..Iterator$GT$4next17hddd185bba0331b1dE>
    d298: cc 10 8d e5  	str	r1, [sp, #204]
    d29c: c8 00 8d e5  	str	r0, [sp, #200]
    d2a0: ff ff ff ea  	b	#-4 <_ZN4core3fmt5write17h4ea4b5723b208be1E+0xec>
    d2a4: cc 00 9d e5  	ldr	r0, [sp, #204]
    d2a8: 00 00 50 e3  	cmp	r0, #0
    d2ac: 00 10 a0 e1  	mov	r1, r0
    d2b0: 01 10 a0 13  	movne	r1, #1
    d2b4: 00 00 50 e3  	cmp	r0, #0
    d2b8: 02 00 00 0a  	beq	#8 <_ZN4core3fmt5write17h4ea4b5723b208be1E+0x110>
    d2bc: ff ff ff ea  	b	#-4 <_ZN4core3fmt5write17h4ea4b5723b208be1E+0x108>
    d2c0: 07 00 00 ea  	b	#28 <_ZN4core3fmt5write17h4ea4b5723b208be1E+0x12c>
    d2c4: fe de ff e7  	trap
    d2c8: 44 10 9d e5  	ldr	r1, [sp, #68]
    d2cc: 00 00 91 e5  	ldr	r0, [r1]
    d2d0: 04 10 91 e5  	ldr	r1, [r1, #4]
    d2d4: 70 20 9d e5  	ldr	r2, [sp, #112]
    d2d8: 2f 0a 00 eb  	bl	#10428 <_ZN4core5slice29_$LT$impl$u20$$u5b$T$u5d$$GT$3get17h5c3858c84abeab5fE>
    d2dc: d4 00 8d e5  	str	r0, [sp, #212]
    d2e0: c7 00 00 ea  	b	#796 <_ZN4core3fmt5write17h4ea4b5723b208be1E+0x44c>
    d2e4: 44 10 9d e5  	ldr	r1, [sp, #68]
    d2e8: c8 20 9d e5  	ldr	r2, [sp, #200]
    d2ec: 14 21 8d e5  	str	r2, [sp, #276]
    d2f0: cc 00 9d e5  	ldr	r0, [sp, #204]
    d2f4: 2c 00 8d e5  	str	r0, [sp, #44]
    d2f8: 18 01 8d e5  	str	r0, [sp, #280]
    d2fc: 00 00 91 e5  	ldr	r0, [r1]
    d300: 04 10 91 e5  	ldr	r1, [r1, #4]
    d304: 64 0a 00 eb  	bl	#10640 <_ZN4core5slice29_$LT$impl$u20$$u5b$T$u5d$$GT$13get_unchecked17h4ea222d5e49e8b86E>
    d308: 00 10 a0 e1  	mov	r1, r0
    d30c: 30 10 8d e5  	str	r1, [sp, #48]
    d310: 1c 01 8d e5  	str	r0, [sp, #284]
    d314: ff ff ff ea  	b	#-4 <_ZN4core3fmt5write17h4ea4b5723b208be1E+0x160>
    d318: 30 10 9d e5  	ldr	r1, [sp, #48]
    d31c: 00 00 91 e5  	ldr	r0, [r1]
    d320: 04 10 91 e5  	ldr	r1, [r1, #4]
    d324: d4 11 00 eb  	bl	#18256 <_ZN4core3str21_$LT$impl$u20$str$GT$8is_empty17hd7cf8b576699b70eE>
    d328: 28 00 8d e5  	str	r0, [sp, #40]
    d32c: ff ff ff ea  	b	#-4 <_ZN4core3fmt5write17h4ea4b5723b208be1E+0x178>
    d330: 28 00 9d e5  	ldr	r0, [sp, #40]
    d334: 01 00 10 e3  	tst	r0, #1
    d338: 08 00 00 0a  	beq	#32 <_ZN4core3fmt5write17h4ea4b5723b208be1E+0x1a8>
    d33c: ff ff ff ea  	b	#-4 <_ZN4core3fmt5write17h4ea4b5723b208be1E+0x188>
    d340: 2c 10 9d e5  	ldr	r1, [sp, #44]
    d344: 44 00 9d e5  	ldr	r0, [sp, #68]
    d348: 10 20 90 e5  	ldr	r2, [r0, #16]
    d34c: 14 30 90 e5  	ldr	r3, [r0, #20]
    d350: 4c 00 8d e2  	add	r0, sp, #76
    d354: d2 00 00 eb  	bl	#840 <_ZN4core3fmt3run17h369bc0c920887370E>
    d358: 24 00 8d e5  	str	r0, [sp, #36]
    d35c: 1a 00 00 ea  	b	#104 <_ZN4core3fmt5write17h4ea4b5723b208be1E+0x214>
    d360: 30 20 9d e5  	ldr	r2, [sp, #48]
    d364: 64 00 9d e5  	ldr	r0, [sp, #100]
    d368: 68 30 9d e5  	ldr	r3, [sp, #104]
    d36c: 00 10 92 e5  	ldr	r1, [r2]
    d370: 04 20 92 e5  	ldr	r2, [r2, #4]
    d374: 0c 30 93 e5  	ldr	r3, [r3, #12]
    d378: 33 ff 2f e1  	blx	r3
    d37c: 20 00 8d e5  	str	r0, [sp, #32]
    d380: ff ff ff ea  	b	#-4 <_ZN4core3fmt5write17h4ea4b5723b208be1E+0x1cc>
    d384: 20 00 9d e5  	ldr	r0, [sp, #32]
    d388: 01 00 00 e2  	and	r0, r0, #1
    d38c: ee fb ff eb  	bl	#-4168 <_ZN79_$LT$core..result..Result$LT$T$C$E$GT$$u20$as$u20$core..ops..try_trait..Try$GT$6branch17hd1d9da8509624ae6E>
    d390: d2 00 cd e5  	strb	r0, [sp, #210]
    d394: ff ff ff ea  	b	#-4 <_ZN4core3fmt5write17h4ea4b5723b208be1E+0x1e0>
    d398: d2 00 dd e5  	ldrb	r0, [sp, #210]
    d39c: 01 00 10 e3  	tst	r0, #1
    d3a0: e6 ff ff 0a  	beq	#-104 <_ZN4core3fmt5write17h4ea4b5723b208be1E+0x188>
    d3a4: ff ff ff ea  	b	#-4 <_ZN4core3fmt5write17h4ea4b5723b208be1E+0x1f0>
    d3a8: 00 00 00 ea  	b	#0 <_ZN4core3fmt5write17h4ea4b5723b208be1E+0x1f8>
    d3ac: fe de ff e7  	trap
    d3b0: cc 02 9f e5  	ldr	r0, [pc, #716]
    d3b4: 12 fc ff eb  	bl	#-4024 <_ZN153_$LT$core..result..Result$LT$T$C$F$GT$$u20$as$u20$core..ops..try_trait..FromResidual$LT$core..result..Result$LT$core..convert..Infallible$C$E$GT$$GT$$GT$13from_residual17h411b96776abd096cE>
    d3b8: 4b 00 cd e5  	strb	r0, [sp, #75]
    d3bc: ff ff ff ea  	b	#-4 <_ZN4core3fmt5write17h4ea4b5723b208be1E+0x208>
    d3c0: 4b 00 dd e5  	ldrb	r0, [sp, #75]
    d3c4: 13 de 8d e2  	add	sp, sp, #304
    d3c8: 00 88 bd e8  	pop	{r11, pc}
    d3cc: 24 00 9d e5  	ldr	r0, [sp, #36]
    d3d0: 01 00 00 e2  	and	r0, r0, #1
    d3d4: dc fb ff eb  	bl	#-4240 <_ZN79_$LT$core..result..Result$LT$T$C$E$GT$$u20$as$u20$core..ops..try_trait..Try$GT$6branch17hd1d9da8509624ae6E>
    d3d8: d3 00 cd e5  	strb	r0, [sp, #211]
    d3dc: ff ff ff ea  	b	#-4 <_ZN4core3fmt5write17h4ea4b5723b208be1E+0x228>
    d3e0: d3 00 dd e5  	ldrb	r0, [sp, #211]
    d3e4: 01 00 10 e3  	tst	r0, #1
    d3e8: 02 00 00 0a  	beq	#8 <_ZN4core3fmt5write17h4ea4b5723b208be1E+0x240>
    d3ec: ff ff ff ea  	b	#-4 <_ZN4core3fmt5write17h4ea4b5723b208be1E+0x238>
    d3f0: 06 00 00 ea  	b	#24 <_ZN4core3fmt5write17h4ea4b5723b208be1E+0x258>
    d3f4: fe de ff e7  	trap
    d3f8: 70 10 9d e5  	ldr	r1, [sp, #112]
    d3fc: 01 00 81 e2  	add	r0, r1, #1
    d400: 1c 00 8d e5  	str	r0, [sp, #28]
    d404: 01 00 50 e1  	cmp	r0, r1
    d408: 07 00 00 3a  	blo	#28 <_ZN4core3fmt5write17h4ea4b5723b208be1E+0x274>
    d40c: 03 00 00 ea  	b	#12 <_ZN4core3fmt5write17h4ea4b5723b208be1E+0x268>
    d410: 70 02 9f e5  	ldr	r0, [pc, #624]
    d414: fa fb ff eb  	bl	#-4120 <_ZN153_$LT$core..result..Result$LT$T$C$F$GT$$u20$as$u20$core..ops..try_trait..FromResidual$LT$core..result..Result$LT$core..convert..Infallible$C$E$GT$$GT$$GT$13from_residual17h411b96776abd096cE>
    d418: 4b 00 cd e5  	strb	r0, [sp, #75]
    d41c: e7 ff ff ea  	b	#-100 <_ZN4core3fmt5write17h4ea4b5723b208be1E+0x208>
    d420: 1c 00 9d e5  	ldr	r0, [sp, #28]
    d424: 70 00 8d e5  	str	r0, [sp, #112]
    d428: 98 ff ff ea  	b	#-416 <_ZN4core3fmt5write17h4ea4b5723b208be1E+0xd8>
    d42c: 58 02 9f e5  	ldr	r0, [pc, #600]
    d430: 58 22 9f e5  	ldr	r2, [pc, #600]
    d434: 1c 10 a0 e3  	mov	r1, #28
    d438: 9d fa ff eb  	bl	#-5516 <_ZN4core9panicking5panic17h70f755644c6683e5E>
    d43c: fe de ff e7  	trap
    d440: 40 20 9d e5  	ldr	r2, [sp, #64]
    d444: 3c 10 9d e5  	ldr	r1, [sp, #60]
    d448: 80 00 8d e2  	add	r0, sp, #128
    d44c: d5 f8 ff eb  	bl	#-7340 <_ZN4core4iter6traits8iterator8Iterator9enumerate17h5694d946cc40cc59E>
    d450: ff ff ff ea  	b	#-4 <_ZN4core3fmt5write17h4ea4b5723b208be1E+0x29c>
    d454: 74 00 8d e2  	add	r0, sp, #116
    d458: 80 10 8d e2  	add	r1, sp, #128
    d45c: 32 f8 ff eb  	bl	#-7992 <_ZN63_$LT$I$u20$as$u20$core..iter..traits..collect..IntoIterator$GT$9into_iter17hb63fe79ffe64174cE>
    d460: ff ff ff ea  	b	#-4 <_ZN4core3fmt5write17h4ea4b5723b208be1E+0x2ac>
    d464: 74 00 9d e5  	ldr	r0, [sp, #116]
    d468: 78 10 9d e5  	ldr	r1, [sp, #120]
    d46c: 7c 20 9d e5  	ldr	r2, [sp, #124]
    d470: 94 20 8d e5  	str	r2, [sp, #148]
    d474: 90 10 8d e5  	str	r1, [sp, #144]
    d478: 8c 00 8d e5  	str	r0, [sp, #140]
    d47c: ff ff ff ea  	b	#-4 <_ZN4core3fmt5write17h4ea4b5723b208be1E+0x2c8>
    d480: 8c 00 8d e2  	add	r0, sp, #140
    d484: f1 f6 ff eb  	bl	#-9276 <_ZN110_$LT$core..iter..adapters..enumerate..Enumerate$LT$I$GT$$u20$as$u20$core..iter..traits..iterator..Iterator$GT$4next17h1e2fd37d8b362b23E>
    d488: 9c 10 8d e5  	str	r1, [sp, #156]
    d48c: 98 00 8d e5  	str	r0, [sp, #152]
    d490: ff ff ff ea  	b	#-4 <_ZN4core3fmt5write17h4ea4b5723b208be1E+0x2dc>
    d494: 9c 00 9d e5  	ldr	r0, [sp, #156]
    d498: 00 00 50 e3  	cmp	r0, #0
    d49c: 00 10 a0 e1  	mov	r1, r0
    d4a0: 01 10 a0 13  	movne	r1, #1
    d4a4: 00 00 50 e3  	cmp	r0, #0
    d4a8: 86 ff ff 0a  	beq	#-488 <_ZN4core3fmt5write17h4ea4b5723b208be1E+0x110>
    d4ac: ff ff ff ea  	b	#-4 <_ZN4core3fmt5write17h4ea4b5723b208be1E+0x2f8>
    d4b0: 00 00 00 ea  	b	#0 <_ZN4core3fmt5write17h4ea4b5723b208be1E+0x300>
    d4b4: fe de ff e7  	trap
    d4b8: 44 10 9d e5  	ldr	r1, [sp, #68]
    d4bc: 98 20 9d e5  	ldr	r2, [sp, #152]
    d4c0: 20 21 8d e5  	str	r2, [sp, #288]
    d4c4: 9c 00 9d e5  	ldr	r0, [sp, #156]
    d4c8: 14 00 8d e5  	str	r0, [sp, #20]
    d4cc: 24 01 8d e5  	str	r0, [sp, #292]
    d4d0: 00 00 91 e5  	ldr	r0, [r1]
    d4d4: 04 10 91 e5  	ldr	r1, [r1, #4]
    d4d8: ef 09 00 eb  	bl	#10172 <_ZN4core5slice29_$LT$impl$u20$$u5b$T$u5d$$GT$13get_unchecked17h4ea222d5e49e8b86E>
    d4dc: 00 10 a0 e1  	mov	r1, r0
    d4e0: 18 10 8d e5  	str	r1, [sp, #24]
    d4e4: 28 01 8d e5  	str	r0, [sp, #296]
    d4e8: ff ff ff ea  	b	#-4 <_ZN4core3fmt5write17h4ea4b5723b208be1E+0x334>
    d4ec: 18 10 9d e5  	ldr	r1, [sp, #24]
    d4f0: 00 00 91 e5  	ldr	r0, [r1]
    d4f4: 04 10 91 e5  	ldr	r1, [r1, #4]
    d4f8: 5f 11 00 eb  	bl	#17788 <_ZN4core3str21_$LT$impl$u20$str$GT$8is_empty17hd7cf8b576699b70eE>
    d4fc: 10 00 8d e5  	str	r0, [sp, #16]
    d500: ff ff ff ea  	b	#-4 <_ZN4core3fmt5write17h4ea4b5723b208be1E+0x34c>
    d504: 10 00 9d e5  	ldr	r0, [sp, #16]
    d508: 01 00 10 e3  	tst	r0, #1
    d50c: 07 00 00 0a  	beq	#28 <_ZN4core3fmt5write17h4ea4b5723b208be1E+0x378>
    d510: ff ff ff ea  	b	#-4 <_ZN4core3fmt5write17h4ea4b5723b208be1E+0x35c>
    d514: 14 10 9d e5  	ldr	r1, [sp, #20]
    d518: 00 00 91 e5  	ldr	r0, [r1]
    d51c: 04 20 91 e5  	ldr	r2, [r1, #4]
    d520: 4c 10 8d e2  	add	r1, sp, #76
    d524: 32 ff 2f e1  	blx	r2
    d528: 0c 00 8d e5  	str	r0, [sp, #12]
    d52c: 17 00 00 ea  	b	#92 <_ZN4core3fmt5write17h4ea4b5723b208be1E+0x3d8>
    d530: 18 20 9d e5  	ldr	r2, [sp, #24]
    d534: 64 00 9d e5  	ldr	r0, [sp, #100]
    d538: 68 30 9d e5  	ldr	r3, [sp, #104]
    d53c: 00 10 92 e5  	ldr	r1, [r2]
    d540: 04 20 92 e5  	ldr	r2, [r2, #4]
    d544: 0c 30 93 e5  	ldr	r3, [r3, #12]
    d548: 33 ff 2f e1  	blx	r3
    d54c: 08 00 8d e5  	str	r0, [sp, #8]
    d550: ff ff ff ea  	b	#-4 <_ZN4core3fmt5write17h4ea4b5723b208be1E+0x39c>
    d554: 08 00 9d e5  	ldr	r0, [sp, #8]
    d558: 01 00 00 e2  	and	r0, r0, #1
    d55c: 7a fb ff eb  	bl	#-4632 <_ZN79_$LT$core..result..Result$LT$T$C$E$GT$$u20$as$u20$core..ops..try_trait..Try$GT$6branch17hd1d9da8509624ae6E>
    d560: a2 00 cd e5  	strb	r0, [sp, #162]
    d564: ff ff ff ea  	b	#-4 <_ZN4core3fmt5write17h4ea4b5723b208be1E+0x3b0>
    d568: a2 00 dd e5  	ldrb	r0, [sp, #162]
    d56c: 01 00 10 e3  	tst	r0, #1
    d570: e7 ff ff 0a  	beq	#-100 <_ZN4core3fmt5write17h4ea4b5723b208be1E+0x35c>
    d574: ff ff ff ea  	b	#-4 <_ZN4core3fmt5write17h4ea4b5723b208be1E+0x3c0>
    d578: 00 00 00 ea  	b	#0 <_ZN4core3fmt5write17h4ea4b5723b208be1E+0x3c8>
    d57c: fe de ff e7  	trap
    d580: 0c 01 9f e5  	ldr	r0, [pc, #268]
    d584: 9e fb ff eb  	bl	#-4488 <_ZN153_$LT$core..result..Result$LT$T$C$F$GT$$u20$as$u20$core..ops..try_trait..FromResidual$LT$core..result..Result$LT$core..convert..Infallible$C$E$GT$$GT$$GT$13from_residual17h411b96776abd096cE>
    d588: 4b 00 cd e5  	strb	r0, [sp, #75]
    d58c: 8b ff ff ea  	b	#-468 <_ZN4core3fmt5write17h4ea4b5723b208be1E+0x208>
    d590: 0c 00 9d e5  	ldr	r0, [sp, #12]
    d594: 01 00 00 e2  	and	r0, r0, #1
    d598: 6b fb ff eb  	bl	#-4692 <_ZN79_$LT$core..result..Result$LT$T$C$E$GT$$u20$as$u20$core..ops..try_trait..Try$GT$6branch17hd1d9da8509624ae6E>
    d59c: a3 00 cd e5  	strb	r0, [sp, #163]
    d5a0: ff ff ff ea  	b	#-4 <_ZN4core3fmt5write17h4ea4b5723b208be1E+0x3ec>
    d5a4: a3 00 dd e5  	ldrb	r0, [sp, #163]
    d5a8: 01 00 10 e3  	tst	r0, #1
    d5ac: 02 00 00 0a  	beq	#8 <_ZN4core3fmt5write17h4ea4b5723b208be1E+0x404>
    d5b0: ff ff ff ea  	b	#-4 <_ZN4core3fmt5write17h4ea4b5723b208be1E+0x3fc>
    d5b4: 06 00 00 ea  	b	#24 <_ZN4core3fmt5write17h4ea4b5723b208be1E+0x41c>
    d5b8: fe de ff e7  	trap
    d5bc: 70 10 9d e5  	ldr	r1, [sp, #112]
    d5c0: 01 00 81 e2  	add	r0, r1, #1
    d5c4: 04 00 8d e5  	str	r0, [sp, #4]
    d5c8: 01 00 50 e1  	cmp	r0, r1
    d5cc: 07 00 00 3a  	blo	#28 <_ZN4core3fmt5write17h4ea4b5723b208be1E+0x438>
    d5d0: 03 00 00 ea  	b	#12 <_ZN4core3fmt5write17h4ea4b5723b208be1E+0x42c>
    d5d4: bc 00 9f e5  	ldr	r0, [pc, #188]
    d5d8: 89 fb ff eb  	bl	#-4572 <_ZN153_$LT$core..result..Result$LT$T$C$F$GT$$u20$as$u20$core..ops..try_trait..FromResidual$LT$core..result..Result$LT$core..convert..Infallible$C$E$GT$$GT$$GT$13from_residual17h411b96776abd096cE>
    d5dc: 4b 00 cd e5  	strb	r0, [sp, #75]
    d5e0: 76 ff ff ea  	b	#-552 <_ZN4core3fmt5write17h4ea4b5723b208be1E+0x208>
    d5e4: 04 00 9d e5  	ldr	r0, [sp, #4]
    d5e8: 70 00 8d e5  	str	r0, [sp, #112]
    d5ec: a3 ff ff ea  	b	#-372 <_ZN4core3fmt5write17h4ea4b5723b208be1E+0x2c8>
    d5f0: 94 00 9f e5  	ldr	r0, [pc, #148]
    d5f4: a0 20 9f e5  	ldr	r2, [pc, #160]
    d5f8: 1c 10 a0 e3  	mov	r1, #28
    d5fc: 2c fa ff eb  	bl	#-5968 <_ZN4core9panicking5panic17h70f755644c6683e5E>
    d600: fe de ff e7  	trap
    d604: d4 00 9d e5  	ldr	r0, [sp, #212]
    d608: 00 00 50 e3  	cmp	r0, #0
    d60c: 0a 00 00 0a  	beq	#40 <_ZN4core3fmt5write17h4ea4b5723b208be1E+0x484>
    d610: ff ff ff ea  	b	#-4 <_ZN4core3fmt5write17h4ea4b5723b208be1E+0x45c>
    d614: d4 20 9d e5  	ldr	r2, [sp, #212]
    d618: 2c 21 8d e5  	str	r2, [sp, #300]
    d61c: 64 00 9d e5  	ldr	r0, [sp, #100]
    d620: 68 30 9d e5  	ldr	r3, [sp, #104]
    d624: 00 10 92 e5  	ldr	r1, [r2]
    d628: 04 20 92 e5  	ldr	r2, [r2, #4]
    d62c: 0c 30 93 e5  	ldr	r3, [r3, #12]
    d630: 33 ff 2f e1  	blx	r3
    d634: 00 00 8d e5  	str	r0, [sp]
    d638: 02 00 00 ea  	b	#8 <_ZN4core3fmt5write17h4ea4b5723b208be1E+0x490>
    d63c: 00 00 a0 e3  	mov	r0, #0
    d640: 4b 00 cd e5  	strb	r0, [sp, #75]
    d644: 5d ff ff ea  	b	#-652 <_ZN4core3fmt5write17h4ea4b5723b208be1E+0x208>
    d648: 00 00 9d e5  	ldr	r0, [sp]
    d64c: 01 00 00 e2  	and	r0, r0, #1
    d650: 3d fb ff eb  	bl	#-4876 <_ZN79_$LT$core..result..Result$LT$T$C$E$GT$$u20$as$u20$core..ops..try_trait..Try$GT$6branch17hd1d9da8509624ae6E>
    d654: db 00 cd e5  	strb	r0, [sp, #219]
    d658: ff ff ff ea  	b	#-4 <_ZN4core3fmt5write17h4ea4b5723b208be1E+0x4a4>
    d65c: db 00 dd e5  	ldrb	r0, [sp, #219]
    d660: 01 00 10 e3  	tst	r0, #1
    d664: f4 ff ff 0a  	beq	#-48 <_ZN4core3fmt5write17h4ea4b5723b208be1E+0x484>
    d668: ff ff ff ea  	b	#-4 <_ZN4core3fmt5write17h4ea4b5723b208be1E+0x4b4>
    d66c: 00 00 00 ea  	b	#0 <_ZN4core3fmt5write17h4ea4b5723b208be1E+0x4bc>
    d670: fe de ff e7  	trap
    d674: 24 00 9f e5  	ldr	r0, [pc, #36]
    d678: 61 fb ff eb  	bl	#-4732 <_ZN153_$LT$core..result..Result$LT$T$C$F$GT$$u20$as$u20$core..ops..try_trait..FromResidual$LT$core..result..Result$LT$core..convert..Infallible$C$E$GT$$GT$$GT$13from_residual17h411b96776abd096cE>
    d67c: 4b 00 cd e5  	strb	r0, [sp, #75]
    d680: 4e ff ff ea  	b	#-712 <_ZN4core3fmt5write17h4ea4b5723b208be1E+0x208>

0000d684 <$d.1439>:
    d684:	8c 5c 01 00	.word	0x00015c8c
    d688:	9c 5c 01 00	.word	0x00015c9c
    d68c:	00 52 01 00	.word	0x00015200
    d690:	ac 5c 01 00	.word	0x00015cac
    d694:	bc 5c 01 00	.word	0x00015cbc
    d698:	cc 5c 01 00	.word	0x00015ccc
    d69c:	dc 5c 01 00	.word	0x00015cdc
    d6a0:	ec 5c 01 00	.word	0x00015cec

0000d6a4 <_ZN4core3fmt3run17h369bc0c920887370E>:
    d6a4: 00 48 2d e9  	push	{r11, lr}
    d6a8: 40 d0 4d e2  	sub	sp, sp, #64
    d6ac: 14 30 8d e5  	str	r3, [sp, #20]
    d6b0: 1c 20 8d e5  	str	r2, [sp, #28]
    d6b4: 01 20 a0 e1  	mov	r2, r1
    d6b8: 14 10 9d e5  	ldr	r1, [sp, #20]
    d6bc: 18 20 8d e5  	str	r2, [sp, #24]
    d6c0: 00 c0 a0 e1  	mov	r12, r0
    d6c4: 1c 00 9d e5  	ldr	r0, [sp, #28]
    d6c8: 20 c0 8d e5  	str	r12, [sp, #32]
    d6cc: 2c c0 8d e5  	str	r12, [sp, #44]
    d6d0: 30 20 8d e5  	str	r2, [sp, #48]
    d6d4: 34 00 8d e5  	str	r0, [sp, #52]
    d6d8: 38 10 8d e5  	str	r1, [sp, #56]
    d6dc: 04 30 92 e5  	ldr	r3, [r2, #4]
    d6e0: 04 30 8c e5  	str	r3, [r12, #4]
    d6e4: 1c 30 d2 e5  	ldrb	r3, [r2, #28]
    d6e8: 20 30 cc e5  	strb	r3, [r12, #32]
    d6ec: 08 30 92 e5  	ldr	r3, [r2, #8]
    d6f0: 00 30 8c e5  	str	r3, [r12]
    d6f4: 14 20 82 e2  	add	r2, r2, #20
    d6f8: 35 00 00 eb  	bl	#212 <_ZN4core3fmt8getcount17h0b71ba4dce2ed406E>
    d6fc: 24 00 8d e5  	str	r0, [sp, #36]
    d700: 28 10 8d e5  	str	r1, [sp, #40]
    d704: ff ff ff ea  	b	#-4 <_ZN4core3fmt3run17h369bc0c920887370E+0x64>
    d708: 14 10 9d e5  	ldr	r1, [sp, #20]
    d70c: 1c 00 9d e5  	ldr	r0, [sp, #28]
    d710: 18 20 9d e5  	ldr	r2, [sp, #24]
    d714: 28 30 9d e5  	ldr	r3, [sp, #40]
    d718: 20 c0 9d e5  	ldr	r12, [sp, #32]
    d71c: 24 e0 9d e5  	ldr	lr, [sp, #36]
    d720: 08 e0 8c e5  	str	lr, [r12, #8]
    d724: 0c 30 8c e5  	str	r3, [r12, #12]
    d728: 0c 20 82 e2  	add	r2, r2, #12
    d72c: 28 00 00 eb  	bl	#160 <_ZN4core3fmt8getcount17h0b71ba4dce2ed406E>
    d730: 0c 00 8d e5  	str	r0, [sp, #12]
    d734: 10 10 8d e5  	str	r1, [sp, #16]
    d738: ff ff ff ea  	b	#-4 <_ZN4core3fmt3run17h369bc0c920887370E+0x98>
    d73c: 14 10 9d e5  	ldr	r1, [sp, #20]
    d740: 18 00 9d e5  	ldr	r0, [sp, #24]
    d744: 10 20 9d e5  	ldr	r2, [sp, #16]
    d748: 20 30 9d e5  	ldr	r3, [sp, #32]
    d74c: 0c c0 9d e5  	ldr	r12, [sp, #12]
    d750: 10 c0 83 e5  	str	r12, [r3, #16]
    d754: 14 20 83 e5  	str	r2, [r3, #20]
    d758: 00 00 90 e5  	ldr	r0, [r0]
    d75c: 01 00 50 e1  	cmp	r0, r1
    d760: 09 00 00 2a  	bhs	#36 <_ZN4core3fmt3run17h369bc0c920887370E+0xe8>
    d764: ff ff ff ea  	b	#-4 <_ZN4core3fmt3run17h369bc0c920887370E+0xc4>
    d768: 14 10 9d e5  	ldr	r1, [sp, #20]
    d76c: 1c 00 9d e5  	ldr	r0, [sp, #28]
    d770: 18 20 9d e5  	ldr	r2, [sp, #24]
    d774: 00 20 92 e5  	ldr	r2, [r2]
    d778: 78 09 00 eb  	bl	#9696 <_ZN4core5slice29_$LT$impl$u20$$u5b$T$u5d$$GT$13get_unchecked17hb558a5d276703f46E>
    d77c: 00 10 a0 e1  	mov	r1, r0
    d780: 08 10 8d e5  	str	r1, [sp, #8]
    d784: 3c 00 8d e5  	str	r0, [sp, #60]
    d788: 04 00 00 ea  	b	#16 <_ZN4core3fmt3run17h369bc0c920887370E+0xfc>
    d78c: 38 00 9f e5  	ldr	r0, [pc, #56]
    d790: 38 20 9f e5  	ldr	r2, [pc, #56]
    d794: 2b 10 a0 e3  	mov	r1, #43
    d798: c5 f9 ff eb  	bl	#-6380 <_ZN4core9panicking5panic17h70f755644c6683e5E>
    d79c: fe de ff e7  	trap
    d7a0: 20 10 9d e5  	ldr	r1, [sp, #32]
    d7a4: 08 20 9d e5  	ldr	r2, [sp, #8]
    d7a8: 00 00 92 e5  	ldr	r0, [r2]
    d7ac: 04 20 92 e5  	ldr	r2, [r2, #4]
    d7b0: 32 ff 2f e1  	blx	r2
    d7b4: 04 00 8d e5  	str	r0, [sp, #4]
    d7b8: ff ff ff ea  	b	#-4 <_ZN4core3fmt3run17h369bc0c920887370E+0x118>
    d7bc: 04 00 9d e5  	ldr	r0, [sp, #4]
    d7c0: 01 00 00 e2  	and	r0, r0, #1
    d7c4: 40 d0 8d e2  	add	sp, sp, #64
    d7c8: 00 88 bd e8  	pop	{r11, pc}

0000d7cc <$d.1441>:
    d7cc:	fc 5c 01 00	.word	0x00015cfc
    d7d0:	28 5d 01 00	.word	0x00015d28

0000d7d4 <_ZN4core3fmt8getcount17h0b71ba4dce2ed406E>:
    d7d4: 00 48 2d e9  	push	{r11, lr}
    d7d8: 38 d0 4d e2  	sub	sp, sp, #56
    d7dc: 0c 20 8d e5  	str	r2, [sp, #12]
    d7e0: 10 10 8d e5  	str	r1, [sp, #16]
    d7e4: 14 00 8d e5  	str	r0, [sp, #20]
    d7e8: 24 00 8d e5  	str	r0, [sp, #36]
    d7ec: 28 10 8d e5  	str	r1, [sp, #40]
    d7f0: 2c 20 8d e5  	str	r2, [sp, #44]
    d7f4: 00 00 92 e5  	ldr	r0, [r2]
    d7f8: 18 00 8d e5  	str	r0, [sp, #24]
    d7fc: 00 00 50 e3  	cmp	r0, #0
    d800: 06 00 00 0a  	beq	#24 <_ZN4core3fmt8getcount17h0b71ba4dce2ed406E+0x4c>
    d804: ff ff ff ea  	b	#-4 <_ZN4core3fmt8getcount17h0b71ba4dce2ed406E+0x34>
    d808: 18 00 9d e5  	ldr	r0, [sp, #24]
    d80c: 01 00 50 e3  	cmp	r0, #1
    d810: 09 00 00 0a  	beq	#36 <_ZN4core3fmt8getcount17h0b71ba4dce2ed406E+0x68>
    d814: ff ff ff ea  	b	#-4 <_ZN4core3fmt8getcount17h0b71ba4dce2ed406E+0x44>
    d818: 0f 00 00 ea  	b	#60 <_ZN4core3fmt8getcount17h0b71ba4dce2ed406E+0x88>
    d81c: fe de ff e7  	trap
    d820: 0c 00 9d e5  	ldr	r0, [sp, #12]
    d824: 04 00 90 e5  	ldr	r0, [r0, #4]
    d828: 34 00 8d e5  	str	r0, [sp, #52]
    d82c: 20 00 8d e5  	str	r0, [sp, #32]
    d830: 01 00 a0 e3  	mov	r0, #1
    d834: 1c 00 8d e5  	str	r0, [sp, #28]
    d838: 0a 00 00 ea  	b	#40 <_ZN4core3fmt8getcount17h0b71ba4dce2ed406E+0x94>
    d83c: 10 10 9d e5  	ldr	r1, [sp, #16]
    d840: 0c 00 9d e5  	ldr	r0, [sp, #12]
    d844: 04 00 90 e5  	ldr	r0, [r0, #4]
    d848: 08 00 8d e5  	str	r0, [sp, #8]
    d84c: 30 00 8d e5  	str	r0, [sp, #48]
    d850: 01 00 50 e1  	cmp	r0, r1
    d854: 0d 00 00 2a  	bhs	#52 <_ZN4core3fmt8getcount17h0b71ba4dce2ed406E+0xbc>
    d858: 06 00 00 ea  	b	#24 <_ZN4core3fmt8getcount17h0b71ba4dce2ed406E+0xa4>
    d85c: 00 00 a0 e3  	mov	r0, #0
    d860: 1c 00 8d e5  	str	r0, [sp, #28]
    d864: ff ff ff ea  	b	#-4 <_ZN4core3fmt8getcount17h0b71ba4dce2ed406E+0x94>
    d868: 1c 00 9d e5  	ldr	r0, [sp, #28]
    d86c: 20 10 9d e5  	ldr	r1, [sp, #32]
    d870: 38 d0 8d e2  	add	sp, sp, #56
    d874: 00 88 bd e8  	pop	{r11, pc}
    d878: 08 20 9d e5  	ldr	r2, [sp, #8]
    d87c: 10 10 9d e5  	ldr	r1, [sp, #16]
    d880: 14 00 9d e5  	ldr	r0, [sp, #20]
    d884: 35 09 00 eb  	bl	#9428 <_ZN4core5slice29_$LT$impl$u20$$u5b$T$u5d$$GT$13get_unchecked17hb558a5d276703f46E>
    d888: 04 00 8d e5  	str	r0, [sp, #4]
    d88c: 04 00 00 ea  	b	#16 <_ZN4core3fmt8getcount17h0b71ba4dce2ed406E+0xd0>
    d890: 20 00 9f e5  	ldr	r0, [pc, #32]
    d894: 20 20 9f e5  	ldr	r2, [pc, #32]
    d898: 20 10 a0 e3  	mov	r1, #32
    d89c: 84 f9 ff eb  	bl	#-6640 <_ZN4core9panicking5panic17h70f755644c6683e5E>
    d8a0: fe de ff e7  	trap
    d8a4: 04 00 9d e5  	ldr	r0, [sp, #4]
    d8a8: cb fd ff eb  	bl	#-2260 <_ZN4core3fmt10ArgumentV18as_usize17h90afd2da165caa5cE>
    d8ac: 20 10 8d e5  	str	r1, [sp, #32]
    d8b0: 1c 00 8d e5  	str	r0, [sp, #28]
    d8b4: eb ff ff ea  	b	#-84 <_ZN4core3fmt8getcount17h0b71ba4dce2ed406E+0x94>

0000d8b8 <$d.1443>:
    d8b8:	70 53 01 00	.word	0x00015370
    d8bc:	38 5d 01 00	.word	0x00015d38

0000d8c0 <_ZN4core3fmt11PostPadding3new17hd707ba2e2f281ce5E>:
    d8c0: 10 d0 4d e2  	sub	sp, sp, #16
    d8c4: 08 00 8d e5  	str	r0, [sp, #8]
    d8c8: 0c 10 8d e5  	str	r1, [sp, #12]
    d8cc: 00 00 8d e5  	str	r0, [sp]
    d8d0: 04 10 8d e5  	str	r1, [sp, #4]
    d8d4: 00 00 9d e5  	ldr	r0, [sp]
    d8d8: 04 10 9d e5  	ldr	r1, [sp, #4]
    d8dc: 10 d0 8d e2  	add	sp, sp, #16
    d8e0: 1e ff 2f e1  	bx	lr

0000d8e4 <_ZN4core3fmt11PostPadding5write17h749827b00c253280E>:
    d8e4: 00 48 2d e9  	push	{r11, lr}
    d8e8: 48 d0 4d e2  	sub	sp, sp, #72
    d8ec: 04 20 8d e5  	str	r2, [sp, #4]
    d8f0: 08 00 8d e5  	str	r0, [sp, #8]
    d8f4: 34 00 8d e5  	str	r0, [sp, #52]
    d8f8: 38 10 8d e5  	str	r1, [sp, #56]
    d8fc: 3c 20 8d e5  	str	r2, [sp, #60]
    d900: 00 00 a0 e3  	mov	r0, #0
    d904: 18 00 8d e5  	str	r0, [sp, #24]
    d908: 1c 10 8d e5  	str	r1, [sp, #28]
    d90c: 18 00 9d e5  	ldr	r0, [sp, #24]
    d910: 1c 10 9d e5  	ldr	r1, [sp, #28]
    d914: ff f6 ff eb  	bl	#-9220 <_ZN63_$LT$I$u20$as$u20$core..iter..traits..collect..IntoIterator$GT$9into_iter17ha824f1c680dbc5d5E>
    d918: 0c 00 8d e5  	str	r0, [sp, #12]
    d91c: 10 10 8d e5  	str	r1, [sp, #16]
    d920: ff ff ff ea  	b	#-4 <_ZN4core3fmt11PostPadding5write17h749827b00c253280E+0x40>
    d924: 10 00 9d e5  	ldr	r0, [sp, #16]
    d928: 0c 10 9d e5  	ldr	r1, [sp, #12]
    d92c: 20 10 8d e5  	str	r1, [sp, #32]
    d930: 24 00 8d e5  	str	r0, [sp, #36]
    d934: ff ff ff ea  	b	#-4 <_ZN4core3fmt11PostPadding5write17h749827b00c253280E+0x54>
    d938: 20 00 8d e2  	add	r0, sp, #32
    d93c: e1 f6 ff eb  	bl	#-9340 <_ZN4core4iter5range101_$LT$impl$u20$core..iter..traits..iterator..Iterator$u20$for$u20$core..ops..range..Range$LT$A$GT$$GT$4next17h679e961ab2e050c2E>
    d940: 2c 10 8d e5  	str	r1, [sp, #44]
    d944: 28 00 8d e5  	str	r0, [sp, #40]
    d948: ff ff ff ea  	b	#-4 <_ZN4core3fmt11PostPadding5write17h749827b00c253280E+0x68>
    d94c: 28 00 9d e5  	ldr	r0, [sp, #40]
    d950: 00 00 50 e3  	cmp	r0, #0
    d954: 02 00 00 0a  	beq	#8 <_ZN4core3fmt11PostPadding5write17h749827b00c253280E+0x80>
    d958: ff ff ff ea  	b	#-4 <_ZN4core3fmt11PostPadding5write17h749827b00c253280E+0x78>
    d95c: 03 00 00 ea  	b	#12 <_ZN4core3fmt11PostPadding5write17h749827b00c253280E+0x8c>
    d960: fe de ff e7  	trap
    d964: 00 00 a0 e3  	mov	r0, #0
    d968: 17 00 cd e5  	strb	r0, [sp, #23]
    d96c: 16 00 00 ea  	b	#88 <_ZN4core3fmt11PostPadding5write17h749827b00c253280E+0xe8>
    d970: 08 10 9d e5  	ldr	r1, [sp, #8]
    d974: 04 20 9d e5  	ldr	r2, [sp, #4]
    d978: 18 00 92 e5  	ldr	r0, [r2, #24]
    d97c: 1c 20 92 e5  	ldr	r2, [r2, #28]
    d980: 10 20 92 e5  	ldr	r2, [r2, #16]
    d984: 32 ff 2f e1  	blx	r2
    d988: 00 00 8d e5  	str	r0, [sp]
    d98c: ff ff ff ea  	b	#-4 <_ZN4core3fmt11PostPadding5write17h749827b00c253280E+0xac>
    d990: 00 00 9d e5  	ldr	r0, [sp]
    d994: 01 00 00 e2  	and	r0, r0, #1
    d998: 6b fa ff eb  	bl	#-5716 <_ZN79_$LT$core..result..Result$LT$T$C$E$GT$$u20$as$u20$core..ops..try_trait..Try$GT$6branch17hd1d9da8509624ae6E>
    d99c: 33 00 cd e5  	strb	r0, [sp, #51]
    d9a0: ff ff ff ea  	b	#-4 <_ZN4core3fmt11PostPadding5write17h749827b00c253280E+0xc0>
    d9a4: 33 00 dd e5  	ldrb	r0, [sp, #51]
    d9a8: 01 00 10 e3  	tst	r0, #1
    d9ac: e1 ff ff 0a  	beq	#-124 <_ZN4core3fmt11PostPadding5write17h749827b00c253280E+0x54>
    d9b0: ff ff ff ea  	b	#-4 <_ZN4core3fmt11PostPadding5write17h749827b00c253280E+0xd0>
    d9b4: 00 00 00 ea  	b	#0 <_ZN4core3fmt11PostPadding5write17h749827b00c253280E+0xd8>
    d9b8: fe de ff e7  	trap
    d9bc: 14 00 9f e5  	ldr	r0, [pc, #20]
    d9c0: 8f fa ff eb  	bl	#-5572 <_ZN153_$LT$core..result..Result$LT$T$C$F$GT$$u20$as$u20$core..ops..try_trait..FromResidual$LT$core..result..Result$LT$core..convert..Infallible$C$E$GT$$GT$$GT$13from_residual17h411b96776abd096cE>
    d9c4: 17 00 cd e5  	strb	r0, [sp, #23]
    d9c8: ff ff ff ea  	b	#-4 <_ZN4core3fmt11PostPadding5write17h749827b00c253280E+0xe8>
    d9cc: 17 00 dd e5  	ldrb	r0, [sp, #23]
    d9d0: 48 d0 8d e2  	add	sp, sp, #72
    d9d4: 00 88 bd e8  	pop	{r11, pc}

0000d9d8 <$d.1446>:
    d9d8:	48 5d 01 00	.word	0x00015d48

0000d9dc <_ZN4core3fmt9Formatter12pad_integral17h6338b9e6c1af941fE>:
    d9dc: 10 40 2d e9  	push	{r4, lr}
    d9e0: 15 de 4d e2  	sub	sp, sp, #336
    d9e4: 74 30 8d e5  	str	r3, [sp, #116]
    d9e8: 78 20 8d e5  	str	r2, [sp, #120]
    d9ec: 01 c0 a0 e1  	mov	r12, r1
    d9f0: 00 e0 a0 e1  	mov	lr, r0
    d9f4: 7c e0 8d e5  	str	lr, [sp, #124]
    d9f8: 5c 11 9d e5  	ldr	r1, [sp, #348]
    d9fc: 80 10 8d e5  	str	r1, [sp, #128]
    da00: 58 01 9d e5  	ldr	r0, [sp, #344]
    da04: 84 00 8d e5  	str	r0, [sp, #132]
    da08: 0c 40 a0 e1  	mov	r4, r12
    da0c: 88 40 8d e5  	str	r4, [sp, #136]
    da10: bc e0 8d e5  	str	lr, [sp, #188]
    da14: c3 c0 cd e5  	strb	r12, [sp, #195]
    da18: c4 20 8d e5  	str	r2, [sp, #196]
    da1c: c8 30 8d e5  	str	r3, [sp, #200]
    da20: cc 00 8d e5  	str	r0, [sp, #204]
    da24: d0 10 8d e5  	str	r1, [sp, #208]
    da28: 06 10 00 eb  	bl	#16408 <_ZN4core3str21_$LT$impl$u20$str$GT$3len17h14a3611b18a00a0eE>
    da2c: 90 00 8d e5  	str	r0, [sp, #144]
    da30: ff ff ff ea  	b	#-4 <_ZN4core3fmt9Formatter12pad_integral17h6338b9e6c1af941fE+0x58>
    da34: 88 00 9d e5  	ldr	r0, [sp, #136]
    da38: 00 10 a0 e3  	mov	r1, #0
    da3c: 94 10 8d e5  	str	r1, [sp, #148]
    da40: 11 18 a0 e3  	mov	r1, #1114112
    da44: 94 10 8d e5  	str	r1, [sp, #148]
    da48: 01 00 10 e3  	tst	r0, #1
    da4c: 04 00 00 0a  	beq	#16 <_ZN4core3fmt9Formatter12pad_integral17h6338b9e6c1af941fE+0x88>
    da50: ff ff ff ea  	b	#-4 <_ZN4core3fmt9Formatter12pad_integral17h6338b9e6c1af941fE+0x78>
    da54: 7c 00 9d e5  	ldr	r0, [sp, #124]
    da58: 50 03 00 eb  	bl	#3392 <_ZN4core3fmt9Formatter9sign_plus17h65de438d1db4ba18E>
    da5c: 70 00 8d e5  	str	r0, [sp, #112]
    da60: 13 00 00 ea  	b	#76 <_ZN4core3fmt9Formatter12pad_integral17h6338b9e6c1af941fE+0xd8>
    da64: 2d 00 a0 e3  	mov	r0, #45
    da68: 94 00 8d e5  	str	r0, [sp, #148]
    da6c: 90 10 9d e5  	ldr	r1, [sp, #144]
    da70: 01 00 81 e2  	add	r0, r1, #1
    da74: 6c 00 8d e5  	str	r0, [sp, #108]
    da78: 01 00 50 e1  	cmp	r0, r1
    da7c: 03 00 00 3a  	blo	#12 <_ZN4core3fmt9Formatter12pad_integral17h6338b9e6c1af941fE+0xb4>
    da80: ff ff ff ea  	b	#-4 <_ZN4core3fmt9Formatter12pad_integral17h6338b9e6c1af941fE+0xa8>
    da84: 6c 00 9d e5  	ldr	r0, [sp, #108]
    da88: 90 00 8d e5  	str	r0, [sp, #144]
    da8c: 04 00 00 ea  	b	#16 <_ZN4core3fmt9Formatter12pad_integral17h6338b9e6c1af941fE+0xc8>
    da90: 54 06 9f e5  	ldr	r0, [pc, #1620]
    da94: 8c 26 9f e5  	ldr	r2, [pc, #1676]
    da98: 1c 10 a0 e3  	mov	r1, #28
    da9c: 04 f9 ff eb  	bl	#-7152 <_ZN4core9panicking5panic17h70f755644c6683e5E>
    daa0: fe de ff e7  	trap
    daa4: 7c 00 9d e5  	ldr	r0, [sp, #124]
    daa8: 42 03 00 eb  	bl	#3336 <_ZN4core3fmt9Formatter9alternate17h4c2d8fc96ccfb258E>
    daac: 68 00 8d e5  	str	r0, [sp, #104]
    dab0: 13 00 00 ea  	b	#76 <_ZN4core3fmt9Formatter12pad_integral17h6338b9e6c1af941fE+0x128>
    dab4: 70 00 9d e5  	ldr	r0, [sp, #112]
    dab8: 01 00 10 e3  	tst	r0, #1
    dabc: f8 ff ff 0a  	beq	#-32 <_ZN4core3fmt9Formatter12pad_integral17h6338b9e6c1af941fE+0xc8>
    dac0: ff ff ff ea  	b	#-4 <_ZN4core3fmt9Formatter12pad_integral17h6338b9e6c1af941fE+0xe8>
    dac4: 2b 00 a0 e3  	mov	r0, #43
    dac8: 94 00 8d e5  	str	r0, [sp, #148]
    dacc: 90 10 9d e5  	ldr	r1, [sp, #144]
    dad0: 01 00 81 e2  	add	r0, r1, #1
    dad4: 64 00 8d e5  	str	r0, [sp, #100]
    dad8: 01 00 50 e1  	cmp	r0, r1
    dadc: 03 00 00 3a  	blo	#12 <_ZN4core3fmt9Formatter12pad_integral17h6338b9e6c1af941fE+0x114>
    dae0: ff ff ff ea  	b	#-4 <_ZN4core3fmt9Formatter12pad_integral17h6338b9e6c1af941fE+0x108>
    dae4: 64 00 9d e5  	ldr	r0, [sp, #100]
    dae8: 90 00 8d e5  	str	r0, [sp, #144]
    daec: ec ff ff ea  	b	#-80 <_ZN4core3fmt9Formatter12pad_integral17h6338b9e6c1af941fE+0xc8>
    daf0: f4 05 9f e5  	ldr	r0, [pc, #1524]
    daf4: f4 25 9f e5  	ldr	r2, [pc, #1524]
    daf8: 1c 10 a0 e3  	mov	r1, #28
    dafc: ec f8 ff eb  	bl	#-7248 <_ZN4core9panicking5panic17h70f755644c6683e5E>
    db00: fe de ff e7  	trap
    db04: 68 00 9d e5  	ldr	r0, [sp, #104]
    db08: 01 00 10 e3  	tst	r0, #1
    db0c: 05 00 00 1a  	bne	#20 <_ZN4core3fmt9Formatter12pad_integral17h6338b9e6c1af941fE+0x14c>
    db10: ff ff ff ea  	b	#-4 <_ZN4core3fmt9Formatter12pad_integral17h6338b9e6c1af941fE+0x138>
    db14: 00 00 a0 e3  	mov	r0, #0
    db18: 9c 00 8d e5  	str	r0, [sp, #156]
    db1c: 98 00 8d e5  	str	r0, [sp, #152]
    db20: 98 00 8d e5  	str	r0, [sp, #152]
    db24: 1d 00 00 ea  	b	#116 <_ZN4core3fmt9Formatter12pad_integral17h6338b9e6c1af941fE+0x1c4>
    db28: 74 10 9d e5  	ldr	r1, [sp, #116]
    db2c: 78 00 9d e5  	ldr	r0, [sp, #120]
    db30: 2b 10 00 eb  	bl	#16556 <_ZN4core3str21_$LT$impl$u20$str$GT$5chars17hbaf4cad00ce48caaE>
    db34: 5c 00 8d e5  	str	r0, [sp, #92]
    db38: 60 10 8d e5  	str	r1, [sp, #96]
    db3c: ff ff ff ea  	b	#-4 <_ZN4core3fmt9Formatter12pad_integral17h6338b9e6c1af941fE+0x164>
    db40: 60 10 9d e5  	ldr	r1, [sp, #96]
    db44: 5c 00 9d e5  	ldr	r0, [sp, #92]
    db48: 1b 0e 00 eb  	bl	#14444 <_ZN81_$LT$core..str..iter..Chars$u20$as$u20$core..iter..traits..iterator..Iterator$GT$5count17h42b30a58c777afecE>
    db4c: 58 00 8d e5  	str	r0, [sp, #88]
    db50: ff ff ff ea  	b	#-4 <_ZN4core3fmt9Formatter12pad_integral17h6338b9e6c1af941fE+0x178>
    db54: 58 00 9d e5  	ldr	r0, [sp, #88]
    db58: 90 10 9d e5  	ldr	r1, [sp, #144]
    db5c: 00 00 81 e0  	add	r0, r1, r0
    db60: 54 00 8d e5  	str	r0, [sp, #84]
    db64: 01 00 50 e1  	cmp	r0, r1
    db68: 07 00 00 3a  	blo	#28 <_ZN4core3fmt9Formatter12pad_integral17h6338b9e6c1af941fE+0x1b0>
    db6c: ff ff ff ea  	b	#-4 <_ZN4core3fmt9Formatter12pad_integral17h6338b9e6c1af941fE+0x194>
    db70: 74 00 9d e5  	ldr	r0, [sp, #116]
    db74: 78 10 9d e5  	ldr	r1, [sp, #120]
    db78: 54 20 9d e5  	ldr	r2, [sp, #84]
    db7c: 90 20 8d e5  	str	r2, [sp, #144]
    db80: 98 10 8d e5  	str	r1, [sp, #152]
    db84: 9c 00 8d e5  	str	r0, [sp, #156]
    db88: 04 00 00 ea  	b	#16 <_ZN4core3fmt9Formatter12pad_integral17h6338b9e6c1af941fE+0x1c4>
    db8c: 58 05 9f e5  	ldr	r0, [pc, #1368]
    db90: 8c 25 9f e5  	ldr	r2, [pc, #1420]
    db94: 1c 10 a0 e3  	mov	r1, #28
    db98: c5 f8 ff eb  	bl	#-7404 <_ZN4core9panicking5panic17h70f755644c6683e5E>
    db9c: fe de ff e7  	trap
    dba0: 7c 00 9d e5  	ldr	r0, [sp, #124]
    dba4: 08 00 90 e5  	ldr	r0, [r0, #8]
    dba8: 00 00 50 e3  	cmp	r0, #0
    dbac: 02 00 00 0a  	beq	#8 <_ZN4core3fmt9Formatter12pad_integral17h6338b9e6c1af941fE+0x1e0>
    dbb0: ff ff ff ea  	b	#-4 <_ZN4core3fmt9Formatter12pad_integral17h6338b9e6c1af941fE+0x1d8>
    dbb4: 07 00 00 ea  	b	#28 <_ZN4core3fmt9Formatter12pad_integral17h6338b9e6c1af941fE+0x1fc>
    dbb8: fe de ff e7  	trap
    dbbc: 7c 00 9d e5  	ldr	r0, [sp, #124]
    dbc0: 94 10 9d e5  	ldr	r1, [sp, #148]
    dbc4: 98 20 9d e5  	ldr	r2, [sp, #152]
    dbc8: 9c 30 9d e5  	ldr	r3, [sp, #156]
    dbcc: 56 01 00 eb  	bl	#1368 <_ZN4core3fmt9Formatter12pad_integral12write_prefix17h1a1880509098b6f4E>
    dbd0: 50 00 8d e5  	str	r0, [sp, #80]
    dbd4: 2c 01 00 ea  	b	#1200 <_ZN4core3fmt9Formatter12pad_integral17h6338b9e6c1af941fE+0x6b0>
    dbd8: 7c 10 9d e5  	ldr	r1, [sp, #124]
    dbdc: 0c 00 81 e2  	add	r0, r1, #12
    dbe0: 14 01 8d e5  	str	r0, [sp, #276]
    dbe4: 90 00 9d e5  	ldr	r0, [sp, #144]
    dbe8: 0c 10 91 e5  	ldr	r1, [r1, #12]
    dbec: 01 00 50 e1  	cmp	r0, r1
    dbf0: 06 00 00 2a  	bhs	#24 <_ZN4core3fmt9Formatter12pad_integral17h6338b9e6c1af941fE+0x234>
    dbf4: ff ff ff ea  	b	#-4 <_ZN4core3fmt9Formatter12pad_integral17h6338b9e6c1af941fE+0x21c>
    dbf8: 7c 00 9d e5  	ldr	r0, [sp, #124]
    dbfc: 0c 10 80 e2  	add	r1, r0, #12
    dc00: 1c 11 8d e5  	str	r1, [sp, #284]
    dc04: f2 02 00 eb  	bl	#3016 <_ZN4core3fmt9Formatter19sign_aware_zero_pad17h4ecf0a4eb12c0453E>
    dc08: 4c 00 8d e5  	str	r0, [sp, #76]
    dc0c: 23 00 00 ea  	b	#140 <_ZN4core3fmt9Formatter12pad_integral17h6338b9e6c1af941fE+0x2c4>
    dc10: 7c 00 9d e5  	ldr	r0, [sp, #124]
    dc14: 0c 10 90 e5  	ldr	r1, [r0, #12]
    dc18: 18 11 8d e5  	str	r1, [sp, #280]
    dc1c: 94 10 9d e5  	ldr	r1, [sp, #148]
    dc20: 98 20 9d e5  	ldr	r2, [sp, #152]
    dc24: 9c 30 9d e5  	ldr	r3, [sp, #156]
    dc28: 3f 01 00 eb  	bl	#1276 <_ZN4core3fmt9Formatter12pad_integral12write_prefix17h1a1880509098b6f4E>
    dc2c: 48 00 8d e5  	str	r0, [sp, #72]
    dc30: ff ff ff ea  	b	#-4 <_ZN4core3fmt9Formatter12pad_integral17h6338b9e6c1af941fE+0x258>
    dc34: 48 00 9d e5  	ldr	r0, [sp, #72]
    dc38: 01 00 00 e2  	and	r0, r0, #1
    dc3c: c2 f9 ff eb  	bl	#-6392 <_ZN79_$LT$core..result..Result$LT$T$C$E$GT$$u20$as$u20$core..ops..try_trait..Try$GT$6branch17hd1d9da8509624ae6E>
    dc40: a1 00 cd e5  	strb	r0, [sp, #161]
    dc44: ff ff ff ea  	b	#-4 <_ZN4core3fmt9Formatter12pad_integral17h6338b9e6c1af941fE+0x26c>
    dc48: a1 00 dd e5  	ldrb	r0, [sp, #161]
    dc4c: 01 00 10 e3  	tst	r0, #1
    dc50: 02 00 00 0a  	beq	#8 <_ZN4core3fmt9Formatter12pad_integral17h6338b9e6c1af941fE+0x284>
    dc54: ff ff ff ea  	b	#-4 <_ZN4core3fmt9Formatter12pad_integral17h6338b9e6c1af941fE+0x27c>
    dc58: 09 00 00 ea  	b	#36 <_ZN4core3fmt9Formatter12pad_integral17h6338b9e6c1af941fE+0x2a8>
    dc5c: fe de ff e7  	trap
    dc60: 80 20 9d e5  	ldr	r2, [sp, #128]
    dc64: 84 10 9d e5  	ldr	r1, [sp, #132]
    dc68: 7c 30 9d e5  	ldr	r3, [sp, #124]
    dc6c: 18 00 93 e5  	ldr	r0, [r3, #24]
    dc70: 1c 30 93 e5  	ldr	r3, [r3, #28]
    dc74: 0c 30 93 e5  	ldr	r3, [r3, #12]
    dc78: 33 ff 2f e1  	blx	r3
    dc7c: 8f 00 cd e5  	strb	r0, [sp, #143]
    dc80: 03 00 00 ea  	b	#12 <_ZN4core3fmt9Formatter12pad_integral17h6338b9e6c1af941fE+0x2b8>
    dc84: 90 04 9f e5  	ldr	r0, [pc, #1168]
    dc88: dd f9 ff eb  	bl	#-6284 <_ZN153_$LT$core..result..Result$LT$T$C$F$GT$$u20$as$u20$core..ops..try_trait..FromResidual$LT$core..result..Result$LT$core..convert..Infallible$C$E$GT$$GT$$GT$13from_residual17h411b96776abd096cE>
    dc8c: 8f 00 cd e5  	strb	r0, [sp, #143]
    dc90: ff ff ff ea  	b	#-4 <_ZN4core3fmt9Formatter12pad_integral17h6338b9e6c1af941fE+0x2b8>
    dc94: 8f 00 dd e5  	ldrb	r0, [sp, #143]
    dc98: 15 de 8d e2  	add	sp, sp, #336
    dc9c: 10 80 bd e8  	pop	{r4, pc}
    dca0: 4c 00 9d e5  	ldr	r0, [sp, #76]
    dca4: 01 00 10 e3  	tst	r0, #1
    dca8: 09 00 00 1a  	bne	#36 <_ZN4core3fmt9Formatter12pad_integral17h6338b9e6c1af941fE+0x2f8>
    dcac: ff ff ff ea  	b	#-4 <_ZN4core3fmt9Formatter12pad_integral17h6338b9e6c1af941fE+0x2d4>
    dcb0: 7c 00 9d e5  	ldr	r0, [sp, #124]
    dcb4: 0c 00 90 e5  	ldr	r0, [r0, #12]
    dcb8: 3c 01 8d e5  	str	r0, [sp, #316]
    dcbc: 90 10 9d e5  	ldr	r1, [sp, #144]
    dcc0: 01 20 40 e0  	sub	r2, r0, r1
    dcc4: 44 20 8d e5  	str	r2, [sp, #68]
    dcc8: 01 00 50 e1  	cmp	r0, r1
    dccc: 9a 00 00 3a  	blo	#616 <_ZN4core3fmt9Formatter12pad_integral17h6338b9e6c1af941fE+0x560>
    dcd0: 90 00 00 ea  	b	#576 <_ZN4core3fmt9Formatter12pad_integral17h6338b9e6c1af941fE+0x53c>
    dcd4: 7c 00 9d e5  	ldr	r0, [sp, #124]
    dcd8: 0c 10 90 e5  	ldr	r1, [r0, #12]
    dcdc: 3c 10 8d e5  	str	r1, [sp, #60]
    dce0: 20 11 8d e5  	str	r1, [sp, #288]
    dce4: 04 00 80 e2  	add	r0, r0, #4
    dce8: 30 10 a0 e3  	mov	r1, #48
    dcec: aa ef ff eb  	bl	#-16728 <_ZN4core3mem7replace17hb3b3ec1c42c6a29fE>
    dcf0: 00 10 a0 e1  	mov	r1, r0
    dcf4: 40 10 8d e5  	str	r1, [sp, #64]
    dcf8: 24 01 8d e5  	str	r0, [sp, #292]
    dcfc: ff ff ff ea  	b	#-4 <_ZN4core3fmt9Formatter12pad_integral17h6338b9e6c1af941fE+0x324>
    dd00: 7c 00 9d e5  	ldr	r0, [sp, #124]
    dd04: 20 00 80 e2  	add	r0, r0, #32
    dd08: 01 10 a0 e3  	mov	r1, #1
    dd0c: a2 10 cd e5  	strb	r1, [sp, #162]
    dd10: a2 10 dd e5  	ldrb	r1, [sp, #162]
    dd14: 7a ef ff eb  	bl	#-16920 <_ZN4core3mem7replace17h517b6fe9151f1a70E>
    dd18: 70 00 ef e6  	uxtb	r0, r0
    dd1c: 00 10 a0 e1  	mov	r1, r0
    dd20: 38 10 8d e5  	str	r1, [sp, #56]
    dd24: 2b 01 cd e5  	strb	r0, [sp, #299]
    dd28: ff ff ff ea  	b	#-4 <_ZN4core3fmt9Formatter12pad_integral17h6338b9e6c1af941fE+0x350>
    dd2c: 7c 00 9d e5  	ldr	r0, [sp, #124]
    dd30: 94 10 9d e5  	ldr	r1, [sp, #148]
    dd34: 98 20 9d e5  	ldr	r2, [sp, #152]
    dd38: 9c 30 9d e5  	ldr	r3, [sp, #156]
    dd3c: fa 00 00 eb  	bl	#1000 <_ZN4core3fmt9Formatter12pad_integral12write_prefix17h1a1880509098b6f4E>
    dd40: 34 00 8d e5  	str	r0, [sp, #52]
    dd44: ff ff ff ea  	b	#-4 <_ZN4core3fmt9Formatter12pad_integral17h6338b9e6c1af941fE+0x36c>
    dd48: 34 00 9d e5  	ldr	r0, [sp, #52]
    dd4c: 01 00 00 e2  	and	r0, r0, #1
    dd50: 7d f9 ff eb  	bl	#-6668 <_ZN79_$LT$core..result..Result$LT$T$C$E$GT$$u20$as$u20$core..ops..try_trait..Try$GT$6branch17hd1d9da8509624ae6E>
    dd54: a3 00 cd e5  	strb	r0, [sp, #163]
    dd58: ff ff ff ea  	b	#-4 <_ZN4core3fmt9Formatter12pad_integral17h6338b9e6c1af941fE+0x380>
    dd5c: a3 00 dd e5  	ldrb	r0, [sp, #163]
    dd60: 01 00 10 e3  	tst	r0, #1
    dd64: 02 00 00 0a  	beq	#8 <_ZN4core3fmt9Formatter12pad_integral17h6338b9e6c1af941fE+0x398>
    dd68: ff ff ff ea  	b	#-4 <_ZN4core3fmt9Formatter12pad_integral17h6338b9e6c1af941fE+0x390>
    dd6c: 07 00 00 ea  	b	#28 <_ZN4core3fmt9Formatter12pad_integral17h6338b9e6c1af941fE+0x3b4>
    dd70: fe de ff e7  	trap
    dd74: 3c 00 9d e5  	ldr	r0, [sp, #60]
    dd78: 90 10 9d e5  	ldr	r1, [sp, #144]
    dd7c: 01 20 40 e0  	sub	r2, r0, r1
    dd80: 30 20 8d e5  	str	r2, [sp, #48]
    dd84: 01 00 50 e1  	cmp	r0, r1
    dd88: 0d 00 00 3a  	blo	#52 <_ZN4core3fmt9Formatter12pad_integral17h6338b9e6c1af941fE+0x3e8>
    dd8c: 03 00 00 ea  	b	#12 <_ZN4core3fmt9Formatter12pad_integral17h6338b9e6c1af941fE+0x3c4>
    dd90: 70 03 9f e5  	ldr	r0, [pc, #880]
    dd94: 9a f9 ff eb  	bl	#-6552 <_ZN153_$LT$core..result..Result$LT$T$C$F$GT$$u20$as$u20$core..ops..try_trait..FromResidual$LT$core..result..Result$LT$core..convert..Infallible$C$E$GT$$GT$$GT$13from_residual17h411b96776abd096cE>
    dd98: 8f 00 cd e5  	strb	r0, [sp, #143]
    dd9c: bc ff ff ea  	b	#-272 <_ZN4core3fmt9Formatter12pad_integral17h6338b9e6c1af941fE+0x2b8>
    dda0: 30 10 9d e5  	ldr	r1, [sp, #48]
    dda4: 7c 00 9d e5  	ldr	r0, [sp, #124]
    dda8: 01 20 a0 e3  	mov	r2, #1
    ddac: ad 20 cd e5  	strb	r2, [sp, #173]
    ddb0: ad 20 dd e5  	ldrb	r2, [sp, #173]
    ddb4: f4 01 00 eb  	bl	#2000 <_ZN4core3fmt9Formatter7padding17h5b11df4d9ea5f2b3E>
    ddb8: 28 00 8d e5  	str	r0, [sp, #40]
    ddbc: 2c 10 8d e5  	str	r1, [sp, #44]
    ddc0: 04 00 00 ea  	b	#16 <_ZN4core3fmt9Formatter12pad_integral17h6338b9e6c1af941fE+0x3fc>
    ddc4: 34 03 9f e5  	ldr	r0, [pc, #820]
    ddc8: 48 23 9f e5  	ldr	r2, [pc, #840]
    ddcc: 21 10 a0 e3  	mov	r1, #33
    ddd0: 37 f8 ff eb  	bl	#-7972 <_ZN4core9panicking5panic17h70f755644c6683e5E>
    ddd4: fe de ff e7  	trap
    ddd8: 2c 10 9d e5  	ldr	r1, [sp, #44]
    dddc: 28 00 9d e5  	ldr	r0, [sp, #40]
    dde0: 6a f9 ff eb  	bl	#-6744 <_ZN79_$LT$core..result..Result$LT$T$C$E$GT$$u20$as$u20$core..ops..try_trait..Try$GT$6branch17hec82a34d0273634fE>
    dde4: a8 10 8d e5  	str	r1, [sp, #168]
    dde8: a4 00 8d e5  	str	r0, [sp, #164]
    ddec: ff ff ff ea  	b	#-4 <_ZN4core3fmt9Formatter12pad_integral17h6338b9e6c1af941fE+0x414>
    ddf0: a4 00 9d e5  	ldr	r0, [sp, #164]
    ddf4: 11 18 40 e2  	sub	r1, r0, #1114112
    ddf8: 11 1f 6f e1  	clz	r1, r1
    ddfc: a1 12 a0 e1  	lsr	r1, r1, #5
    de00: 11 08 50 e3  	cmp	r0, #1114112
    de04: 02 00 00 1a  	bne	#8 <_ZN4core3fmt9Formatter12pad_integral17h6338b9e6c1af941fE+0x438>
    de08: ff ff ff ea  	b	#-4 <_ZN4core3fmt9Formatter12pad_integral17h6338b9e6c1af941fE+0x430>
    de0c: 11 00 00 ea  	b	#68 <_ZN4core3fmt9Formatter12pad_integral17h6338b9e6c1af941fE+0x47c>
    de10: fe de ff e7  	trap
    de14: 80 20 9d e5  	ldr	r2, [sp, #128]
    de18: 84 10 9d e5  	ldr	r1, [sp, #132]
    de1c: 7c 30 9d e5  	ldr	r3, [sp, #124]
    de20: a4 c0 9d e5  	ldr	r12, [sp, #164]
    de24: 1c c0 8d e5  	str	r12, [sp, #28]
    de28: a8 00 9d e5  	ldr	r0, [sp, #168]
    de2c: 20 00 8d e5  	str	r0, [sp, #32]
    de30: 2c c1 8d e5  	str	r12, [sp, #300]
    de34: 30 01 8d e5  	str	r0, [sp, #304]
    de38: 34 c1 8d e5  	str	r12, [sp, #308]
    de3c: 38 01 8d e5  	str	r0, [sp, #312]
    de40: 18 00 93 e5  	ldr	r0, [r3, #24]
    de44: 1c 30 93 e5  	ldr	r3, [r3, #28]
    de48: 0c 30 93 e5  	ldr	r3, [r3, #12]
    de4c: 33 ff 2f e1  	blx	r3
    de50: 24 00 8d e5  	str	r0, [sp, #36]
    de54: 03 00 00 ea  	b	#12 <_ZN4core3fmt9Formatter12pad_integral17h6338b9e6c1af941fE+0x48c>
    de58: ac 02 9f e5  	ldr	r0, [pc, #684]
    de5c: 68 f9 ff eb  	bl	#-6752 <_ZN153_$LT$core..result..Result$LT$T$C$F$GT$$u20$as$u20$core..ops..try_trait..FromResidual$LT$core..result..Result$LT$core..convert..Infallible$C$E$GT$$GT$$GT$13from_residual17h411b96776abd096cE>
    de60: 8f 00 cd e5  	strb	r0, [sp, #143]
    de64: 8a ff ff ea  	b	#-472 <_ZN4core3fmt9Formatter12pad_integral17h6338b9e6c1af941fE+0x2b8>
    de68: 24 00 9d e5  	ldr	r0, [sp, #36]
    de6c: 01 00 00 e2  	and	r0, r0, #1
    de70: 35 f9 ff eb  	bl	#-6956 <_ZN79_$LT$core..result..Result$LT$T$C$E$GT$$u20$as$u20$core..ops..try_trait..Try$GT$6branch17hd1d9da8509624ae6E>
    de74: ae 00 cd e5  	strb	r0, [sp, #174]
    de78: ff ff ff ea  	b	#-4 <_ZN4core3fmt9Formatter12pad_integral17h6338b9e6c1af941fE+0x4a0>
    de7c: ae 00 dd e5  	ldrb	r0, [sp, #174]
    de80: 01 00 10 e3  	tst	r0, #1
    de84: 02 00 00 0a  	beq	#8 <_ZN4core3fmt9Formatter12pad_integral17h6338b9e6c1af941fE+0x4b8>
    de88: ff ff ff ea  	b	#-4 <_ZN4core3fmt9Formatter12pad_integral17h6338b9e6c1af941fE+0x4b0>
    de8c: 06 00 00 ea  	b	#24 <_ZN4core3fmt9Formatter12pad_integral17h6338b9e6c1af941fE+0x4d0>
    de90: fe de ff e7  	trap
    de94: 7c 20 9d e5  	ldr	r2, [sp, #124]
    de98: 20 10 9d e5  	ldr	r1, [sp, #32]
    de9c: 1c 00 9d e5  	ldr	r0, [sp, #28]
    dea0: 8f fe ff eb  	bl	#-1476 <_ZN4core3fmt11PostPadding5write17h749827b00c253280E>
    dea4: 18 00 8d e5  	str	r0, [sp, #24]
    dea8: 03 00 00 ea  	b	#12 <_ZN4core3fmt9Formatter12pad_integral17h6338b9e6c1af941fE+0x4e0>
    deac: 5c 02 9f e5  	ldr	r0, [pc, #604]
    deb0: 53 f9 ff eb  	bl	#-6836 <_ZN153_$LT$core..result..Result$LT$T$C$F$GT$$u20$as$u20$core..ops..try_trait..FromResidual$LT$core..result..Result$LT$core..convert..Infallible$C$E$GT$$GT$$GT$13from_residual17h411b96776abd096cE>
    deb4: 8f 00 cd e5  	strb	r0, [sp, #143]
    deb8: 75 ff ff ea  	b	#-556 <_ZN4core3fmt9Formatter12pad_integral17h6338b9e6c1af941fE+0x2b8>
    debc: 18 00 9d e5  	ldr	r0, [sp, #24]
    dec0: 01 00 00 e2  	and	r0, r0, #1
    dec4: 20 f9 ff eb  	bl	#-7040 <_ZN79_$LT$core..result..Result$LT$T$C$E$GT$$u20$as$u20$core..ops..try_trait..Try$GT$6branch17hd1d9da8509624ae6E>
    dec8: af 00 cd e5  	strb	r0, [sp, #175]
    decc: ff ff ff ea  	b	#-4 <_ZN4core3fmt9Formatter12pad_integral17h6338b9e6c1af941fE+0x4f4>
    ded0: af 00 dd e5  	ldrb	r0, [sp, #175]
    ded4: 01 00 10 e3  	tst	r0, #1
    ded8: 02 00 00 0a  	beq	#8 <_ZN4core3fmt9Formatter12pad_integral17h6338b9e6c1af941fE+0x50c>
    dedc: ff ff ff ea  	b	#-4 <_ZN4core3fmt9Formatter12pad_integral17h6338b9e6c1af941fE+0x504>
    dee0: 08 00 00 ea  	b	#32 <_ZN4core3fmt9Formatter12pad_integral17h6338b9e6c1af941fE+0x52c>
    dee4: fe de ff e7  	trap
    dee8: 38 00 9d e5  	ldr	r0, [sp, #56]
    deec: 7c 10 9d e5  	ldr	r1, [sp, #124]
    def0: 40 20 9d e5  	ldr	r2, [sp, #64]
    def4: 04 20 81 e5  	str	r2, [r1, #4]
    def8: 20 00 c1 e5  	strb	r0, [r1, #32]
    defc: 00 00 a0 e3  	mov	r0, #0
    df00: 8f 00 cd e5  	strb	r0, [sp, #143]
    df04: 62 ff ff ea  	b	#-632 <_ZN4core3fmt9Formatter12pad_integral17h6338b9e6c1af941fE+0x2b8>
    df08: 04 02 9f e5  	ldr	r0, [pc, #516]
    df0c: 3c f9 ff eb  	bl	#-6928 <_ZN153_$LT$core..result..Result$LT$T$C$F$GT$$u20$as$u20$core..ops..try_trait..FromResidual$LT$core..result..Result$LT$core..convert..Infallible$C$E$GT$$GT$$GT$13from_residual17h411b96776abd096cE>
    df10: 8f 00 cd e5  	strb	r0, [sp, #143]
    df14: 5e ff ff ea  	b	#-648 <_ZN4core3fmt9Formatter12pad_integral17h6338b9e6c1af941fE+0x2b8>
    df18: 44 10 9d e5  	ldr	r1, [sp, #68]
    df1c: 7c 00 9d e5  	ldr	r0, [sp, #124]
    df20: 01 20 a0 e3  	mov	r2, #1
    df24: b9 20 cd e5  	strb	r2, [sp, #185]
    df28: b9 20 dd e5  	ldrb	r2, [sp, #185]
    df2c: 96 01 00 eb  	bl	#1624 <_ZN4core3fmt9Formatter7padding17h5b11df4d9ea5f2b3E>
    df30: 10 00 8d e5  	str	r0, [sp, #16]
    df34: 14 10 8d e5  	str	r1, [sp, #20]
    df38: 04 00 00 ea  	b	#16 <_ZN4core3fmt9Formatter12pad_integral17h6338b9e6c1af941fE+0x574>
    df3c: bc 01 9f e5  	ldr	r0, [pc, #444]
    df40: bc 21 9f e5  	ldr	r2, [pc, #444]
    df44: 21 10 a0 e3  	mov	r1, #33
    df48: d9 f7 ff eb  	bl	#-8348 <_ZN4core9panicking5panic17h70f755644c6683e5E>
    df4c: fe de ff e7  	trap
    df50: 14 10 9d e5  	ldr	r1, [sp, #20]
    df54: 10 00 9d e5  	ldr	r0, [sp, #16]
    df58: 0c f9 ff eb  	bl	#-7120 <_ZN79_$LT$core..result..Result$LT$T$C$E$GT$$u20$as$u20$core..ops..try_trait..Try$GT$6branch17hec82a34d0273634fE>
    df5c: b4 10 8d e5  	str	r1, [sp, #180]
    df60: b0 00 8d e5  	str	r0, [sp, #176]
    df64: ff ff ff ea  	b	#-4 <_ZN4core3fmt9Formatter12pad_integral17h6338b9e6c1af941fE+0x58c>
    df68: b0 00 9d e5  	ldr	r0, [sp, #176]
    df6c: 11 18 40 e2  	sub	r1, r0, #1114112
    df70: 11 1f 6f e1  	clz	r1, r1
    df74: a1 12 a0 e1  	lsr	r1, r1, #5
    df78: 11 08 50 e3  	cmp	r0, #1114112
    df7c: 02 00 00 1a  	bne	#8 <_ZN4core3fmt9Formatter12pad_integral17h6338b9e6c1af941fE+0x5b0>
    df80: ff ff ff ea  	b	#-4 <_ZN4core3fmt9Formatter12pad_integral17h6338b9e6c1af941fE+0x5a8>
    df84: 0f 00 00 ea  	b	#60 <_ZN4core3fmt9Formatter12pad_integral17h6338b9e6c1af941fE+0x5ec>
    df88: fe de ff e7  	trap
    df8c: 7c 00 9d e5  	ldr	r0, [sp, #124]
    df90: b0 20 9d e5  	ldr	r2, [sp, #176]
    df94: 04 20 8d e5  	str	r2, [sp, #4]
    df98: b4 10 9d e5  	ldr	r1, [sp, #180]
    df9c: 08 10 8d e5  	str	r1, [sp, #8]
    dfa0: 40 21 8d e5  	str	r2, [sp, #320]
    dfa4: 44 11 8d e5  	str	r1, [sp, #324]
    dfa8: 48 21 8d e5  	str	r2, [sp, #328]
    dfac: 4c 11 8d e5  	str	r1, [sp, #332]
    dfb0: 94 10 9d e5  	ldr	r1, [sp, #148]
    dfb4: 98 20 9d e5  	ldr	r2, [sp, #152]
    dfb8: 9c 30 9d e5  	ldr	r3, [sp, #156]
    dfbc: 5a 00 00 eb  	bl	#360 <_ZN4core3fmt9Formatter12pad_integral12write_prefix17h1a1880509098b6f4E>
    dfc0: 0c 00 8d e5  	str	r0, [sp, #12]
    dfc4: 03 00 00 ea  	b	#12 <_ZN4core3fmt9Formatter12pad_integral17h6338b9e6c1af941fE+0x5fc>
    dfc8: 24 01 9f e5  	ldr	r0, [pc, #292]
    dfcc: 0c f9 ff eb  	bl	#-7120 <_ZN153_$LT$core..result..Result$LT$T$C$F$GT$$u20$as$u20$core..ops..try_trait..FromResidual$LT$core..result..Result$LT$core..convert..Infallible$C$E$GT$$GT$$GT$13from_residual17h411b96776abd096cE>
    dfd0: 8f 00 cd e5  	strb	r0, [sp, #143]
    dfd4: 2e ff ff ea  	b	#-840 <_ZN4core3fmt9Formatter12pad_integral17h6338b9e6c1af941fE+0x2b8>
    dfd8: 0c 00 9d e5  	ldr	r0, [sp, #12]
    dfdc: 01 00 00 e2  	and	r0, r0, #1
    dfe0: d9 f8 ff eb  	bl	#-7324 <_ZN79_$LT$core..result..Result$LT$T$C$E$GT$$u20$as$u20$core..ops..try_trait..Try$GT$6branch17hd1d9da8509624ae6E>
    dfe4: ba 00 cd e5  	strb	r0, [sp, #186]
    dfe8: ff ff ff ea  	b	#-4 <_ZN4core3fmt9Formatter12pad_integral17h6338b9e6c1af941fE+0x610>
    dfec: ba 00 dd e5  	ldrb	r0, [sp, #186]
    dff0: 01 00 10 e3  	tst	r0, #1
    dff4: 02 00 00 0a  	beq	#8 <_ZN4core3fmt9Formatter12pad_integral17h6338b9e6c1af941fE+0x628>
    dff8: ff ff ff ea  	b	#-4 <_ZN4core3fmt9Formatter12pad_integral17h6338b9e6c1af941fE+0x620>
    dffc: 09 00 00 ea  	b	#36 <_ZN4core3fmt9Formatter12pad_integral17h6338b9e6c1af941fE+0x64c>
    e000: fe de ff e7  	trap
    e004: 80 20 9d e5  	ldr	r2, [sp, #128]
    e008: 84 10 9d e5  	ldr	r1, [sp, #132]
    e00c: 7c 30 9d e5  	ldr	r3, [sp, #124]
    e010: 18 00 93 e5  	ldr	r0, [r3, #24]
    e014: 1c 30 93 e5  	ldr	r3, [r3, #28]
    e018: 0c 30 93 e5  	ldr	r3, [r3, #12]
    e01c: 33 ff 2f e1  	blx	r3
    e020: 00 00 8d e5  	str	r0, [sp]
    e024: 03 00 00 ea  	b	#12 <_ZN4core3fmt9Formatter12pad_integral17h6338b9e6c1af941fE+0x65c>
    e028: c8 00 9f e5  	ldr	r0, [pc, #200]
    e02c: f4 f8 ff eb  	bl	#-7216 <_ZN153_$LT$core..result..Result$LT$T$C$F$GT$$u20$as$u20$core..ops..try_trait..FromResidual$LT$core..result..Result$LT$core..convert..Infallible$C$E$GT$$GT$$GT$13from_residual17h411b96776abd096cE>
    e030: 8f 00 cd e5  	strb	r0, [sp, #143]
    e034: 16 ff ff ea  	b	#-936 <_ZN4core3fmt9Formatter12pad_integral17h6338b9e6c1af941fE+0x2b8>
    e038: 00 00 9d e5  	ldr	r0, [sp]
    e03c: 01 00 00 e2  	and	r0, r0, #1
    e040: c1 f8 ff eb  	bl	#-7420 <_ZN79_$LT$core..result..Result$LT$T$C$E$GT$$u20$as$u20$core..ops..try_trait..Try$GT$6branch17hd1d9da8509624ae6E>
    e044: bb 00 cd e5  	strb	r0, [sp, #187]
    e048: ff ff ff ea  	b	#-4 <_ZN4core3fmt9Formatter12pad_integral17h6338b9e6c1af941fE+0x670>
    e04c: bb 00 dd e5  	ldrb	r0, [sp, #187]
    e050: 01 00 10 e3  	tst	r0, #1
    e054: 02 00 00 0a  	beq	#8 <_ZN4core3fmt9Formatter12pad_integral17h6338b9e6c1af941fE+0x688>
    e058: ff ff ff ea  	b	#-4 <_ZN4core3fmt9Formatter12pad_integral17h6338b9e6c1af941fE+0x680>
    e05c: 06 00 00 ea  	b	#24 <_ZN4core3fmt9Formatter12pad_integral17h6338b9e6c1af941fE+0x6a0>
    e060: fe de ff e7  	trap
    e064: 7c 20 9d e5  	ldr	r2, [sp, #124]
    e068: 08 10 9d e5  	ldr	r1, [sp, #8]
    e06c: 04 00 9d e5  	ldr	r0, [sp, #4]
    e070: 1b fe ff eb  	bl	#-1940 <_ZN4core3fmt11PostPadding5write17h749827b00c253280E>
    e074: 8f 00 cd e5  	strb	r0, [sp, #143]
    e078: 05 ff ff ea  	b	#-1004 <_ZN4core3fmt9Formatter12pad_integral17h6338b9e6c1af941fE+0x2b8>
    e07c: 78 00 9f e5  	ldr	r0, [pc, #120]
    e080: df f8 ff eb  	bl	#-7300 <_ZN153_$LT$core..result..Result$LT$T$C$F$GT$$u20$as$u20$core..ops..try_trait..FromResidual$LT$core..result..Result$LT$core..convert..Infallible$C$E$GT$$GT$$GT$13from_residual17h411b96776abd096cE>
    e084: 8f 00 cd e5  	strb	r0, [sp, #143]
    e088: 01 ff ff ea  	b	#-1020 <_ZN4core3fmt9Formatter12pad_integral17h6338b9e6c1af941fE+0x2b8>
    e08c: 50 00 9d e5  	ldr	r0, [sp, #80]
    e090: 01 00 00 e2  	and	r0, r0, #1
    e094: ac f8 ff eb  	bl	#-7504 <_ZN79_$LT$core..result..Result$LT$T$C$E$GT$$u20$as$u20$core..ops..try_trait..Try$GT$6branch17hd1d9da8509624ae6E>
    e098: a0 00 cd e5  	strb	r0, [sp, #160]
    e09c: ff ff ff ea  	b	#-4 <_ZN4core3fmt9Formatter12pad_integral17h6338b9e6c1af941fE+0x6c4>
    e0a0: a0 00 dd e5  	ldrb	r0, [sp, #160]
    e0a4: 01 00 10 e3  	tst	r0, #1
    e0a8: 02 00 00 0a  	beq	#8 <_ZN4core3fmt9Formatter12pad_integral17h6338b9e6c1af941fE+0x6dc>
    e0ac: ff ff ff ea  	b	#-4 <_ZN4core3fmt9Formatter12pad_integral17h6338b9e6c1af941fE+0x6d4>
    e0b0: 09 00 00 ea  	b	#36 <_ZN4core3fmt9Formatter12pad_integral17h6338b9e6c1af941fE+0x700>
    e0b4: fe de ff e7  	trap
    e0b8: 80 20 9d e5  	ldr	r2, [sp, #128]
    e0bc: 84 10 9d e5  	ldr	r1, [sp, #132]
    e0c0: 7c 30 9d e5  	ldr	r3, [sp, #124]
    e0c4: 18 00 93 e5  	ldr	r0, [r3, #24]
    e0c8: 1c 30 93 e5  	ldr	r3, [r3, #28]
    e0cc: 0c 30 93 e5  	ldr	r3, [r3, #12]
    e0d0: 33 ff 2f e1  	blx	r3
    e0d4: 8f 00 cd e5  	strb	r0, [sp, #143]
    e0d8: ed fe ff ea  	b	#-1100 <_ZN4core3fmt9Formatter12pad_integral17h6338b9e6c1af941fE+0x2b8>
    e0dc: 3c 00 9f e5  	ldr	r0, [pc, #60]
    e0e0: c7 f8 ff eb  	bl	#-7396 <_ZN153_$LT$core..result..Result$LT$T$C$F$GT$$u20$as$u20$core..ops..try_trait..FromResidual$LT$core..result..Result$LT$core..convert..Infallible$C$E$GT$$GT$$GT$13from_residual17h411b96776abd096cE>
    e0e4: 8f 00 cd e5  	strb	r0, [sp, #143]
    e0e8: e9 fe ff ea  	b	#-1116 <_ZN4core3fmt9Formatter12pad_integral17h6338b9e6c1af941fE+0x2b8>

0000e0ec <$d.1449>:
    e0ec:	00 52 01 00	.word	0x00015200
    e0f0:	68 5d 01 00	.word	0x00015d68
    e0f4:	f8 5d 01 00	.word	0x00015df8
    e0f8:	08 5e 01 00	.word	0x00015e08
    e0fc:	18 5e 01 00	.word	0x00015e18
    e100:	d0 51 01 00	.word	0x000151d0
    e104:	e8 5d 01 00	.word	0x00015de8
    e108:	98 5d 01 00	.word	0x00015d98
    e10c:	b8 5d 01 00	.word	0x00015db8
    e110:	c8 5d 01 00	.word	0x00015dc8
    e114:	d8 5d 01 00	.word	0x00015dd8
    e118:	a8 5d 01 00	.word	0x00015da8
    e11c:	88 5d 01 00	.word	0x00015d88
    e120:	28 5e 01 00	.word	0x00015e28
    e124:	78 5d 01 00	.word	0x00015d78
    e128:	58 5d 01 00	.word	0x00015d58

0000e12c <_ZN4core3fmt9Formatter12pad_integral12write_prefix17h1a1880509098b6f4E>:
    e12c: 00 48 2d e9  	push	{r11, lr}
    e130: 30 d0 4d e2  	sub	sp, sp, #48
    e134: 04 00 8d e5  	str	r0, [sp, #4]
    e138: 08 10 8d e5  	str	r1, [sp, #8]
    e13c: 0c 20 8d e5  	str	r2, [sp, #12]
    e140: 10 30 8d e5  	str	r3, [sp, #16]
    e144: 18 00 8d e5  	str	r0, [sp, #24]
    e148: 08 00 9d e5  	ldr	r0, [sp, #8]
    e14c: 11 08 50 e3  	cmp	r0, #1114112
    e150: 09 00 00 0a  	beq	#36 <_ZN4core3fmt9Formatter12pad_integral12write_prefix17h1a1880509098b6f4E+0x50>
    e154: ff ff ff ea  	b	#-4 <_ZN4core3fmt9Formatter12pad_integral12write_prefix17h1a1880509098b6f4E+0x2c>
    e158: 04 20 9d e5  	ldr	r2, [sp, #4]
    e15c: 08 10 9d e5  	ldr	r1, [sp, #8]
    e160: 24 10 8d e5  	str	r1, [sp, #36]
    e164: 18 00 92 e5  	ldr	r0, [r2, #24]
    e168: 1c 20 92 e5  	ldr	r2, [r2, #28]
    e16c: 10 20 92 e5  	ldr	r2, [r2, #16]
    e170: 32 ff 2f e1  	blx	r2
    e174: 00 00 8d e5  	str	r0, [sp]
    e178: 03 00 00 ea  	b	#12 <_ZN4core3fmt9Formatter12pad_integral12write_prefix17h1a1880509098b6f4E+0x60>
    e17c: 0c 00 9d e5  	ldr	r0, [sp, #12]
    e180: 00 00 50 e3  	cmp	r0, #0
    e184: 12 00 00 1a  	bne	#72 <_ZN4core3fmt9Formatter12pad_integral12write_prefix17h1a1880509098b6f4E+0xa8>
    e188: 1c 00 00 ea  	b	#112 <_ZN4core3fmt9Formatter12pad_integral12write_prefix17h1a1880509098b6f4E+0xd4>
    e18c: 00 00 9d e5  	ldr	r0, [sp]
    e190: 01 00 00 e2  	and	r0, r0, #1
    e194: 6c f8 ff eb  	bl	#-7760 <_ZN79_$LT$core..result..Result$LT$T$C$E$GT$$u20$as$u20$core..ops..try_trait..Try$GT$6branch17hd1d9da8509624ae6E>
    e198: 17 00 cd e5  	strb	r0, [sp, #23]
    e19c: ff ff ff ea  	b	#-4 <_ZN4core3fmt9Formatter12pad_integral12write_prefix17h1a1880509098b6f4E+0x74>
    e1a0: 17 00 dd e5  	ldrb	r0, [sp, #23]
    e1a4: 01 00 10 e3  	tst	r0, #1
    e1a8: f3 ff ff 0a  	beq	#-52 <_ZN4core3fmt9Formatter12pad_integral12write_prefix17h1a1880509098b6f4E+0x50>
    e1ac: ff ff ff ea  	b	#-4 <_ZN4core3fmt9Formatter12pad_integral12write_prefix17h1a1880509098b6f4E+0x84>
    e1b0: 00 00 00 ea  	b	#0 <_ZN4core3fmt9Formatter12pad_integral12write_prefix17h1a1880509098b6f4E+0x8c>
    e1b4: fe de ff e7  	trap
    e1b8: 4c 00 9f e5  	ldr	r0, [pc, #76]
    e1bc: 90 f8 ff eb  	bl	#-7616 <_ZN153_$LT$core..result..Result$LT$T$C$F$GT$$u20$as$u20$core..ops..try_trait..FromResidual$LT$core..result..Result$LT$core..convert..Infallible$C$E$GT$$GT$$GT$13from_residual17h411b96776abd096cE>
    e1c0: 16 00 cd e5  	strb	r0, [sp, #22]
    e1c4: ff ff ff ea  	b	#-4 <_ZN4core3fmt9Formatter12pad_integral12write_prefix17h1a1880509098b6f4E+0x9c>
    e1c8: 16 00 dd e5  	ldrb	r0, [sp, #22]
    e1cc: 30 d0 8d e2  	add	sp, sp, #48
    e1d0: 00 88 bd e8  	pop	{r11, pc}
    e1d4: 04 30 9d e5  	ldr	r3, [sp, #4]
    e1d8: 0c 10 9d e5  	ldr	r1, [sp, #12]
    e1dc: 10 20 9d e5  	ldr	r2, [sp, #16]
    e1e0: 28 10 8d e5  	str	r1, [sp, #40]
    e1e4: 2c 20 8d e5  	str	r2, [sp, #44]
    e1e8: 18 00 93 e5  	ldr	r0, [r3, #24]
    e1ec: 1c 30 93 e5  	ldr	r3, [r3, #28]
    e1f0: 0c 30 93 e5  	ldr	r3, [r3, #12]
    e1f4: 33 ff 2f e1  	blx	r3
    e1f8: 16 00 cd e5  	strb	r0, [sp, #22]
    e1fc: f1 ff ff ea  	b	#-60 <_ZN4core3fmt9Formatter12pad_integral12write_prefix17h1a1880509098b6f4E+0x9c>
    e200: 00 00 a0 e3  	mov	r0, #0
    e204: 16 00 cd e5  	strb	r0, [sp, #22]
    e208: ee ff ff ea  	b	#-72 <_ZN4core3fmt9Formatter12pad_integral12write_prefix17h1a1880509098b6f4E+0x9c>

0000e20c <$d.1451>:
    e20c:	38 5e 01 00	.word	0x00015e38

0000e210 <_ZN4core3fmt9Formatter3pad17hc7f31b5adf6d1223E>:
    e210: 00 48 2d e9  	push	{r11, lr}
    e214: b0 d0 4d e2  	sub	sp, sp, #176
    e218: 3c 00 8d e5  	str	r0, [sp, #60]
    e21c: 44 10 8d e5  	str	r1, [sp, #68]
    e220: 48 20 8d e5  	str	r2, [sp, #72]
    e224: 80 00 8d e5  	str	r0, [sp, #128]
    e228: 08 00 80 e2  	add	r0, r0, #8
    e22c: c4 f5 ff eb  	bl	#-10480 <_ZN4core6option15Option$LT$T$GT$7is_none17h9670b1d25feabbc1E>
    e230: 40 00 8d e5  	str	r0, [sp, #64]
    e234: ff ff ff ea  	b	#-4 <_ZN4core3fmt9Formatter3pad17hc7f31b5adf6d1223E+0x28>
    e238: 40 00 9d e5  	ldr	r0, [sp, #64]
    e23c: 01 00 10 e3  	tst	r0, #1
    e240: 03 00 00 1a  	bne	#12 <_ZN4core3fmt9Formatter3pad17hc7f31b5adf6d1223E+0x44>
    e244: ff ff ff ea  	b	#-4 <_ZN4core3fmt9Formatter3pad17hc7f31b5adf6d1223E+0x38>
    e248: 00 00 a0 e3  	mov	r0, #0
    e24c: 4f 00 cd e5  	strb	r0, [sp, #79]
    e250: 08 00 00 ea  	b	#32 <_ZN4core3fmt9Formatter3pad17hc7f31b5adf6d1223E+0x68>
    e254: 3c 00 9d e5  	ldr	r0, [sp, #60]
    e258: 10 00 80 e2  	add	r0, r0, #16
    e25c: b8 f5 ff eb  	bl	#-10528 <_ZN4core6option15Option$LT$T$GT$7is_none17h9670b1d25feabbc1E>
    e260: 38 00 8d e5  	str	r0, [sp, #56]
    e264: ff ff ff ea  	b	#-4 <_ZN4core3fmt9Formatter3pad17hc7f31b5adf6d1223E+0x58>
    e268: 38 00 9d e5  	ldr	r0, [sp, #56]
    e26c: 01 00 00 e2  	and	r0, r0, #1
    e270: 4f 00 cd e5  	strb	r0, [sp, #79]
    e274: ff ff ff ea  	b	#-4 <_ZN4core3fmt9Formatter3pad17hc7f31b5adf6d1223E+0x68>
    e278: 4f 00 dd e5  	ldrb	r0, [sp, #79]
    e27c: 01 00 10 e3  	tst	r0, #1
    e280: 05 00 00 1a  	bne	#20 <_ZN4core3fmt9Formatter3pad17hc7f31b5adf6d1223E+0x8c>
    e284: ff ff ff ea  	b	#-4 <_ZN4core3fmt9Formatter3pad17hc7f31b5adf6d1223E+0x78>
    e288: 3c 00 9d e5  	ldr	r0, [sp, #60]
    e28c: 10 00 90 e5  	ldr	r0, [r0, #16]
    e290: 01 00 50 e3  	cmp	r0, #1
    e294: 0c 00 00 0a  	beq	#48 <_ZN4core3fmt9Formatter3pad17hc7f31b5adf6d1223E+0xbc>
    e298: 14 00 00 ea  	b	#80 <_ZN4core3fmt9Formatter3pad17hc7f31b5adf6d1223E+0xe0>
    e29c: 3c 10 9d e5  	ldr	r1, [sp, #60]
    e2a0: 18 00 91 e5  	ldr	r0, [r1, #24]
    e2a4: 1c 30 91 e5  	ldr	r3, [r1, #28]
    e2a8: 44 10 9d e5  	ldr	r1, [sp, #68]
    e2ac: 48 20 9d e5  	ldr	r2, [sp, #72]
    e2b0: 0c 30 93 e5  	ldr	r3, [r3, #12]
    e2b4: 33 ff 2f e1  	blx	r3
    e2b8: 4e 00 cd e5  	strb	r0, [sp, #78]
    e2bc: ff ff ff ea  	b	#-4 <_ZN4core3fmt9Formatter3pad17hc7f31b5adf6d1223E+0xb0>
    e2c0: 4e 00 dd e5  	ldrb	r0, [sp, #78]
    e2c4: b0 d0 8d e2  	add	sp, sp, #176
    e2c8: 00 88 bd e8  	pop	{r11, pc}
    e2cc: 3c 00 9d e5  	ldr	r0, [sp, #60]
    e2d0: 14 00 90 e5  	ldr	r0, [r0, #20]
    e2d4: 34 00 8d e5  	str	r0, [sp, #52]
    e2d8: 90 00 8d e5  	str	r0, [sp, #144]
    e2dc: 44 10 9d e5  	ldr	r1, [sp, #68]
    e2e0: 48 20 9d e5  	ldr	r2, [sp, #72]
    e2e4: 60 00 8d e2  	add	r0, sp, #96
    e2e8: 58 0e 00 eb  	bl	#14688 <_ZN4core3str21_$LT$impl$u20$str$GT$12char_indices17hd69404982939c15bE>
    e2ec: 0a 00 00 ea  	b	#40 <_ZN4core3fmt9Formatter3pad17hc7f31b5adf6d1223E+0x10c>
    e2f0: 44 10 9d e5  	ldr	r1, [sp, #68]
    e2f4: 48 00 9d e5  	ldr	r0, [sp, #72]
    e2f8: 50 10 8d e5  	str	r1, [sp, #80]
    e2fc: 54 00 8d e5  	str	r0, [sp, #84]
    e300: ff ff ff ea  	b	#-4 <_ZN4core3fmt9Formatter3pad17hc7f31b5adf6d1223E+0xf4>
    e304: 3c 00 9d e5  	ldr	r0, [sp, #60]
    e308: 08 00 90 e5  	ldr	r0, [r0, #8]
    e30c: 00 00 50 e3  	cmp	r0, #0
    e310: 23 00 00 0a  	beq	#140 <_ZN4core3fmt9Formatter3pad17hc7f31b5adf6d1223E+0x194>
    e314: ff ff ff ea  	b	#-4 <_ZN4core3fmt9Formatter3pad17hc7f31b5adf6d1223E+0x108>
    e318: 2a 00 00 ea  	b	#168 <_ZN4core3fmt9Formatter3pad17hc7f31b5adf6d1223E+0x1b8>
    e31c: 34 10 9d e5  	ldr	r1, [sp, #52]
    e320: 60 00 8d e2  	add	r0, sp, #96
    e324: e1 f4 ff eb  	bl	#-11388 <_ZN4core4iter6traits8iterator8Iterator3nth17hdc2f8c5e43bea2abE>
    e328: 5c 10 8d e5  	str	r1, [sp, #92]
    e32c: 58 00 8d e5  	str	r0, [sp, #88]
    e330: ff ff ff ea  	b	#-4 <_ZN4core3fmt9Formatter3pad17hc7f31b5adf6d1223E+0x124>
    e334: 5c 00 9d e5  	ldr	r0, [sp, #92]
    e338: 11 08 50 e3  	cmp	r0, #1114112
    e33c: 0a 00 00 0a  	beq	#40 <_ZN4core3fmt9Formatter3pad17hc7f31b5adf6d1223E+0x15c>
    e340: ff ff ff ea  	b	#-4 <_ZN4core3fmt9Formatter3pad17hc7f31b5adf6d1223E+0x134>
    e344: 58 20 9d e5  	ldr	r2, [sp, #88]
    e348: 94 20 8d e5  	str	r2, [sp, #148]
    e34c: 44 00 9d e5  	ldr	r0, [sp, #68]
    e350: 48 10 9d e5  	ldr	r1, [sp, #72]
    e354: 6c 20 8d e5  	str	r2, [sp, #108]
    e358: 6c 20 9d e5  	ldr	r2, [sp, #108]
    e35c: 0f 0e 00 eb  	bl	#14396 <_ZN4core3str21_$LT$impl$u20$str$GT$3get17h1ffc82c8130656bdE>
    e360: 2c 00 8d e5  	str	r0, [sp, #44]
    e364: 30 10 8d e5  	str	r1, [sp, #48]
    e368: 04 00 00 ea  	b	#16 <_ZN4core3fmt9Formatter3pad17hc7f31b5adf6d1223E+0x170>
    e36c: 44 10 9d e5  	ldr	r1, [sp, #68]
    e370: 48 00 9d e5  	ldr	r0, [sp, #72]
    e374: 50 10 8d e5  	str	r1, [sp, #80]
    e378: 54 00 8d e5  	str	r0, [sp, #84]
    e37c: e0 ff ff ea  	b	#-128 <_ZN4core3fmt9Formatter3pad17hc7f31b5adf6d1223E+0xf4>
    e380: 30 10 9d e5  	ldr	r1, [sp, #48]
    e384: 2c 00 9d e5  	ldr	r0, [sp, #44]
    e388: 44 20 9d e5  	ldr	r2, [sp, #68]
    e38c: 48 30 9d e5  	ldr	r3, [sp, #72]
    e390: 9f f5 ff eb  	bl	#-10628 <_ZN4core6option15Option$LT$T$GT$9unwrap_or17h015ab340b13816d4E>
    e394: 54 10 8d e5  	str	r1, [sp, #84]
    e398: 50 00 8d e5  	str	r0, [sp, #80]
    e39c: d8 ff ff ea  	b	#-160 <_ZN4core3fmt9Formatter3pad17hc7f31b5adf6d1223E+0xf4>
    e3a0: fe de ff e7  	trap
    e3a4: 3c 10 9d e5  	ldr	r1, [sp, #60]
    e3a8: 18 00 91 e5  	ldr	r0, [r1, #24]
    e3ac: 1c 30 91 e5  	ldr	r3, [r1, #28]
    e3b0: 50 10 9d e5  	ldr	r1, [sp, #80]
    e3b4: 54 20 9d e5  	ldr	r2, [sp, #84]
    e3b8: 0c 30 93 e5  	ldr	r3, [r3, #12]
    e3bc: 33 ff 2f e1  	blx	r3
    e3c0: 4e 00 cd e5  	strb	r0, [sp, #78]
    e3c4: bd ff ff ea  	b	#-268 <_ZN4core3fmt9Formatter3pad17hc7f31b5adf6d1223E+0xb0>
    e3c8: 3c 00 9d e5  	ldr	r0, [sp, #60]
    e3cc: 0c 00 90 e5  	ldr	r0, [r0, #12]
    e3d0: 20 00 8d e5  	str	r0, [sp, #32]
    e3d4: 98 00 8d e5  	str	r0, [sp, #152]
    e3d8: 50 00 9d e5  	ldr	r0, [sp, #80]
    e3dc: 54 10 9d e5  	ldr	r1, [sp, #84]
    e3e0: ff 0d 00 eb  	bl	#14332 <_ZN4core3str21_$LT$impl$u20$str$GT$5chars17hbaf4cad00ce48caaE>
    e3e4: 24 00 8d e5  	str	r0, [sp, #36]
    e3e8: 28 10 8d e5  	str	r1, [sp, #40]
    e3ec: ff ff ff ea  	b	#-4 <_ZN4core3fmt9Formatter3pad17hc7f31b5adf6d1223E+0x1e0>
    e3f0: 28 10 9d e5  	ldr	r1, [sp, #40]
    e3f4: 24 00 9d e5  	ldr	r0, [sp, #36]
    e3f8: ef 0b 00 eb  	bl	#12220 <_ZN81_$LT$core..str..iter..Chars$u20$as$u20$core..iter..traits..iterator..Iterator$GT$5count17h42b30a58c777afecE>
    e3fc: 00 10 a0 e1  	mov	r1, r0
    e400: 1c 10 8d e5  	str	r1, [sp, #28]
    e404: 9c 00 8d e5  	str	r0, [sp, #156]
    e408: ff ff ff ea  	b	#-4 <_ZN4core3fmt9Formatter3pad17hc7f31b5adf6d1223E+0x1fc>
    e40c: 1c 00 9d e5  	ldr	r0, [sp, #28]
    e410: 20 10 9d e5  	ldr	r1, [sp, #32]
    e414: 01 00 50 e1  	cmp	r0, r1
    e418: 09 00 00 2a  	bhs	#36 <_ZN4core3fmt9Formatter3pad17hc7f31b5adf6d1223E+0x234>
    e41c: ff ff ff ea  	b	#-4 <_ZN4core3fmt9Formatter3pad17hc7f31b5adf6d1223E+0x210>
    e420: 20 00 9d e5  	ldr	r0, [sp, #32]
    e424: 1c 10 9d e5  	ldr	r1, [sp, #28]
    e428: 00 20 a0 e3  	mov	r2, #0
    e42c: 73 20 cd e5  	strb	r2, [sp, #115]
    e430: 01 20 40 e0  	sub	r2, r0, r1
    e434: 18 20 8d e5  	str	r2, [sp, #24]
    e438: 01 00 50 e1  	cmp	r0, r1
    e43c: 10 00 00 3a  	blo	#64 <_ZN4core3fmt9Formatter3pad17hc7f31b5adf6d1223E+0x274>
    e440: 08 00 00 ea  	b	#32 <_ZN4core3fmt9Formatter3pad17hc7f31b5adf6d1223E+0x258>
    e444: 3c 10 9d e5  	ldr	r1, [sp, #60]
    e448: 18 00 91 e5  	ldr	r0, [r1, #24]
    e44c: 1c 30 91 e5  	ldr	r3, [r1, #28]
    e450: 50 10 9d e5  	ldr	r1, [sp, #80]
    e454: 54 20 9d e5  	ldr	r2, [sp, #84]
    e458: 0c 30 93 e5  	ldr	r3, [r3, #12]
    e45c: 33 ff 2f e1  	blx	r3
    e460: 4e 00 cd e5  	strb	r0, [sp, #78]
    e464: 95 ff ff ea  	b	#-428 <_ZN4core3fmt9Formatter3pad17hc7f31b5adf6d1223E+0xb0>
    e468: 18 10 9d e5  	ldr	r1, [sp, #24]
    e46c: 3c 00 9d e5  	ldr	r0, [sp, #60]
    e470: 73 20 dd e5  	ldrb	r2, [sp, #115]
    e474: 44 00 00 eb  	bl	#272 <_ZN4core3fmt9Formatter7padding17h5b11df4d9ea5f2b3E>
    e478: 10 00 8d e5  	str	r0, [sp, #16]
    e47c: 14 10 8d e5  	str	r1, [sp, #20]
    e480: 04 00 00 ea  	b	#16 <_ZN4core3fmt9Formatter3pad17hc7f31b5adf6d1223E+0x288>
    e484: f8 00 9f e5  	ldr	r0, [pc, #248]
    e488: f8 20 9f e5  	ldr	r2, [pc, #248]
    e48c: 21 10 a0 e3  	mov	r1, #33
    e490: 87 f6 ff eb  	bl	#-9700 <_ZN4core9panicking5panic17h70f755644c6683e5E>
    e494: fe de ff e7  	trap
    e498: 14 10 9d e5  	ldr	r1, [sp, #20]
    e49c: 10 00 9d e5  	ldr	r0, [sp, #16]
    e4a0: ba f7 ff eb  	bl	#-8472 <_ZN79_$LT$core..result..Result$LT$T$C$E$GT$$u20$as$u20$core..ops..try_trait..Try$GT$6branch17hec82a34d0273634fE>
    e4a4: 78 10 8d e5  	str	r1, [sp, #120]
    e4a8: 74 00 8d e5  	str	r0, [sp, #116]
    e4ac: ff ff ff ea  	b	#-4 <_ZN4core3fmt9Formatter3pad17hc7f31b5adf6d1223E+0x2a0>
    e4b0: 74 00 9d e5  	ldr	r0, [sp, #116]
    e4b4: 11 18 40 e2  	sub	r1, r0, #1114112
    e4b8: 11 1f 6f e1  	clz	r1, r1
    e4bc: a1 12 a0 e1  	lsr	r1, r1, #5
    e4c0: 11 08 50 e3  	cmp	r0, #1114112
    e4c4: 02 00 00 1a  	bne	#8 <_ZN4core3fmt9Formatter3pad17hc7f31b5adf6d1223E+0x2c4>
    e4c8: ff ff ff ea  	b	#-4 <_ZN4core3fmt9Formatter3pad17hc7f31b5adf6d1223E+0x2bc>
    e4cc: 11 00 00 ea  	b	#68 <_ZN4core3fmt9Formatter3pad17hc7f31b5adf6d1223E+0x308>
    e4d0: fe de ff e7  	trap
    e4d4: 3c 10 9d e5  	ldr	r1, [sp, #60]
    e4d8: 74 20 9d e5  	ldr	r2, [sp, #116]
    e4dc: 04 20 8d e5  	str	r2, [sp, #4]
    e4e0: 78 00 9d e5  	ldr	r0, [sp, #120]
    e4e4: 08 00 8d e5  	str	r0, [sp, #8]
    e4e8: a0 20 8d e5  	str	r2, [sp, #160]
    e4ec: a4 00 8d e5  	str	r0, [sp, #164]
    e4f0: a8 20 8d e5  	str	r2, [sp, #168]
    e4f4: ac 00 8d e5  	str	r0, [sp, #172]
    e4f8: 18 00 91 e5  	ldr	r0, [r1, #24]
    e4fc: 1c 30 91 e5  	ldr	r3, [r1, #28]
    e500: 50 10 9d e5  	ldr	r1, [sp, #80]
    e504: 54 20 9d e5  	ldr	r2, [sp, #84]
    e508: 0c 30 93 e5  	ldr	r3, [r3, #12]
    e50c: 33 ff 2f e1  	blx	r3
    e510: 0c 00 8d e5  	str	r0, [sp, #12]
    e514: 03 00 00 ea  	b	#12 <_ZN4core3fmt9Formatter3pad17hc7f31b5adf6d1223E+0x318>
    e518: 5c 00 9f e5  	ldr	r0, [pc, #92]
    e51c: b8 f7 ff eb  	bl	#-8480 <_ZN153_$LT$core..result..Result$LT$T$C$F$GT$$u20$as$u20$core..ops..try_trait..FromResidual$LT$core..result..Result$LT$core..convert..Infallible$C$E$GT$$GT$$GT$13from_residual17h411b96776abd096cE>
    e520: 4e 00 cd e5  	strb	r0, [sp, #78]
    e524: 65 ff ff ea  	b	#-620 <_ZN4core3fmt9Formatter3pad17hc7f31b5adf6d1223E+0xb0>
    e528: 0c 00 9d e5  	ldr	r0, [sp, #12]
    e52c: 01 00 00 e2  	and	r0, r0, #1
    e530: 85 f7 ff eb  	bl	#-8684 <_ZN79_$LT$core..result..Result$LT$T$C$E$GT$$u20$as$u20$core..ops..try_trait..Try$GT$6branch17hd1d9da8509624ae6E>
    e534: 7f 00 cd e5  	strb	r0, [sp, #127]
    e538: ff ff ff ea  	b	#-4 <_ZN4core3fmt9Formatter3pad17hc7f31b5adf6d1223E+0x32c>
    e53c: 7f 00 dd e5  	ldrb	r0, [sp, #127]
    e540: 01 00 10 e3  	tst	r0, #1
    e544: 02 00 00 0a  	beq	#8 <_ZN4core3fmt9Formatter3pad17hc7f31b5adf6d1223E+0x344>
    e548: ff ff ff ea  	b	#-4 <_ZN4core3fmt9Formatter3pad17hc7f31b5adf6d1223E+0x33c>
    e54c: 06 00 00 ea  	b	#24 <_ZN4core3fmt9Formatter3pad17hc7f31b5adf6d1223E+0x35c>
    e550: fe de ff e7  	trap
    e554: 3c 20 9d e5  	ldr	r2, [sp, #60]
    e558: 08 10 9d e5  	ldr	r1, [sp, #8]
    e55c: 04 00 9d e5  	ldr	r0, [sp, #4]
    e560: df fc ff eb  	bl	#-3204 <_ZN4core3fmt11PostPadding5write17h749827b00c253280E>
    e564: 4e 00 cd e5  	strb	r0, [sp, #78]
    e568: 54 ff ff ea  	b	#-688 <_ZN4core3fmt9Formatter3pad17hc7f31b5adf6d1223E+0xb0>
    e56c: 0c 00 9f e5  	ldr	r0, [pc, #12]
    e570: a3 f7 ff eb  	bl	#-8564 <_ZN153_$LT$core..result..Result$LT$T$C$F$GT$$u20$as$u20$core..ops..try_trait..FromResidual$LT$core..result..Result$LT$core..convert..Infallible$C$E$GT$$GT$$GT$13from_residual17h411b96776abd096cE>
    e574: 4e 00 cd e5  	strb	r0, [sp, #78]
    e578: 50 ff ff ea  	b	#-704 <_ZN4core3fmt9Formatter3pad17hc7f31b5adf6d1223E+0xb0>

0000e57c <$d.1453>:
    e57c:	58 5e 01 00	.word	0x00015e58
    e580:	68 5e 01 00	.word	0x00015e68
    e584:	d0 51 01 00	.word	0x000151d0
    e588:	48 5e 01 00	.word	0x00015e48

0000e58c <_ZN4core3fmt9Formatter7padding17h5b11df4d9ea5f2b3E>:
    e58c: 00 48 2d e9  	push	{r11, lr}
    e590: 80 d0 4d e2  	sub	sp, sp, #128
    e594: 28 10 8d e5  	str	r1, [sp, #40]
    e598: 2c 00 8d e5  	str	r0, [sp, #44]
    e59c: 02 30 a0 e1  	mov	r3, r2
    e5a0: 30 30 8d e5  	str	r3, [sp, #48]
    e5a4: 64 00 8d e5  	str	r0, [sp, #100]
    e5a8: 68 10 8d e5  	str	r1, [sp, #104]
    e5ac: 6f 20 cd e5  	strb	r2, [sp, #111]
    e5b0: 20 00 d0 e5  	ldrb	r0, [r0, #32]
    e5b4: 03 00 50 e3  	cmp	r0, #3
    e5b8: 03 00 00 1a  	bne	#12 <_ZN4core3fmt9Formatter7padding17h5b11df4d9ea5f2b3E+0x40>
    e5bc: ff ff ff ea  	b	#-4 <_ZN4core3fmt9Formatter7padding17h5b11df4d9ea5f2b3E+0x34>
    e5c0: 30 00 9d e5  	ldr	r0, [sp, #48]
    e5c4: 3f 00 cd e5  	strb	r0, [sp, #63]
    e5c8: 03 00 00 ea  	b	#12 <_ZN4core3fmt9Formatter7padding17h5b11df4d9ea5f2b3E+0x50>
    e5cc: 2c 00 9d e5  	ldr	r0, [sp, #44]
    e5d0: 20 00 d0 e5  	ldrb	r0, [r0, #32]
    e5d4: 3f 00 cd e5  	strb	r0, [sp, #63]
    e5d8: ff ff ff ea  	b	#-4 <_ZN4core3fmt9Formatter7padding17h5b11df4d9ea5f2b3E+0x50>
    e5dc: 3f 00 dd e5  	ldrb	r0, [sp, #63]
    e5e0: 24 00 8d e5  	str	r0, [sp, #36]
    e5e4: 24 10 9d e5  	ldr	r1, [sp, #36]
    e5e8: 04 00 8f e2  	add	r0, pc, #4
    e5ec: 01 01 90 e7  	ldr	r0, [r0, r1, lsl #2]
    e5f0: 00 f0 a0 e1  	mov	pc, r0

0000e5f4 <$d.1455>:
    e5f4:	08 e6 00 00	.word	0x0000e608
    e5f8:	1c e6 00 00	.word	0x0000e61c
    e5fc:	30 e6 00 00	.word	0x0000e630
    e600:	1c e6 00 00	.word	0x0000e61c

0000e604 <$a.1456>:
    e604: fe de ff e7  	trap
    e608: 28 00 9d e5  	ldr	r0, [sp, #40]
    e60c: 00 10 a0 e3  	mov	r1, #0
    e610: 40 10 8d e5  	str	r1, [sp, #64]
    e614: 44 00 8d e5  	str	r0, [sp, #68]
    e618: 17 00 00 ea  	b	#92 <$a.1456+0x78>
    e61c: 28 00 9d e5  	ldr	r0, [sp, #40]
    e620: 40 00 8d e5  	str	r0, [sp, #64]
    e624: 00 00 a0 e3  	mov	r0, #0
    e628: 44 00 8d e5  	str	r0, [sp, #68]
    e62c: 12 00 00 ea  	b	#72 <$a.1456+0x78>
    e630: 28 10 9d e5  	ldr	r1, [sp, #40]
    e634: a1 00 a0 e1  	lsr	r0, r1, #1
    e638: 1c 00 8d e5  	str	r0, [sp, #28]
    e63c: 01 00 81 e2  	add	r0, r1, #1
    e640: 20 00 8d e5  	str	r0, [sp, #32]
    e644: 01 00 50 e1  	cmp	r0, r1
    e648: 06 00 00 3a  	blo	#24 <$a.1456+0x64>
    e64c: ff ff ff ea  	b	#-4 <$a.1456+0x4c>
    e650: 1c 10 9d e5  	ldr	r1, [sp, #28]
    e654: 20 00 9d e5  	ldr	r0, [sp, #32]
    e658: a0 00 a0 e1  	lsr	r0, r0, #1
    e65c: 40 10 8d e5  	str	r1, [sp, #64]
    e660: 44 00 8d e5  	str	r0, [sp, #68]
    e664: 04 00 00 ea  	b	#16 <$a.1456+0x78>
    e668: 24 01 9f e5  	ldr	r0, [pc, #292]
    e66c: 24 21 9f e5  	ldr	r2, [pc, #292]
    e670: 1c 10 a0 e3  	mov	r1, #28
    e674: 0e f6 ff eb  	bl	#-10184 <_ZN4core9panicking5panic17h70f755644c6683e5E>
    e678: fe de ff e7  	trap
    e67c: 40 00 9d e5  	ldr	r0, [sp, #64]
    e680: 78 00 8d e5  	str	r0, [sp, #120]
    e684: 44 10 9d e5  	ldr	r1, [sp, #68]
    e688: 10 10 8d e5  	str	r1, [sp, #16]
    e68c: 7c 10 8d e5  	str	r1, [sp, #124]
    e690: 00 10 a0 e3  	mov	r1, #0
    e694: 48 10 8d e5  	str	r1, [sp, #72]
    e698: 4c 00 8d e5  	str	r0, [sp, #76]
    e69c: 48 00 9d e5  	ldr	r0, [sp, #72]
    e6a0: 4c 10 9d e5  	ldr	r1, [sp, #76]
    e6a4: 9b f3 ff eb  	bl	#-12692 <_ZN63_$LT$I$u20$as$u20$core..iter..traits..collect..IntoIterator$GT$9into_iter17ha824f1c680dbc5d5E>
    e6a8: 14 00 8d e5  	str	r0, [sp, #20]
    e6ac: 18 10 8d e5  	str	r1, [sp, #24]
    e6b0: ff ff ff ea  	b	#-4 <$a.1456+0xb0>
    e6b4: 18 00 9d e5  	ldr	r0, [sp, #24]
    e6b8: 14 10 9d e5  	ldr	r1, [sp, #20]
    e6bc: 50 10 8d e5  	str	r1, [sp, #80]
    e6c0: 54 00 8d e5  	str	r0, [sp, #84]
    e6c4: ff ff ff ea  	b	#-4 <$a.1456+0xc4>
    e6c8: 50 00 8d e2  	add	r0, sp, #80
    e6cc: 7d f3 ff eb  	bl	#-12812 <_ZN4core4iter5range101_$LT$impl$u20$core..iter..traits..iterator..Iterator$u20$for$u20$core..ops..range..Range$LT$A$GT$$GT$4next17h679e961ab2e050c2E>
    e6d0: 5c 10 8d e5  	str	r1, [sp, #92]
    e6d4: 58 00 8d e5  	str	r0, [sp, #88]
    e6d8: ff ff ff ea  	b	#-4 <$a.1456+0xd8>
    e6dc: 58 00 9d e5  	ldr	r0, [sp, #88]
    e6e0: 00 00 50 e3  	cmp	r0, #0
    e6e4: 02 00 00 0a  	beq	#8 <$a.1456+0xf0>
    e6e8: ff ff ff ea  	b	#-4 <$a.1456+0xe8>
    e6ec: 07 00 00 ea  	b	#28 <$a.1456+0x10c>
    e6f0: fe de ff e7  	trap
    e6f4: 10 10 9d e5  	ldr	r1, [sp, #16]
    e6f8: 2c 00 9d e5  	ldr	r0, [sp, #44]
    e6fc: 04 00 90 e5  	ldr	r0, [r0, #4]
    e700: 6e fc ff eb  	bl	#-3656 <_ZN4core3fmt11PostPadding3new17hd707ba2e2f281ce5E>
    e704: 08 00 8d e5  	str	r0, [sp, #8]
    e708: 0c 10 8d e5  	str	r1, [sp, #12]
    e70c: 1b 00 00 ea  	b	#108 <$a.1456+0x17c>
    e710: 2c 20 9d e5  	ldr	r2, [sp, #44]
    e714: 04 10 92 e5  	ldr	r1, [r2, #4]
    e718: 18 00 92 e5  	ldr	r0, [r2, #24]
    e71c: 1c 20 92 e5  	ldr	r2, [r2, #28]
    e720: 10 20 92 e5  	ldr	r2, [r2, #16]
    e724: 32 ff 2f e1  	blx	r2
    e728: 04 00 8d e5  	str	r0, [sp, #4]
    e72c: ff ff ff ea  	b	#-4 <$a.1456+0x12c>
    e730: 04 00 9d e5  	ldr	r0, [sp, #4]
    e734: 01 00 00 e2  	and	r0, r0, #1
    e738: 03 f7 ff eb  	bl	#-9204 <_ZN79_$LT$core..result..Result$LT$T$C$E$GT$$u20$as$u20$core..ops..try_trait..Try$GT$6branch17hd1d9da8509624ae6E>
    e73c: 63 00 cd e5  	strb	r0, [sp, #99]
    e740: ff ff ff ea  	b	#-4 <$a.1456+0x140>
    e744: 63 00 dd e5  	ldrb	r0, [sp, #99]
    e748: 01 00 10 e3  	tst	r0, #1
    e74c: dd ff ff 0a  	beq	#-140 <$a.1456+0xc4>
    e750: ff ff ff ea  	b	#-4 <$a.1456+0x150>
    e754: 00 00 00 ea  	b	#0 <$a.1456+0x158>
    e758: fe de ff e7  	trap
    e75c: 38 00 9f e5  	ldr	r0, [pc, #56]
    e760: 30 f7 ff eb  	bl	#-9024 <_ZN153_$LT$core..result..Result$LT$T$C$F$GT$$u20$as$u20$core..ops..try_trait..FromResidual$LT$core..result..Result$LT$core..convert..Infallible$C$E$GT$$GT$$GT$13from_residual17h54991ea20b922efbE>
    e764: 38 10 8d e5  	str	r1, [sp, #56]
    e768: 34 00 8d e5  	str	r0, [sp, #52]
    e76c: ff ff ff ea  	b	#-4 <$a.1456+0x16c>
    e770: 34 00 9d e5  	ldr	r0, [sp, #52]
    e774: 38 10 9d e5  	ldr	r1, [sp, #56]
    e778: 80 d0 8d e2  	add	sp, sp, #128
    e77c: 00 88 bd e8  	pop	{r11, pc}
    e780: 0c 00 9d e5  	ldr	r0, [sp, #12]
    e784: 08 10 9d e5  	ldr	r1, [sp, #8]
    e788: 34 10 8d e5  	str	r1, [sp, #52]
    e78c: 38 00 8d e5  	str	r0, [sp, #56]
    e790: f6 ff ff ea  	b	#-40 <$a.1456+0x16c>

0000e794 <$d.1457>:
    e794:	00 52 01 00	.word	0x00015200
    e798:	78 5e 01 00	.word	0x00015e78
    e79c:	88 5e 01 00	.word	0x00015e88

0000e7a0 <_ZN4core3fmt9Formatter9sign_plus17h65de438d1db4ba18E>:
    e7a0: 04 d0 4d e2  	sub	sp, sp, #4
    e7a4: 00 00 8d e5  	str	r0, [sp]
    e7a8: 00 00 90 e5  	ldr	r0, [r0]
    e7ac: 01 00 00 e2  	and	r0, r0, #1
    e7b0: 04 d0 8d e2  	add	sp, sp, #4
    e7b4: 1e ff 2f e1  	bx	lr

0000e7b8 <_ZN4core3fmt9Formatter9alternate17h4c2d8fc96ccfb258E>:
    e7b8: 04 d0 4d e2  	sub	sp, sp, #4
    e7bc: 00 00 8d e5  	str	r0, [sp]
    e7c0: 00 00 d0 e5  	ldrb	r0, [r0]
    e7c4: 04 00 00 e2  	and	r0, r0, #4
    e7c8: 20 01 a0 e1  	lsr	r0, r0, #2
    e7cc: 04 d0 8d e2  	add	sp, sp, #4
    e7d0: 1e ff 2f e1  	bx	lr

0000e7d4 <_ZN4core3fmt9Formatter19sign_aware_zero_pad17h4ecf0a4eb12c0453E>:
    e7d4: 04 d0 4d e2  	sub	sp, sp, #4
    e7d8: 00 00 8d e5  	str	r0, [sp]
    e7dc: 00 00 d0 e5  	ldrb	r0, [r0]
    e7e0: 08 00 00 e2  	and	r0, r0, #8
    e7e4: a0 01 a0 e1  	lsr	r0, r0, #3
    e7e8: 04 d0 8d e2  	add	sp, sp, #4
    e7ec: 1e ff 2f e1  	bx	lr

0000e7f0 <_ZN4core3fmt9Formatter15debug_lower_hex17hc7b3d5e43f482770E>:
    e7f0: 04 d0 4d e2  	sub	sp, sp, #4
    e7f4: 00 00 8d e5  	str	r0, [sp]
    e7f8: 00 00 d0 e5  	ldrb	r0, [r0]
    e7fc: 10 00 00 e2  	and	r0, r0, #16
    e800: 20 02 a0 e1  	lsr	r0, r0, #4
    e804: 04 d0 8d e2  	add	sp, sp, #4
    e808: 1e ff 2f e1  	bx	lr

0000e80c <_ZN4core3fmt9Formatter15debug_upper_hex17hda32311426943d1cE>:
    e80c: 04 d0 4d e2  	sub	sp, sp, #4
    e810: 00 00 8d e5  	str	r0, [sp]
    e814: 00 00 d0 e5  	ldrb	r0, [r0]
    e818: 20 00 00 e2  	and	r0, r0, #32
    e81c: a0 02 a0 e1  	lsr	r0, r0, #5
    e820: 04 d0 8d e2  	add	sp, sp, #4
    e824: 1e ff 2f e1  	bx	lr

0000e828 <_ZN42_$LT$str$u20$as$u20$core..fmt..Display$GT$3fmt17h85349bd7c20fb183E>:
    e828: 00 48 2d e9  	push	{r11, lr}
    e82c: 18 d0 4d e2  	sub	sp, sp, #24
    e830: 04 20 8d e5  	str	r2, [sp, #4]
    e834: 01 20 a0 e1  	mov	r2, r1
    e838: 00 10 a0 e1  	mov	r1, r0
    e83c: 04 00 9d e5  	ldr	r0, [sp, #4]
    e840: 0c 10 8d e5  	str	r1, [sp, #12]
    e844: 10 20 8d e5  	str	r2, [sp, #16]
    e848: 14 00 8d e5  	str	r0, [sp, #20]
    e84c: 6f fe ff eb  	bl	#-1604 <_ZN4core3fmt9Formatter3pad17hc7f31b5adf6d1223E>
    e850: 08 00 8d e5  	str	r0, [sp, #8]
    e854: ff ff ff ea  	b	#-4 <_ZN42_$LT$str$u20$as$u20$core..fmt..Display$GT$3fmt17h85349bd7c20fb183E+0x30>
    e858: 08 00 9d e5  	ldr	r0, [sp, #8]
    e85c: 01 00 00 e2  	and	r0, r0, #1
    e860: 18 d0 8d e2  	add	sp, sp, #24
    e864: 00 88 bd e8  	pop	{r11, pc}

0000e868 <_ZN4core5slice5index74_$LT$impl$u20$core..ops..index..Index$LT$I$GT$$u20$for$u20$$u5b$T$u5d$$GT$5index17h4b1d96a87e06c058E>:
    e868: 00 48 2d e9  	push	{r11, lr}
    e86c: 18 d0 4d e2  	sub	sp, sp, #24
    e870: 00 20 8d e5  	str	r2, [sp]
    e874: 01 20 a0 e1  	mov	r2, r1
    e878: 00 10 a0 e1  	mov	r1, r0
    e87c: 00 00 9d e5  	ldr	r0, [sp]
    e880: 0c 10 8d e5  	str	r1, [sp, #12]
    e884: 10 20 8d e5  	str	r2, [sp, #16]
    e888: 14 00 8d e5  	str	r0, [sp, #20]
    e88c: d5 01 00 eb  	bl	#1876 <_ZN110_$LT$core..ops..range..RangeFrom$LT$usize$GT$$u20$as$u20$core..slice..index..SliceIndex$LT$$u5b$T$u5d$$GT$$GT$5index17h7a8182a2d82a4709E>
    e890: 04 00 8d e5  	str	r0, [sp, #4]
    e894: 08 10 8d e5  	str	r1, [sp, #8]
    e898: ff ff ff ea  	b	#-4 <_ZN4core5slice5index74_$LT$impl$u20$core..ops..index..Index$LT$I$GT$$u20$for$u20$$u5b$T$u5d$$GT$5index17h4b1d96a87e06c058E+0x34>
    e89c: 08 10 9d e5  	ldr	r1, [sp, #8]
    e8a0: 04 00 9d e5  	ldr	r0, [sp, #4]
    e8a4: 18 d0 8d e2  	add	sp, sp, #24
    e8a8: 00 88 bd e8  	pop	{r11, pc}

0000e8ac <_ZN4core5slice5index26slice_start_index_len_fail17hb5f5521c28632d81E>:
    e8ac: 48 d0 4d e2  	sub	sp, sp, #72
    e8b0: 0c 20 8d e5  	str	r2, [sp, #12]
    e8b4: 18 00 8d e5  	str	r0, [sp, #24]
    e8b8: 1c 10 8d e5  	str	r1, [sp, #28]
    e8bc: 18 00 8d e2  	add	r0, sp, #24
    e8c0: 25 11 00 eb  	bl	#17556 <_ZN4core3fmt10ArgumentV111new_display17h62eda62979a94284E>
    e8c4: 10 00 8d e5  	str	r0, [sp, #16]
    e8c8: 14 10 8d e5  	str	r1, [sp, #20]
    e8cc: ff ff ff ea  	b	#-4 <_ZN4core5slice5index26slice_start_index_len_fail17hb5f5521c28632d81E+0x24>
    e8d0: 1c 00 8d e2  	add	r0, sp, #28
    e8d4: 20 11 00 eb  	bl	#17536 <_ZN4core3fmt10ArgumentV111new_display17h62eda62979a94284E>
    e8d8: 04 00 8d e5  	str	r0, [sp, #4]
    e8dc: 08 10 8d e5  	str	r1, [sp, #8]
    e8e0: ff ff ff ea  	b	#-4 <_ZN4core5slice5index26slice_start_index_len_fail17hb5f5521c28632d81E+0x38>
    e8e4: 08 00 9d e5  	ldr	r0, [sp, #8]
    e8e8: 04 10 9d e5  	ldr	r1, [sp, #4]
    e8ec: 14 20 9d e5  	ldr	r2, [sp, #20]
    e8f0: 10 30 9d e5  	ldr	r3, [sp, #16]
    e8f4: 38 30 8d e5  	str	r3, [sp, #56]
    e8f8: 3c 20 8d e5  	str	r2, [sp, #60]
    e8fc: 40 10 8d e5  	str	r1, [sp, #64]
    e900: 44 00 8d e5  	str	r0, [sp, #68]
    e904: 0d 00 a0 e1  	mov	r0, sp
    e908: 02 20 a0 e3  	mov	r2, #2
    e90c: 00 20 80 e5  	str	r2, [r0]
    e910: 1c 10 9f e5  	ldr	r1, [pc, #28]
    e914: 20 00 8d e2  	add	r0, sp, #32
    e918: 38 30 8d e2  	add	r3, sp, #56
    e91c: c6 f9 ff eb  	bl	#-6376 <_ZN4core3fmt9Arguments6new_v117hd47ebd6f67dc7416E>
    e920: ff ff ff ea  	b	#-4 <_ZN4core5slice5index26slice_start_index_len_fail17hb5f5521c28632d81E+0x78>
    e924: 0c 10 9d e5  	ldr	r1, [sp, #12]
    e928: 20 00 8d e2  	add	r0, sp, #32
    e92c: 97 f5 ff eb  	bl	#-10660 <_ZN4core9panicking9panic_fmt17h22cd6c9efa5fe474E>
    e930: fe de ff e7  	trap

0000e934 <$d.1566>:
    e934:	cc 5e 01 00	.word	0x00015ecc

0000e938 <_ZN75_$LT$usize$u20$as$u20$core..slice..index..SliceIndex$LT$$u5b$T$u5d$$GT$$GT$3get17h58700fb2e56bcbd1E>:
    e938: 00 48 2d e9  	push	{r11, lr}
    e93c: 20 d0 4d e2  	sub	sp, sp, #32
    e940: 04 20 8d e5  	str	r2, [sp, #4]
    e944: 08 10 8d e5  	str	r1, [sp, #8]
    e948: 0c 00 8d e5  	str	r0, [sp, #12]
    e94c: 14 00 8d e5  	str	r0, [sp, #20]
    e950: 18 10 8d e5  	str	r1, [sp, #24]
    e954: 1c 20 8d e5  	str	r2, [sp, #28]
    e958: 02 00 50 e1  	cmp	r0, r2
    e95c: 03 00 00 3a  	blo	#12 <_ZN75_$LT$usize$u20$as$u20$core..slice..index..SliceIndex$LT$$u5b$T$u5d$$GT$$GT$3get17h58700fb2e56bcbd1E+0x38>
    e960: ff ff ff ea  	b	#-4 <_ZN75_$LT$usize$u20$as$u20$core..slice..index..SliceIndex$LT$$u5b$T$u5d$$GT$$GT$3get17h58700fb2e56bcbd1E+0x2c>
    e964: 00 00 a0 e3  	mov	r0, #0
    e968: 10 00 8d e5  	str	r0, [sp, #16]
    e96c: 08 00 00 ea  	b	#32 <_ZN75_$LT$usize$u20$as$u20$core..slice..index..SliceIndex$LT$$u5b$T$u5d$$GT$$GT$3get17h58700fb2e56bcbd1E+0x5c>
    e970: 04 20 9d e5  	ldr	r2, [sp, #4]
    e974: 08 10 9d e5  	ldr	r1, [sp, #8]
    e978: 0c 00 9d e5  	ldr	r0, [sp, #12]
    e97c: 3e 00 00 eb  	bl	#248 <_ZN75_$LT$usize$u20$as$u20$core..slice..index..SliceIndex$LT$$u5b$T$u5d$$GT$$GT$13get_unchecked17h63bf3b62c6d08f31E>
    e980: 00 00 8d e5  	str	r0, [sp]
    e984: ff ff ff ea  	b	#-4 <_ZN75_$LT$usize$u20$as$u20$core..slice..index..SliceIndex$LT$$u5b$T$u5d$$GT$$GT$3get17h58700fb2e56bcbd1E+0x50>
    e988: 00 00 9d e5  	ldr	r0, [sp]
    e98c: 10 00 8d e5  	str	r0, [sp, #16]
    e990: ff ff ff ea  	b	#-4 <_ZN75_$LT$usize$u20$as$u20$core..slice..index..SliceIndex$LT$$u5b$T$u5d$$GT$$GT$3get17h58700fb2e56bcbd1E+0x5c>
    e994: 10 00 9d e5  	ldr	r0, [sp, #16]
    e998: 20 d0 8d e2  	add	sp, sp, #32
    e99c: 00 88 bd e8  	pop	{r11, pc}

0000e9a0 <_ZN75_$LT$usize$u20$as$u20$core..slice..index..SliceIndex$LT$$u5b$T$u5d$$GT$$GT$3get17h5df82707e94e479aE>:
    e9a0: 00 48 2d e9  	push	{r11, lr}
    e9a4: 20 d0 4d e2  	sub	sp, sp, #32
    e9a8: 04 20 8d e5  	str	r2, [sp, #4]
    e9ac: 08 10 8d e5  	str	r1, [sp, #8]
    e9b0: 0c 00 8d e5  	str	r0, [sp, #12]
    e9b4: 14 00 8d e5  	str	r0, [sp, #20]
    e9b8: 18 10 8d e5  	str	r1, [sp, #24]
    e9bc: 1c 20 8d e5  	str	r2, [sp, #28]
    e9c0: 02 00 50 e1  	cmp	r0, r2
    e9c4: 03 00 00 3a  	blo	#12 <_ZN75_$LT$usize$u20$as$u20$core..slice..index..SliceIndex$LT$$u5b$T$u5d$$GT$$GT$3get17h5df82707e94e479aE+0x38>
    e9c8: ff ff ff ea  	b	#-4 <_ZN75_$LT$usize$u20$as$u20$core..slice..index..SliceIndex$LT$$u5b$T$u5d$$GT$$GT$3get17h5df82707e94e479aE+0x2c>
    e9cc: 00 00 a0 e3  	mov	r0, #0
    e9d0: 10 00 8d e5  	str	r0, [sp, #16]
    e9d4: 08 00 00 ea  	b	#32 <_ZN75_$LT$usize$u20$as$u20$core..slice..index..SliceIndex$LT$$u5b$T$u5d$$GT$$GT$3get17h5df82707e94e479aE+0x5c>
    e9d8: 04 20 9d e5  	ldr	r2, [sp, #4]
    e9dc: 08 10 9d e5  	ldr	r1, [sp, #8]
    e9e0: 0c 00 9d e5  	ldr	r0, [sp, #12]
    e9e4: 07 00 00 eb  	bl	#28 <_ZN75_$LT$usize$u20$as$u20$core..slice..index..SliceIndex$LT$$u5b$T$u5d$$GT$$GT$13get_unchecked17h3d9905732fe31da8E>
    e9e8: 00 00 8d e5  	str	r0, [sp]
    e9ec: ff ff ff ea  	b	#-4 <_ZN75_$LT$usize$u20$as$u20$core..slice..index..SliceIndex$LT$$u5b$T$u5d$$GT$$GT$3get17h5df82707e94e479aE+0x50>
    e9f0: 00 00 9d e5  	ldr	r0, [sp]
    e9f4: 10 00 8d e5  	str	r0, [sp, #16]
    e9f8: ff ff ff ea  	b	#-4 <_ZN75_$LT$usize$u20$as$u20$core..slice..index..SliceIndex$LT$$u5b$T$u5d$$GT$$GT$3get17h5df82707e94e479aE+0x5c>
    e9fc: 10 00 9d e5  	ldr	r0, [sp, #16]
    ea00: 20 d0 8d e2  	add	sp, sp, #32
    ea04: 00 88 bd e8  	pop	{r11, pc}

0000ea08 <_ZN75_$LT$usize$u20$as$u20$core..slice..index..SliceIndex$LT$$u5b$T$u5d$$GT$$GT$13get_unchecked17h3d9905732fe31da8E>:
    ea08: 00 48 2d e9  	push	{r11, lr}
    ea0c: 38 d0 4d e2  	sub	sp, sp, #56
    ea10: 08 20 8d e5  	str	r2, [sp, #8]
    ea14: 01 20 a0 e1  	mov	r2, r1
    ea18: 08 10 9d e5  	ldr	r1, [sp, #8]
    ea1c: 0c 20 8d e5  	str	r2, [sp, #12]
    ea20: 00 20 a0 e1  	mov	r2, r0
    ea24: 0c 00 9d e5  	ldr	r0, [sp, #12]
    ea28: 10 20 8d e5  	str	r2, [sp, #16]
    ea2c: 18 20 8d e5  	str	r2, [sp, #24]
    ea30: 1c 00 8d e5  	str	r0, [sp, #28]
    ea34: 20 10 8d e5  	str	r1, [sp, #32]
    ea38: 86 ed ff eb  	bl	#-18920 <_ZN4core3ptr9const_ptr43_$LT$impl$u20$$BP$const$u20$$u5b$T$u5d$$GT$6as_ptr17hac7f6cf6a075aa09E>
    ea3c: 14 00 8d e5  	str	r0, [sp, #20]
    ea40: ff ff ff ea  	b	#-4 <_ZN75_$LT$usize$u20$as$u20$core..slice..index..SliceIndex$LT$$u5b$T$u5d$$GT$$GT$13get_unchecked17h3d9905732fe31da8E+0x3c>
    ea44: 14 00 9d e5  	ldr	r0, [sp, #20]
    ea48: 10 10 9d e5  	ldr	r1, [sp, #16]
    ea4c: 24 00 8d e5  	str	r0, [sp, #36]
    ea50: 28 10 8d e5  	str	r1, [sp, #40]
    ea54: 2c 00 8d e5  	str	r0, [sp, #44]
    ea58: 30 10 8d e5  	str	r1, [sp, #48]
    ea5c: 01 00 80 e0  	add	r0, r0, r1
    ea60: 34 00 8d e5  	str	r0, [sp, #52]
    ea64: 34 00 9d e5  	ldr	r0, [sp, #52]
    ea68: 04 00 8d e5  	str	r0, [sp, #4]
    ea6c: ff ff ff ea  	b	#-4 <_ZN75_$LT$usize$u20$as$u20$core..slice..index..SliceIndex$LT$$u5b$T$u5d$$GT$$GT$13get_unchecked17h3d9905732fe31da8E+0x68>
    ea70: 04 00 9d e5  	ldr	r0, [sp, #4]
    ea74: 38 d0 8d e2  	add	sp, sp, #56
    ea78: 00 88 bd e8  	pop	{r11, pc}

0000ea7c <_ZN75_$LT$usize$u20$as$u20$core..slice..index..SliceIndex$LT$$u5b$T$u5d$$GT$$GT$13get_unchecked17h63bf3b62c6d08f31E>:
    ea7c: 00 48 2d e9  	push	{r11, lr}
    ea80: 38 d0 4d e2  	sub	sp, sp, #56
    ea84: 08 20 8d e5  	str	r2, [sp, #8]
    ea88: 01 20 a0 e1  	mov	r2, r1
    ea8c: 08 10 9d e5  	ldr	r1, [sp, #8]
    ea90: 0c 20 8d e5  	str	r2, [sp, #12]
    ea94: 00 20 a0 e1  	mov	r2, r0
    ea98: 0c 00 9d e5  	ldr	r0, [sp, #12]
    ea9c: 10 20 8d e5  	str	r2, [sp, #16]
    eaa0: 18 20 8d e5  	str	r2, [sp, #24]
    eaa4: 1c 00 8d e5  	str	r0, [sp, #28]
    eaa8: 20 10 8d e5  	str	r1, [sp, #32]
    eaac: 6e ed ff eb  	bl	#-19016 <_ZN4core3ptr9const_ptr43_$LT$impl$u20$$BP$const$u20$$u5b$T$u5d$$GT$6as_ptr17hf6615c2fc9303a1fE>
    eab0: 14 00 8d e5  	str	r0, [sp, #20]
    eab4: ff ff ff ea  	b	#-4 <_ZN75_$LT$usize$u20$as$u20$core..slice..index..SliceIndex$LT$$u5b$T$u5d$$GT$$GT$13get_unchecked17h63bf3b62c6d08f31E+0x3c>
    eab8: 14 00 9d e5  	ldr	r0, [sp, #20]
    eabc: 10 10 9d e5  	ldr	r1, [sp, #16]
    eac0: 24 00 8d e5  	str	r0, [sp, #36]
    eac4: 28 10 8d e5  	str	r1, [sp, #40]
    eac8: 2c 00 8d e5  	str	r0, [sp, #44]
    eacc: 30 10 8d e5  	str	r1, [sp, #48]
    ead0: 81 01 80 e0  	add	r0, r0, r1, lsl #3
    ead4: 34 00 8d e5  	str	r0, [sp, #52]
    ead8: 34 00 9d e5  	ldr	r0, [sp, #52]
    eadc: 04 00 8d e5  	str	r0, [sp, #4]
    eae0: ff ff ff ea  	b	#-4 <_ZN75_$LT$usize$u20$as$u20$core..slice..index..SliceIndex$LT$$u5b$T$u5d$$GT$$GT$13get_unchecked17h63bf3b62c6d08f31E+0x68>
    eae4: 04 00 9d e5  	ldr	r0, [sp, #4]
    eae8: 38 d0 8d e2  	add	sp, sp, #56
    eaec: 00 88 bd e8  	pop	{r11, pc}

0000eaf0 <_ZN75_$LT$usize$u20$as$u20$core..slice..index..SliceIndex$LT$$u5b$T$u5d$$GT$$GT$13get_unchecked17h74dc70a76a7a6cf2E>:
    eaf0: 00 48 2d e9  	push	{r11, lr}
    eaf4: 38 d0 4d e2  	sub	sp, sp, #56
    eaf8: 08 20 8d e5  	str	r2, [sp, #8]
    eafc: 01 20 a0 e1  	mov	r2, r1
    eb00: 08 10 9d e5  	ldr	r1, [sp, #8]
    eb04: 0c 20 8d e5  	str	r2, [sp, #12]
    eb08: 00 20 a0 e1  	mov	r2, r0
    eb0c: 0c 00 9d e5  	ldr	r0, [sp, #12]
    eb10: 10 20 8d e5  	str	r2, [sp, #16]
    eb14: 18 20 8d e5  	str	r2, [sp, #24]
    eb18: 1c 00 8d e5  	str	r0, [sp, #28]
    eb1c: 20 10 8d e5  	str	r1, [sp, #32]
    eb20: 3d ed ff eb  	bl	#-19212 <_ZN4core3ptr9const_ptr43_$LT$impl$u20$$BP$const$u20$$u5b$T$u5d$$GT$6as_ptr17h4fe380040f4b7310E>
    eb24: 14 00 8d e5  	str	r0, [sp, #20]
    eb28: ff ff ff ea  	b	#-4 <_ZN75_$LT$usize$u20$as$u20$core..slice..index..SliceIndex$LT$$u5b$T$u5d$$GT$$GT$13get_unchecked17h74dc70a76a7a6cf2E+0x3c>
    eb2c: 14 00 9d e5  	ldr	r0, [sp, #20]
    eb30: 10 10 9d e5  	ldr	r1, [sp, #16]
    eb34: 24 00 8d e5  	str	r0, [sp, #36]
    eb38: 28 10 8d e5  	str	r1, [sp, #40]
    eb3c: 2c 00 8d e5  	str	r0, [sp, #44]
    eb40: 30 10 8d e5  	str	r1, [sp, #48]
    eb44: 81 01 80 e0  	add	r0, r0, r1, lsl #3
    eb48: 34 00 8d e5  	str	r0, [sp, #52]
    eb4c: 34 00 9d e5  	ldr	r0, [sp, #52]
    eb50: 04 00 8d e5  	str	r0, [sp, #4]
    eb54: ff ff ff ea  	b	#-4 <_ZN75_$LT$usize$u20$as$u20$core..slice..index..SliceIndex$LT$$u5b$T$u5d$$GT$$GT$13get_unchecked17h74dc70a76a7a6cf2E+0x68>
    eb58: 04 00 9d e5  	ldr	r0, [sp, #4]
    eb5c: 38 d0 8d e2  	add	sp, sp, #56
    eb60: 00 88 bd e8  	pop	{r11, pc}

0000eb64 <_ZN106_$LT$core..ops..range..Range$LT$usize$GT$$u20$as$u20$core..slice..index..SliceIndex$LT$$u5b$T$u5d$$GT$$GT$13get_unchecked17h1d25b385670d593fE>:
    eb64: 00 48 2d e9  	push	{r11, lr}
    eb68: 48 d0 4d e2  	sub	sp, sp, #72
    eb6c: 10 30 8d e5  	str	r3, [sp, #16]
    eb70: 18 20 8d e5  	str	r2, [sp, #24]
    eb74: 01 20 a0 e1  	mov	r2, r1
    eb78: 10 10 9d e5  	ldr	r1, [sp, #16]
    eb7c: 14 20 8d e5  	str	r2, [sp, #20]
    eb80: 00 30 a0 e1  	mov	r3, r0
    eb84: 18 00 9d e5  	ldr	r0, [sp, #24]
    eb88: 1c 30 8d e5  	str	r3, [sp, #28]
    eb8c: 24 30 8d e5  	str	r3, [sp, #36]
    eb90: 28 20 8d e5  	str	r2, [sp, #40]
    eb94: 2c 00 8d e5  	str	r0, [sp, #44]
    eb98: 30 10 8d e5  	str	r1, [sp, #48]
    eb9c: 2d ed ff eb  	bl	#-19276 <_ZN4core3ptr9const_ptr43_$LT$impl$u20$$BP$const$u20$$u5b$T$u5d$$GT$6as_ptr17hac7f6cf6a075aa09E>
    eba0: 20 00 8d e5  	str	r0, [sp, #32]
    eba4: ff ff ff ea  	b	#-4 <_ZN106_$LT$core..ops..range..Range$LT$usize$GT$$u20$as$u20$core..slice..index..SliceIndex$LT$$u5b$T$u5d$$GT$$GT$13get_unchecked17h1d25b385670d593fE+0x44>
    eba8: 20 00 9d e5  	ldr	r0, [sp, #32]
    ebac: 1c 10 9d e5  	ldr	r1, [sp, #28]
    ebb0: 34 00 8d e5  	str	r0, [sp, #52]
    ebb4: 38 10 8d e5  	str	r1, [sp, #56]
    ebb8: 3c 00 8d e5  	str	r0, [sp, #60]
    ebbc: 40 10 8d e5  	str	r1, [sp, #64]
    ebc0: 01 00 80 e0  	add	r0, r0, r1
    ebc4: 44 00 8d e5  	str	r0, [sp, #68]
    ebc8: 44 00 9d e5  	ldr	r0, [sp, #68]
    ebcc: 0c 00 8d e5  	str	r0, [sp, #12]
    ebd0: ff ff ff ea  	b	#-4 <_ZN106_$LT$core..ops..range..Range$LT$usize$GT$$u20$as$u20$core..slice..index..SliceIndex$LT$$u5b$T$u5d$$GT$$GT$13get_unchecked17h1d25b385670d593fE+0x70>
    ebd4: 14 00 9d e5  	ldr	r0, [sp, #20]
    ebd8: 1c 10 9d e5  	ldr	r1, [sp, #28]
    ebdc: 01 20 40 e0  	sub	r2, r0, r1
    ebe0: 08 20 8d e5  	str	r2, [sp, #8]
    ebe4: 01 00 50 e1  	cmp	r0, r1
    ebe8: 06 00 00 3a  	blo	#24 <_ZN106_$LT$core..ops..range..Range$LT$usize$GT$$u20$as$u20$core..slice..index..SliceIndex$LT$$u5b$T$u5d$$GT$$GT$13get_unchecked17h1d25b385670d593fE+0xa4>
    ebec: ff ff ff ea  	b	#-4 <_ZN106_$LT$core..ops..range..Range$LT$usize$GT$$u20$as$u20$core..slice..index..SliceIndex$LT$$u5b$T$u5d$$GT$$GT$13get_unchecked17h1d25b385670d593fE+0x8c>
    ebf0: 08 10 9d e5  	ldr	r1, [sp, #8]
    ebf4: 0c 00 9d e5  	ldr	r0, [sp, #12]
    ebf8: a6 ed ff eb  	bl	#-18792 <_ZN4core3ptr20slice_from_raw_parts17h7eb9f3b40e6a6c9aE>
    ebfc: 00 00 8d e5  	str	r0, [sp]
    ec00: 04 10 8d e5  	str	r1, [sp, #4]
    ec04: 04 00 00 ea  	b	#16 <_ZN106_$LT$core..ops..range..Range$LT$usize$GT$$u20$as$u20$core..slice..index..SliceIndex$LT$$u5b$T$u5d$$GT$$GT$13get_unchecked17h1d25b385670d593fE+0xb8>
    ec08: 1c 00 9f e5  	ldr	r0, [pc, #28]
    ec0c: 1c 20 9f e5  	ldr	r2, [pc, #28]
    ec10: 21 10 a0 e3  	mov	r1, #33
    ec14: a6 f4 ff eb  	bl	#-11624 <_ZN4core9panicking5panic17h70f755644c6683e5E>
    ec18: fe de ff e7  	trap
    ec1c: 04 10 9d e5  	ldr	r1, [sp, #4]
    ec20: 00 00 9d e5  	ldr	r0, [sp]
    ec24: 48 d0 8d e2  	add	sp, sp, #72
    ec28: 00 88 bd e8  	pop	{r11, pc}

0000ec2c <$d.1587>:
    ec2c:	d0 51 01 00	.word	0x000151d0
    ec30:	58 5f 01 00	.word	0x00015f58

0000ec34 <_ZN106_$LT$core..ops..range..Range$LT$usize$GT$$u20$as$u20$core..slice..index..SliceIndex$LT$$u5b$T$u5d$$GT$$GT$13get_unchecked17h5dac71fb7055b158E>:
    ec34: 00 48 2d e9  	push	{r11, lr}
    ec38: 48 d0 4d e2  	sub	sp, sp, #72
    ec3c: 10 30 8d e5  	str	r3, [sp, #16]
    ec40: 18 20 8d e5  	str	r2, [sp, #24]
    ec44: 01 20 a0 e1  	mov	r2, r1
    ec48: 10 10 9d e5  	ldr	r1, [sp, #16]
    ec4c: 14 20 8d e5  	str	r2, [sp, #20]
    ec50: 00 30 a0 e1  	mov	r3, r0
    ec54: 18 00 9d e5  	ldr	r0, [sp, #24]
    ec58: 1c 30 8d e5  	str	r3, [sp, #28]
    ec5c: 24 30 8d e5  	str	r3, [sp, #36]
    ec60: 28 20 8d e5  	str	r2, [sp, #40]
    ec64: 2c 00 8d e5  	str	r0, [sp, #44]
    ec68: 30 10 8d e5  	str	r1, [sp, #48]
    ec6c: ef ec ff eb  	bl	#-19524 <_ZN4core3ptr9const_ptr43_$LT$impl$u20$$BP$const$u20$$u5b$T$u5d$$GT$6as_ptr17h6657ebba067a132bE>
    ec70: 20 00 8d e5  	str	r0, [sp, #32]
    ec74: ff ff ff ea  	b	#-4 <_ZN106_$LT$core..ops..range..Range$LT$usize$GT$$u20$as$u20$core..slice..index..SliceIndex$LT$$u5b$T$u5d$$GT$$GT$13get_unchecked17h5dac71fb7055b158E+0x44>
    ec78: 20 00 9d e5  	ldr	r0, [sp, #32]
    ec7c: 1c 10 9d e5  	ldr	r1, [sp, #28]
    ec80: 34 00 8d e5  	str	r0, [sp, #52]
    ec84: 38 10 8d e5  	str	r1, [sp, #56]
    ec88: 3c 00 8d e5  	str	r0, [sp, #60]
    ec8c: 40 10 8d e5  	str	r1, [sp, #64]
    ec90: 01 01 80 e0  	add	r0, r0, r1, lsl #2
    ec94: 44 00 8d e5  	str	r0, [sp, #68]
    ec98: 44 00 9d e5  	ldr	r0, [sp, #68]
    ec9c: 0c 00 8d e5  	str	r0, [sp, #12]
    eca0: ff ff ff ea  	b	#-4 <_ZN106_$LT$core..ops..range..Range$LT$usize$GT$$u20$as$u20$core..slice..index..SliceIndex$LT$$u5b$T$u5d$$GT$$GT$13get_unchecked17h5dac71fb7055b158E+0x70>
    eca4: 14 00 9d e5  	ldr	r0, [sp, #20]
    eca8: 1c 10 9d e5  	ldr	r1, [sp, #28]
    ecac: 01 20 40 e0  	sub	r2, r0, r1
    ecb0: 08 20 8d e5  	str	r2, [sp, #8]
    ecb4: 01 00 50 e1  	cmp	r0, r1
    ecb8: 06 00 00 3a  	blo	#24 <_ZN106_$LT$core..ops..range..Range$LT$usize$GT$$u20$as$u20$core..slice..index..SliceIndex$LT$$u5b$T$u5d$$GT$$GT$13get_unchecked17h5dac71fb7055b158E+0xa4>
    ecbc: ff ff ff ea  	b	#-4 <_ZN106_$LT$core..ops..range..Range$LT$usize$GT$$u20$as$u20$core..slice..index..SliceIndex$LT$$u5b$T$u5d$$GT$$GT$13get_unchecked17h5dac71fb7055b158E+0x8c>
    ecc0: 08 10 9d e5  	ldr	r1, [sp, #8]
    ecc4: 0c 00 9d e5  	ldr	r0, [sp, #12]
    ecc8: 60 ed ff eb  	bl	#-19072 <_ZN4core3ptr20slice_from_raw_parts17h739fb1d7ea7e2968E>
    eccc: 00 00 8d e5  	str	r0, [sp]
    ecd0: 04 10 8d e5  	str	r1, [sp, #4]
    ecd4: 04 00 00 ea  	b	#16 <_ZN106_$LT$core..ops..range..Range$LT$usize$GT$$u20$as$u20$core..slice..index..SliceIndex$LT$$u5b$T$u5d$$GT$$GT$13get_unchecked17h5dac71fb7055b158E+0xb8>
    ecd8: 1c 00 9f e5  	ldr	r0, [pc, #28]
    ecdc: 1c 20 9f e5  	ldr	r2, [pc, #28]
    ece0: 21 10 a0 e3  	mov	r1, #33
    ece4: 72 f4 ff eb  	bl	#-11832 <_ZN4core9panicking5panic17h70f755644c6683e5E>
    ece8: fe de ff e7  	trap
    ecec: 04 10 9d e5  	ldr	r1, [sp, #4]
    ecf0: 00 00 9d e5  	ldr	r0, [sp]
    ecf4: 48 d0 8d e2  	add	sp, sp, #72
    ecf8: 00 88 bd e8  	pop	{r11, pc}

0000ecfc <$d.1589>:
    ecfc:	d0 51 01 00	.word	0x000151d0
    ed00:	58 5f 01 00	.word	0x00015f58

0000ed04 <_ZN106_$LT$core..ops..range..Range$LT$usize$GT$$u20$as$u20$core..slice..index..SliceIndex$LT$$u5b$T$u5d$$GT$$GT$13get_unchecked17h6388b663972f65d5E>:
    ed04: 00 48 2d e9  	push	{r11, lr}
    ed08: 48 d0 4d e2  	sub	sp, sp, #72
    ed0c: 10 30 8d e5  	str	r3, [sp, #16]
    ed10: 18 20 8d e5  	str	r2, [sp, #24]
    ed14: 01 20 a0 e1  	mov	r2, r1
    ed18: 10 10 9d e5  	ldr	r1, [sp, #16]
    ed1c: 14 20 8d e5  	str	r2, [sp, #20]
    ed20: 00 30 a0 e1  	mov	r3, r0
    ed24: 18 00 9d e5  	ldr	r0, [sp, #24]
    ed28: 1c 30 8d e5  	str	r3, [sp, #28]
    ed2c: 24 30 8d e5  	str	r3, [sp, #36]
    ed30: 28 20 8d e5  	str	r2, [sp, #40]
    ed34: 2c 00 8d e5  	str	r0, [sp, #44]
    ed38: 30 10 8d e5  	str	r1, [sp, #48]
    ed3c: c0 ec ff eb  	bl	#-19712 <_ZN4core3ptr9const_ptr43_$LT$impl$u20$$BP$const$u20$$u5b$T$u5d$$GT$6as_ptr17h73d8ecc888b4838aE>
    ed40: 20 00 8d e5  	str	r0, [sp, #32]
    ed44: ff ff ff ea  	b	#-4 <_ZN106_$LT$core..ops..range..Range$LT$usize$GT$$u20$as$u20$core..slice..index..SliceIndex$LT$$u5b$T$u5d$$GT$$GT$13get_unchecked17h6388b663972f65d5E+0x44>
    ed48: 20 00 9d e5  	ldr	r0, [sp, #32]
    ed4c: 1c 10 9d e5  	ldr	r1, [sp, #28]
    ed50: 34 00 8d e5  	str	r0, [sp, #52]
    ed54: 38 10 8d e5  	str	r1, [sp, #56]
    ed58: 3c 00 8d e5  	str	r0, [sp, #60]
    ed5c: 40 10 8d e5  	str	r1, [sp, #64]
    ed60: 01 00 80 e0  	add	r0, r0, r1
    ed64: 44 00 8d e5  	str	r0, [sp, #68]
    ed68: 44 00 9d e5  	ldr	r0, [sp, #68]
    ed6c: 0c 00 8d e5  	str	r0, [sp, #12]
    ed70: ff ff ff ea  	b	#-4 <_ZN106_$LT$core..ops..range..Range$LT$usize$GT$$u20$as$u20$core..slice..index..SliceIndex$LT$$u5b$T$u5d$$GT$$GT$13get_unchecked17h6388b663972f65d5E+0x70>
    ed74: 14 00 9d e5  	ldr	r0, [sp, #20]
    ed78: 1c 10 9d e5  	ldr	r1, [sp, #28]
    ed7c: 01 20 40 e0  	sub	r2, r0, r1
    ed80: 08 20 8d e5  	str	r2, [sp, #8]
    ed84: 01 00 50 e1  	cmp	r0, r1
    ed88: 06 00 00 3a  	blo	#24 <_ZN106_$LT$core..ops..range..Range$LT$usize$GT$$u20$as$u20$core..slice..index..SliceIndex$LT$$u5b$T$u5d$$GT$$GT$13get_unchecked17h6388b663972f65d5E+0xa4>
    ed8c: ff ff ff ea  	b	#-4 <_ZN106_$LT$core..ops..range..Range$LT$usize$GT$$u20$as$u20$core..slice..index..SliceIndex$LT$$u5b$T$u5d$$GT$$GT$13get_unchecked17h6388b663972f65d5E+0x8c>
    ed90: 08 10 9d e5  	ldr	r1, [sp, #8]
    ed94: 0c 00 9d e5  	ldr	r0, [sp, #12]
    ed98: 1a ed ff eb  	bl	#-19352 <_ZN4core3ptr20slice_from_raw_parts17h472b2ea1a48027e0E>
    ed9c: 00 00 8d e5  	str	r0, [sp]
    eda0: 04 10 8d e5  	str	r1, [sp, #4]
    eda4: 04 00 00 ea  	b	#16 <_ZN106_$LT$core..ops..range..Range$LT$usize$GT$$u20$as$u20$core..slice..index..SliceIndex$LT$$u5b$T$u5d$$GT$$GT$13get_unchecked17h6388b663972f65d5E+0xb8>
    eda8: 1c 00 9f e5  	ldr	r0, [pc, #28]
    edac: 1c 20 9f e5  	ldr	r2, [pc, #28]
    edb0: 21 10 a0 e3  	mov	r1, #33
    edb4: 3e f4 ff eb  	bl	#-12040 <_ZN4core9panicking5panic17h70f755644c6683e5E>
    edb8: fe de ff e7  	trap
    edbc: 04 10 9d e5  	ldr	r1, [sp, #4]
    edc0: 00 00 9d e5  	ldr	r0, [sp]
    edc4: 48 d0 8d e2  	add	sp, sp, #72
    edc8: 00 88 bd e8  	pop	{r11, pc}

0000edcc <$d.1591>:
    edcc:	d0 51 01 00	.word	0x000151d0
    edd0:	58 5f 01 00	.word	0x00015f58

0000edd4 <_ZN108_$LT$core..ops..range..RangeTo$LT$usize$GT$$u20$as$u20$core..slice..index..SliceIndex$LT$$u5b$T$u5d$$GT$$GT$13get_unchecked17hc56e1446995c5ca8E>:
    edd4: 00 48 2d e9  	push	{r11, lr}
    edd8: 20 d0 4d e2  	sub	sp, sp, #32
    eddc: 02 30 a0 e1  	mov	r3, r2
    ede0: 01 20 a0 e1  	mov	r2, r1
    ede4: 14 00 8d e5  	str	r0, [sp, #20]
    ede8: 18 20 8d e5  	str	r2, [sp, #24]
    edec: 1c 30 8d e5  	str	r3, [sp, #28]
    edf0: 00 10 a0 e3  	mov	r1, #0
    edf4: 0c 10 8d e5  	str	r1, [sp, #12]
    edf8: 10 00 8d e5  	str	r0, [sp, #16]
    edfc: 0c 00 9d e5  	ldr	r0, [sp, #12]
    ee00: 10 10 9d e5  	ldr	r1, [sp, #16]
    ee04: 8a ff ff eb  	bl	#-472 <_ZN106_$LT$core..ops..range..Range$LT$usize$GT$$u20$as$u20$core..slice..index..SliceIndex$LT$$u5b$T$u5d$$GT$$GT$13get_unchecked17h5dac71fb7055b158E>
    ee08: 04 00 8d e5  	str	r0, [sp, #4]
    ee0c: 08 10 8d e5  	str	r1, [sp, #8]
    ee10: ff ff ff ea  	b	#-4 <_ZN108_$LT$core..ops..range..RangeTo$LT$usize$GT$$u20$as$u20$core..slice..index..SliceIndex$LT$$u5b$T$u5d$$GT$$GT$13get_unchecked17hc56e1446995c5ca8E+0x40>
    ee14: 08 10 9d e5  	ldr	r1, [sp, #8]
    ee18: 04 00 9d e5  	ldr	r0, [sp, #4]
    ee1c: 20 d0 8d e2  	add	sp, sp, #32
    ee20: 00 88 bd e8  	pop	{r11, pc}

0000ee24 <_ZN108_$LT$core..ops..range..RangeTo$LT$usize$GT$$u20$as$u20$core..slice..index..SliceIndex$LT$$u5b$T$u5d$$GT$$GT$13get_unchecked17hc613160324722273E>:
    ee24: 00 48 2d e9  	push	{r11, lr}
    ee28: 20 d0 4d e2  	sub	sp, sp, #32
    ee2c: 02 30 a0 e1  	mov	r3, r2
    ee30: 01 20 a0 e1  	mov	r2, r1
    ee34: 14 00 8d e5  	str	r0, [sp, #20]
    ee38: 18 20 8d e5  	str	r2, [sp, #24]
    ee3c: 1c 30 8d e5  	str	r3, [sp, #28]
    ee40: 00 10 a0 e3  	mov	r1, #0
    ee44: 0c 10 8d e5  	str	r1, [sp, #12]
    ee48: 10 00 8d e5  	str	r0, [sp, #16]
    ee4c: 0c 00 9d e5  	ldr	r0, [sp, #12]
    ee50: 10 10 9d e5  	ldr	r1, [sp, #16]
    ee54: 42 ff ff eb  	bl	#-760 <_ZN106_$LT$core..ops..range..Range$LT$usize$GT$$u20$as$u20$core..slice..index..SliceIndex$LT$$u5b$T$u5d$$GT$$GT$13get_unchecked17h1d25b385670d593fE>
    ee58: 04 00 8d e5  	str	r0, [sp, #4]
    ee5c: 08 10 8d e5  	str	r1, [sp, #8]
    ee60: ff ff ff ea  	b	#-4 <_ZN108_$LT$core..ops..range..RangeTo$LT$usize$GT$$u20$as$u20$core..slice..index..SliceIndex$LT$$u5b$T$u5d$$GT$$GT$13get_unchecked17hc613160324722273E+0x40>
    ee64: 08 10 9d e5  	ldr	r1, [sp, #8]
    ee68: 04 00 9d e5  	ldr	r0, [sp, #4]
    ee6c: 20 d0 8d e2  	add	sp, sp, #32
    ee70: 00 88 bd e8  	pop	{r11, pc}

0000ee74 <_ZN110_$LT$core..ops..range..RangeFrom$LT$usize$GT$$u20$as$u20$core..slice..index..SliceIndex$LT$$u5b$T$u5d$$GT$$GT$13get_unchecked17h43d3ddc491b0fe6aE>:
    ee74: 00 48 2d e9  	push	{r11, lr}
    ee78: 30 d0 4d e2  	sub	sp, sp, #48
    ee7c: 0c 20 8d e5  	str	r2, [sp, #12]
    ee80: 01 20 a0 e1  	mov	r2, r1
    ee84: 0c 10 9d e5  	ldr	r1, [sp, #12]
    ee88: 10 20 8d e5  	str	r2, [sp, #16]
    ee8c: 00 20 a0 e1  	mov	r2, r0
    ee90: 10 00 9d e5  	ldr	r0, [sp, #16]
    ee94: 14 20 8d e5  	str	r2, [sp, #20]
    ee98: 24 20 8d e5  	str	r2, [sp, #36]
    ee9c: 28 00 8d e5  	str	r0, [sp, #40]
    eea0: 2c 10 8d e5  	str	r1, [sp, #44]
    eea4: 52 ec ff eb  	bl	#-20152 <_ZN4core3ptr9const_ptr43_$LT$impl$u20$$BP$const$u20$$u5b$T$u5d$$GT$3len17habc3883e5b7bf186E>
    eea8: 18 00 8d e5  	str	r0, [sp, #24]
    eeac: ff ff ff ea  	b	#-4 <_ZN110_$LT$core..ops..range..RangeFrom$LT$usize$GT$$u20$as$u20$core..slice..index..SliceIndex$LT$$u5b$T$u5d$$GT$$GT$13get_unchecked17h43d3ddc491b0fe6aE+0x3c>
    eeb0: 0c 30 9d e5  	ldr	r3, [sp, #12]
    eeb4: 10 20 9d e5  	ldr	r2, [sp, #16]
    eeb8: 18 00 9d e5  	ldr	r0, [sp, #24]
    eebc: 14 10 9d e5  	ldr	r1, [sp, #20]
    eec0: 1c 10 8d e5  	str	r1, [sp, #28]
    eec4: 20 00 8d e5  	str	r0, [sp, #32]
    eec8: 1c 00 9d e5  	ldr	r0, [sp, #28]
    eecc: 20 10 9d e5  	ldr	r1, [sp, #32]
    eed0: 8b ff ff eb  	bl	#-468 <_ZN106_$LT$core..ops..range..Range$LT$usize$GT$$u20$as$u20$core..slice..index..SliceIndex$LT$$u5b$T$u5d$$GT$$GT$13get_unchecked17h6388b663972f65d5E>
    eed4: 04 00 8d e5  	str	r0, [sp, #4]
    eed8: 08 10 8d e5  	str	r1, [sp, #8]
    eedc: ff ff ff ea  	b	#-4 <_ZN110_$LT$core..ops..range..RangeFrom$LT$usize$GT$$u20$as$u20$core..slice..index..SliceIndex$LT$$u5b$T$u5d$$GT$$GT$13get_unchecked17h43d3ddc491b0fe6aE+0x6c>
    eee0: 08 10 9d e5  	ldr	r1, [sp, #8]
    eee4: 04 00 9d e5  	ldr	r0, [sp, #4]
    eee8: 30 d0 8d e2  	add	sp, sp, #48
    eeec: 00 88 bd e8  	pop	{r11, pc}

0000eef0 <_ZN110_$LT$core..ops..range..RangeFrom$LT$usize$GT$$u20$as$u20$core..slice..index..SliceIndex$LT$$u5b$T$u5d$$GT$$GT$13get_unchecked17h4b85c12398c9e232E>:
    eef0: 00 48 2d e9  	push	{r11, lr}
    eef4: 30 d0 4d e2  	sub	sp, sp, #48
    eef8: 0c 20 8d e5  	str	r2, [sp, #12]
    eefc: 01 20 a0 e1  	mov	r2, r1
    ef00: 0c 10 9d e5  	ldr	r1, [sp, #12]
    ef04: 10 20 8d e5  	str	r2, [sp, #16]
    ef08: 00 20 a0 e1  	mov	r2, r0
    ef0c: 10 00 9d e5  	ldr	r0, [sp, #16]
    ef10: 14 20 8d e5  	str	r2, [sp, #20]
    ef14: 24 20 8d e5  	str	r2, [sp, #36]
    ef18: 28 00 8d e5  	str	r0, [sp, #40]
    ef1c: 2c 10 8d e5  	str	r1, [sp, #44]
    ef20: 1f ec ff eb  	bl	#-20356 <_ZN4core3ptr9const_ptr43_$LT$impl$u20$$BP$const$u20$$u5b$T$u5d$$GT$3len17h49bd0a8aa184075eE>
    ef24: 18 00 8d e5  	str	r0, [sp, #24]
    ef28: ff ff ff ea  	b	#-4 <_ZN110_$LT$core..ops..range..RangeFrom$LT$usize$GT$$u20$as$u20$core..slice..index..SliceIndex$LT$$u5b$T$u5d$$GT$$GT$13get_unchecked17h4b85c12398c9e232E+0x3c>
    ef2c: 0c 30 9d e5  	ldr	r3, [sp, #12]
    ef30: 10 20 9d e5  	ldr	r2, [sp, #16]
    ef34: 18 00 9d e5  	ldr	r0, [sp, #24]
    ef38: 14 10 9d e5  	ldr	r1, [sp, #20]
    ef3c: 1c 10 8d e5  	str	r1, [sp, #28]
    ef40: 20 00 8d e5  	str	r0, [sp, #32]
    ef44: 1c 00 9d e5  	ldr	r0, [sp, #28]
    ef48: 20 10 9d e5  	ldr	r1, [sp, #32]
    ef4c: 38 ff ff eb  	bl	#-800 <_ZN106_$LT$core..ops..range..Range$LT$usize$GT$$u20$as$u20$core..slice..index..SliceIndex$LT$$u5b$T$u5d$$GT$$GT$13get_unchecked17h5dac71fb7055b158E>
    ef50: 04 00 8d e5  	str	r0, [sp, #4]
    ef54: 08 10 8d e5  	str	r1, [sp, #8]
    ef58: ff ff ff ea  	b	#-4 <_ZN110_$LT$core..ops..range..RangeFrom$LT$usize$GT$$u20$as$u20$core..slice..index..SliceIndex$LT$$u5b$T$u5d$$GT$$GT$13get_unchecked17h4b85c12398c9e232E+0x6c>
    ef5c: 08 10 9d e5  	ldr	r1, [sp, #8]
    ef60: 04 00 9d e5  	ldr	r0, [sp, #4]
    ef64: 30 d0 8d e2  	add	sp, sp, #48
    ef68: 00 88 bd e8  	pop	{r11, pc}

0000ef6c <_ZN110_$LT$core..ops..range..RangeFrom$LT$usize$GT$$u20$as$u20$core..slice..index..SliceIndex$LT$$u5b$T$u5d$$GT$$GT$13get_unchecked17h597bb0e645bb2269E>:
    ef6c: 00 48 2d e9  	push	{r11, lr}
    ef70: 30 d0 4d e2  	sub	sp, sp, #48
    ef74: 0c 20 8d e5  	str	r2, [sp, #12]
    ef78: 01 20 a0 e1  	mov	r2, r1
    ef7c: 0c 10 9d e5  	ldr	r1, [sp, #12]
    ef80: 10 20 8d e5  	str	r2, [sp, #16]
    ef84: 00 20 a0 e1  	mov	r2, r0
    ef88: 10 00 9d e5  	ldr	r0, [sp, #16]
    ef8c: 14 20 8d e5  	str	r2, [sp, #20]
    ef90: 24 20 8d e5  	str	r2, [sp, #36]
    ef94: 28 00 8d e5  	str	r0, [sp, #40]
    ef98: 2c 10 8d e5  	str	r1, [sp, #44]
    ef9c: 0a ec ff eb  	bl	#-20440 <_ZN4core3ptr9const_ptr43_$LT$impl$u20$$BP$const$u20$$u5b$T$u5d$$GT$3len17h8c5325d91ce47adcE>
    efa0: 18 00 8d e5  	str	r0, [sp, #24]
    efa4: ff ff ff ea  	b	#-4 <_ZN110_$LT$core..ops..range..RangeFrom$LT$usize$GT$$u20$as$u20$core..slice..index..SliceIndex$LT$$u5b$T$u5d$$GT$$GT$13get_unchecked17h597bb0e645bb2269E+0x3c>
    efa8: 0c 30 9d e5  	ldr	r3, [sp, #12]
    efac: 10 20 9d e5  	ldr	r2, [sp, #16]
    efb0: 18 00 9d e5  	ldr	r0, [sp, #24]
    efb4: 14 10 9d e5  	ldr	r1, [sp, #20]
    efb8: 1c 10 8d e5  	str	r1, [sp, #28]
    efbc: 20 00 8d e5  	str	r0, [sp, #32]
    efc0: 1c 00 9d e5  	ldr	r0, [sp, #28]
    efc4: 20 10 9d e5  	ldr	r1, [sp, #32]
    efc8: e5 fe ff eb  	bl	#-1132 <_ZN106_$LT$core..ops..range..Range$LT$usize$GT$$u20$as$u20$core..slice..index..SliceIndex$LT$$u5b$T$u5d$$GT$$GT$13get_unchecked17h1d25b385670d593fE>
    efcc: 04 00 8d e5  	str	r0, [sp, #4]
    efd0: 08 10 8d e5  	str	r1, [sp, #8]
    efd4: ff ff ff ea  	b	#-4 <_ZN110_$LT$core..ops..range..RangeFrom$LT$usize$GT$$u20$as$u20$core..slice..index..SliceIndex$LT$$u5b$T$u5d$$GT$$GT$13get_unchecked17h597bb0e645bb2269E+0x6c>
    efd8: 08 10 9d e5  	ldr	r1, [sp, #8]
    efdc: 04 00 9d e5  	ldr	r0, [sp, #4]
    efe0: 30 d0 8d e2  	add	sp, sp, #48
    efe4: 00 88 bd e8  	pop	{r11, pc}

0000efe8 <_ZN110_$LT$core..ops..range..RangeFrom$LT$usize$GT$$u20$as$u20$core..slice..index..SliceIndex$LT$$u5b$T$u5d$$GT$$GT$5index17h7a8182a2d82a4709E>:
    efe8: 00 48 2d e9  	push	{r11, lr}
    efec: 28 d0 4d e2  	sub	sp, sp, #40
    eff0: 0c 30 8d e5  	str	r3, [sp, #12]
    eff4: 10 20 8d e5  	str	r2, [sp, #16]
    eff8: 14 10 8d e5  	str	r1, [sp, #20]
    effc: 18 00 8d e5  	str	r0, [sp, #24]
    f000: 1c 00 8d e5  	str	r0, [sp, #28]
    f004: 20 10 8d e5  	str	r1, [sp, #32]
    f008: 24 20 8d e5  	str	r2, [sp, #36]
    f00c: 02 00 50 e1  	cmp	r0, r2
    f010: 07 00 00 8a  	bhi	#28 <_ZN110_$LT$core..ops..range..RangeFrom$LT$usize$GT$$u20$as$u20$core..slice..index..SliceIndex$LT$$u5b$T$u5d$$GT$$GT$5index17h7a8182a2d82a4709E+0x4c>
    f014: ff ff ff ea  	b	#-4 <_ZN110_$LT$core..ops..range..RangeFrom$LT$usize$GT$$u20$as$u20$core..slice..index..SliceIndex$LT$$u5b$T$u5d$$GT$$GT$5index17h7a8182a2d82a4709E+0x30>
    f018: 10 20 9d e5  	ldr	r2, [sp, #16]
    f01c: 14 10 9d e5  	ldr	r1, [sp, #20]
    f020: 18 00 9d e5  	ldr	r0, [sp, #24]
    f024: 92 ff ff eb  	bl	#-440 <_ZN110_$LT$core..ops..range..RangeFrom$LT$usize$GT$$u20$as$u20$core..slice..index..SliceIndex$LT$$u5b$T$u5d$$GT$$GT$13get_unchecked17h43d3ddc491b0fe6aE>
    f028: 04 00 8d e5  	str	r0, [sp, #4]
    f02c: 08 10 8d e5  	str	r1, [sp, #8]
    f030: 04 00 00 ea  	b	#16 <_ZN110_$LT$core..ops..range..RangeFrom$LT$usize$GT$$u20$as$u20$core..slice..index..SliceIndex$LT$$u5b$T$u5d$$GT$$GT$5index17h7a8182a2d82a4709E+0x60>
    f034: 0c 20 9d e5  	ldr	r2, [sp, #12]
    f038: 10 10 9d e5  	ldr	r1, [sp, #16]
    f03c: 18 00 9d e5  	ldr	r0, [sp, #24]
    f040: 19 fe ff eb  	bl	#-1948 <_ZN4core5slice5index26slice_start_index_len_fail17hb5f5521c28632d81E>
    f044: fe de ff e7  	trap
    f048: 08 10 9d e5  	ldr	r1, [sp, #8]
    f04c: 04 00 9d e5  	ldr	r0, [sp, #4]
    f050: 28 d0 8d e2  	add	sp, sp, #40
    f054: 00 88 bd e8  	pop	{r11, pc}

0000f058 <_ZN4core5slice4iter87_$LT$impl$u20$core..iter..traits..collect..IntoIterator$u20$for$u20$$RF$$u5b$T$u5d$$GT$9into_iter17h3cc1521738f9d061E>:
    f058: 00 48 2d e9  	push	{r11, lr}
    f05c: 10 d0 4d e2  	sub	sp, sp, #16
    f060: 08 00 8d e5  	str	r0, [sp, #8]
    f064: 0c 10 8d e5  	str	r1, [sp, #12]
    f068: 9e 03 00 eb  	bl	#3704 <_ZN4core5slice29_$LT$impl$u20$$u5b$T$u5d$$GT$4iter17hc958a26c159f8306E>
    f06c: 00 00 8d e5  	str	r0, [sp]
    f070: 04 10 8d e5  	str	r1, [sp, #4]
    f074: ff ff ff ea  	b	#-4 <_ZN4core5slice4iter87_$LT$impl$u20$core..iter..traits..collect..IntoIterator$u20$for$u20$$RF$$u5b$T$u5d$$GT$9into_iter17h3cc1521738f9d061E+0x20>
    f078: 04 10 9d e5  	ldr	r1, [sp, #4]
    f07c: 00 00 9d e5  	ldr	r0, [sp]
    f080: 10 d0 8d e2  	add	sp, sp, #16
    f084: 00 88 bd e8  	pop	{r11, pc}

0000f088 <_ZN4core5slice4iter87_$LT$impl$u20$core..iter..traits..collect..IntoIterator$u20$for$u20$$RF$$u5b$T$u5d$$GT$9into_iter17hbb5dcc1a8a1ccab4E>:
    f088: 00 48 2d e9  	push	{r11, lr}
    f08c: 10 d0 4d e2  	sub	sp, sp, #16
    f090: 08 00 8d e5  	str	r0, [sp, #8]
    f094: 0c 10 8d e5  	str	r1, [sp, #12]
    f098: 7a 03 00 eb  	bl	#3560 <_ZN4core5slice29_$LT$impl$u20$$u5b$T$u5d$$GT$4iter17h15255d3309400647E>
    f09c: 00 00 8d e5  	str	r0, [sp]
    f0a0: 04 10 8d e5  	str	r1, [sp, #4]
    f0a4: ff ff ff ea  	b	#-4 <_ZN4core5slice4iter87_$LT$impl$u20$core..iter..traits..collect..IntoIterator$u20$for$u20$$RF$$u5b$T$u5d$$GT$9into_iter17hbb5dcc1a8a1ccab4E+0x20>
    f0a8: 04 10 9d e5  	ldr	r1, [sp, #4]
    f0ac: 00 00 9d e5  	ldr	r0, [sp]
    f0b0: 10 d0 8d e2  	add	sp, sp, #16
    f0b4: 00 88 bd e8  	pop	{r11, pc}

0000f0b8 <_ZN4core5slice4iter13Iter$LT$T$GT$3new17h4427525444ee9a6aE>:
    f0b8: 00 48 2d e9  	push	{r11, lr}
    f0bc: 50 d0 4d e2  	sub	sp, sp, #80
    f0c0: 08 10 8d e5  	str	r1, [sp, #8]
    f0c4: 1c 00 8d e5  	str	r0, [sp, #28]
    f0c8: 20 10 8d e5  	str	r1, [sp, #32]
    f0cc: 37 03 00 eb  	bl	#3292 <_ZN4core5slice29_$LT$impl$u20$$u5b$T$u5d$$GT$6as_ptr17h4c0ffc438ec46671E>
    f0d0: 00 10 a0 e1  	mov	r1, r0
    f0d4: 0c 10 8d e5  	str	r1, [sp, #12]
    f0d8: 24 00 8d e5  	str	r0, [sp, #36]
    f0dc: ff ff ff ea  	b	#-4 <_ZN4core5slice4iter13Iter$LT$T$GT$3new17h4427525444ee9a6aE+0x28>
    f0e0: 0c 00 9d e5  	ldr	r0, [sp, #12]
    f0e4: 46 eb ff eb  	bl	#-21224 <_ZN4core3ptr9const_ptr33_$LT$impl$u20$$BP$const$u20$T$GT$7is_null17h01921eafcee4a16bE>
    f0e8: ff ff ff ea  	b	#-4 <_ZN4core5slice4iter13Iter$LT$T$GT$3new17h4427525444ee9a6aE+0x34>
    f0ec: ff ff ff ea  	b	#-4 <_ZN4core5slice4iter13Iter$LT$T$GT$3new17h4427525444ee9a6aE+0x38>
    f0f0: ff ff ff ea  	b	#-4 <_ZN4core5slice4iter13Iter$LT$T$GT$3new17h4427525444ee9a6aE+0x3c>
    f0f4: 01 00 a0 e3  	mov	r0, #1
    f0f8: 00 00 50 e3  	cmp	r0, #0
    f0fc: 0b 00 00 1a  	bne	#44 <_ZN4core5slice4iter13Iter$LT$T$GT$3new17h4427525444ee9a6aE+0x78>
    f100: ff ff ff ea  	b	#-4 <_ZN4core5slice4iter13Iter$LT$T$GT$3new17h4427525444ee9a6aE+0x4c>
    f104: 0c 00 9d e5  	ldr	r0, [sp, #12]
    f108: 08 10 9d e5  	ldr	r1, [sp, #8]
    f10c: 3c 00 8d e5  	str	r0, [sp, #60]
    f110: 40 10 8d e5  	str	r1, [sp, #64]
    f114: 44 00 8d e5  	str	r0, [sp, #68]
    f118: 48 10 8d e5  	str	r1, [sp, #72]
    f11c: 01 00 80 e0  	add	r0, r0, r1
    f120: 4c 00 8d e5  	str	r0, [sp, #76]
    f124: 4c 00 9d e5  	ldr	r0, [sp, #76]
    f128: 04 00 8d e5  	str	r0, [sp, #4]
    f12c: 0e 00 00 ea  	b	#56 <_ZN4core5slice4iter13Iter$LT$T$GT$3new17h4427525444ee9a6aE+0xb4>
    f130: 0c 00 9d e5  	ldr	r0, [sp, #12]
    f134: 08 10 9d e5  	ldr	r1, [sp, #8]
    f138: 28 00 8d e5  	str	r0, [sp, #40]
    f13c: 2c 10 8d e5  	str	r1, [sp, #44]
    f140: 30 00 8d e5  	str	r0, [sp, #48]
    f144: 34 10 8d e5  	str	r1, [sp, #52]
    f148: 81 01 80 e0  	add	r0, r0, r1, lsl #3
    f14c: 38 00 8d e5  	str	r0, [sp, #56]
    f150: 38 00 9d e5  	ldr	r0, [sp, #56]
    f154: 18 00 8d e5  	str	r0, [sp, #24]
    f158: ff ff ff ea  	b	#-4 <_ZN4core5slice4iter13Iter$LT$T$GT$3new17h4427525444ee9a6aE+0xa4>
    f15c: 0c 00 9d e5  	ldr	r0, [sp, #12]
    f160: f1 ea ff eb  	bl	#-21564 <_ZN4core3ptr8non_null16NonNull$LT$T$GT$13new_unchecked17h311ebeac35d490ecE>
    f164: 00 00 8d e5  	str	r0, [sp]
    f168: 02 00 00 ea  	b	#8 <_ZN4core5slice4iter13Iter$LT$T$GT$3new17h4427525444ee9a6aE+0xc0>
    f16c: 04 00 9d e5  	ldr	r0, [sp, #4]
    f170: 18 00 8d e5  	str	r0, [sp, #24]
    f174: f8 ff ff ea  	b	#-32 <_ZN4core5slice4iter13Iter$LT$T$GT$3new17h4427525444ee9a6aE+0xa4>
    f178: 00 10 9d e5  	ldr	r1, [sp]
    f17c: 18 00 9d e5  	ldr	r0, [sp, #24]
    f180: 10 10 8d e5  	str	r1, [sp, #16]
    f184: 14 00 8d e5  	str	r0, [sp, #20]
    f188: 10 00 9d e5  	ldr	r0, [sp, #16]
    f18c: 14 10 9d e5  	ldr	r1, [sp, #20]
    f190: 50 d0 8d e2  	add	sp, sp, #80
    f194: 00 88 bd e8  	pop	{r11, pc}

0000f198 <_ZN4core5slice4iter13Iter$LT$T$GT$3new17h67d8f23c224d959aE>:
    f198: 00 48 2d e9  	push	{r11, lr}
    f19c: 50 d0 4d e2  	sub	sp, sp, #80
    f1a0: 08 10 8d e5  	str	r1, [sp, #8]
    f1a4: 1c 00 8d e5  	str	r0, [sp, #28]
    f1a8: 20 10 8d e5  	str	r1, [sp, #32]
    f1ac: 04 03 00 eb  	bl	#3088 <_ZN4core5slice29_$LT$impl$u20$$u5b$T$u5d$$GT$6as_ptr17h5a33363efb66d240E>
    f1b0: 00 10 a0 e1  	mov	r1, r0
    f1b4: 0c 10 8d e5  	str	r1, [sp, #12]
    f1b8: 24 00 8d e5  	str	r0, [sp, #36]
    f1bc: ff ff ff ea  	b	#-4 <_ZN4core5slice4iter13Iter$LT$T$GT$3new17h67d8f23c224d959aE+0x28>
    f1c0: 0c 00 9d e5  	ldr	r0, [sp, #12]
    f1c4: 1c eb ff eb  	bl	#-21392 <_ZN4core3ptr9const_ptr33_$LT$impl$u20$$BP$const$u20$T$GT$7is_null17h099dd4bded18252fE>
    f1c8: ff ff ff ea  	b	#-4 <_ZN4core5slice4iter13Iter$LT$T$GT$3new17h67d8f23c224d959aE+0x34>
    f1cc: ff ff ff ea  	b	#-4 <_ZN4core5slice4iter13Iter$LT$T$GT$3new17h67d8f23c224d959aE+0x38>
    f1d0: ff ff ff ea  	b	#-4 <_ZN4core5slice4iter13Iter$LT$T$GT$3new17h67d8f23c224d959aE+0x3c>
    f1d4: 01 00 a0 e3  	mov	r0, #1
    f1d8: 00 00 50 e3  	cmp	r0, #0
    f1dc: 0b 00 00 1a  	bne	#44 <_ZN4core5slice4iter13Iter$LT$T$GT$3new17h67d8f23c224d959aE+0x78>
    f1e0: ff ff ff ea  	b	#-4 <_ZN4core5slice4iter13Iter$LT$T$GT$3new17h67d8f23c224d959aE+0x4c>
    f1e4: 0c 00 9d e5  	ldr	r0, [sp, #12]
    f1e8: 08 10 9d e5  	ldr	r1, [sp, #8]
    f1ec: 3c 00 8d e5  	str	r0, [sp, #60]
    f1f0: 40 10 8d e5  	str	r1, [sp, #64]
    f1f4: 44 00 8d e5  	str	r0, [sp, #68]
    f1f8: 48 10 8d e5  	str	r1, [sp, #72]
    f1fc: 01 00 80 e0  	add	r0, r0, r1
    f200: 4c 00 8d e5  	str	r0, [sp, #76]
    f204: 4c 00 9d e5  	ldr	r0, [sp, #76]
    f208: 04 00 8d e5  	str	r0, [sp, #4]
    f20c: 0e 00 00 ea  	b	#56 <_ZN4core5slice4iter13Iter$LT$T$GT$3new17h67d8f23c224d959aE+0xb4>
    f210: 0c 00 9d e5  	ldr	r0, [sp, #12]
    f214: 08 10 9d e5  	ldr	r1, [sp, #8]
    f218: 28 00 8d e5  	str	r0, [sp, #40]
    f21c: 2c 10 8d e5  	str	r1, [sp, #44]
    f220: 30 00 8d e5  	str	r0, [sp, #48]
    f224: 34 10 8d e5  	str	r1, [sp, #52]
    f228: 81 02 80 e0  	add	r0, r0, r1, lsl #5
    f22c: 38 00 8d e5  	str	r0, [sp, #56]
    f230: 38 00 9d e5  	ldr	r0, [sp, #56]
    f234: 18 00 8d e5  	str	r0, [sp, #24]
    f238: ff ff ff ea  	b	#-4 <_ZN4core5slice4iter13Iter$LT$T$GT$3new17h67d8f23c224d959aE+0xa4>
    f23c: 0c 00 9d e5  	ldr	r0, [sp, #12]
    f240: d1 ea ff eb  	bl	#-21692 <_ZN4core3ptr8non_null16NonNull$LT$T$GT$13new_unchecked17he5acd71300b46a98E>
    f244: 00 00 8d e5  	str	r0, [sp]
    f248: 02 00 00 ea  	b	#8 <_ZN4core5slice4iter13Iter$LT$T$GT$3new17h67d8f23c224d959aE+0xc0>
    f24c: 04 00 9d e5  	ldr	r0, [sp, #4]
    f250: 18 00 8d e5  	str	r0, [sp, #24]
    f254: f8 ff ff ea  	b	#-32 <_ZN4core5slice4iter13Iter$LT$T$GT$3new17h67d8f23c224d959aE+0xa4>
    f258: 00 10 9d e5  	ldr	r1, [sp]
    f25c: 18 00 9d e5  	ldr	r0, [sp, #24]
    f260: 10 10 8d e5  	str	r1, [sp, #16]
    f264: 14 00 8d e5  	str	r0, [sp, #20]
    f268: 10 00 9d e5  	ldr	r0, [sp, #16]
    f26c: 14 10 9d e5  	ldr	r1, [sp, #20]
    f270: 50 d0 8d e2  	add	sp, sp, #80
    f274: 00 88 bd e8  	pop	{r11, pc}

0000f278 <_ZN4core5slice4iter13Iter$LT$T$GT$3new17haa4062221ae42c46E>:
    f278: 00 48 2d e9  	push	{r11, lr}
    f27c: 50 d0 4d e2  	sub	sp, sp, #80
    f280: 08 10 8d e5  	str	r1, [sp, #8]
    f284: 1c 00 8d e5  	str	r0, [sp, #28]
    f288: 20 10 8d e5  	str	r1, [sp, #32]
    f28c: d6 02 00 eb  	bl	#2904 <_ZN4core5slice29_$LT$impl$u20$$u5b$T$u5d$$GT$6as_ptr17h992ac04f5ee14697E>
    f290: 00 10 a0 e1  	mov	r1, r0
    f294: 0c 10 8d e5  	str	r1, [sp, #12]
    f298: 24 00 8d e5  	str	r0, [sp, #36]
    f29c: ff ff ff ea  	b	#-4 <_ZN4core5slice4iter13Iter$LT$T$GT$3new17haa4062221ae42c46E+0x28>
    f2a0: 0c 00 9d e5  	ldr	r0, [sp, #12]
    f2a4: 00 eb ff eb  	bl	#-21504 <_ZN4core3ptr9const_ptr33_$LT$impl$u20$$BP$const$u20$T$GT$7is_null17ha263ef11114199f5E>
    f2a8: ff ff ff ea  	b	#-4 <_ZN4core5slice4iter13Iter$LT$T$GT$3new17haa4062221ae42c46E+0x34>
    f2ac: ff ff ff ea  	b	#-4 <_ZN4core5slice4iter13Iter$LT$T$GT$3new17haa4062221ae42c46E+0x38>
    f2b0: ff ff ff ea  	b	#-4 <_ZN4core5slice4iter13Iter$LT$T$GT$3new17haa4062221ae42c46E+0x3c>
    f2b4: 01 00 a0 e3  	mov	r0, #1
    f2b8: 00 00 50 e3  	cmp	r0, #0
    f2bc: 0b 00 00 1a  	bne	#44 <_ZN4core5slice4iter13Iter$LT$T$GT$3new17haa4062221ae42c46E+0x78>
    f2c0: ff ff ff ea  	b	#-4 <_ZN4core5slice4iter13Iter$LT$T$GT$3new17haa4062221ae42c46E+0x4c>
    f2c4: 0c 00 9d e5  	ldr	r0, [sp, #12]
    f2c8: 08 10 9d e5  	ldr	r1, [sp, #8]
    f2cc: 3c 00 8d e5  	str	r0, [sp, #60]
    f2d0: 40 10 8d e5  	str	r1, [sp, #64]
    f2d4: 44 00 8d e5  	str	r0, [sp, #68]
    f2d8: 48 10 8d e5  	str	r1, [sp, #72]
    f2dc: 01 00 80 e0  	add	r0, r0, r1
    f2e0: 4c 00 8d e5  	str	r0, [sp, #76]
    f2e4: 4c 00 9d e5  	ldr	r0, [sp, #76]
    f2e8: 04 00 8d e5  	str	r0, [sp, #4]
    f2ec: 0e 00 00 ea  	b	#56 <_ZN4core5slice4iter13Iter$LT$T$GT$3new17haa4062221ae42c46E+0xb4>
    f2f0: 0c 00 9d e5  	ldr	r0, [sp, #12]
    f2f4: 08 10 9d e5  	ldr	r1, [sp, #8]
    f2f8: 28 00 8d e5  	str	r0, [sp, #40]
    f2fc: 2c 10 8d e5  	str	r1, [sp, #44]
    f300: 30 00 8d e5  	str	r0, [sp, #48]
    f304: 34 10 8d e5  	str	r1, [sp, #52]
    f308: 01 01 80 e0  	add	r0, r0, r1, lsl #2
    f30c: 38 00 8d e5  	str	r0, [sp, #56]
    f310: 38 00 9d e5  	ldr	r0, [sp, #56]
    f314: 18 00 8d e5  	str	r0, [sp, #24]
    f318: ff ff ff ea  	b	#-4 <_ZN4core5slice4iter13Iter$LT$T$GT$3new17haa4062221ae42c46E+0xa4>
    f31c: 0c 00 9d e5  	ldr	r0, [sp, #12]
    f320: 7b ea ff eb  	bl	#-22036 <_ZN4core3ptr8non_null16NonNull$LT$T$GT$13new_unchecked17h0ee93a64da3b0115E>
    f324: 00 00 8d e5  	str	r0, [sp]
    f328: 02 00 00 ea  	b	#8 <_ZN4core5slice4iter13Iter$LT$T$GT$3new17haa4062221ae42c46E+0xc0>
    f32c: 04 00 9d e5  	ldr	r0, [sp, #4]
    f330: 18 00 8d e5  	str	r0, [sp, #24]
    f334: f8 ff ff ea  	b	#-32 <_ZN4core5slice4iter13Iter$LT$T$GT$3new17haa4062221ae42c46E+0xa4>
    f338: 00 10 9d e5  	ldr	r1, [sp]
    f33c: 18 00 9d e5  	ldr	r0, [sp, #24]
    f340: 10 10 8d e5  	str	r1, [sp, #16]
    f344: 14 00 8d e5  	str	r0, [sp, #20]
    f348: 10 00 9d e5  	ldr	r0, [sp, #16]
    f34c: 14 10 9d e5  	ldr	r1, [sp, #20]
    f350: 50 d0 8d e2  	add	sp, sp, #80
    f354: 00 88 bd e8  	pop	{r11, pc}

0000f358 <_ZN4core5slice4iter13Iter$LT$T$GT$3new17hb77f1747bbaef115E>:
    f358: 00 48 2d e9  	push	{r11, lr}
    f35c: 50 d0 4d e2  	sub	sp, sp, #80
    f360: 08 10 8d e5  	str	r1, [sp, #8]
    f364: 1c 00 8d e5  	str	r0, [sp, #28]
    f368: 20 10 8d e5  	str	r1, [sp, #32]
    f36c: a3 02 00 eb  	bl	#2700 <_ZN4core5slice29_$LT$impl$u20$$u5b$T$u5d$$GT$6as_ptr17he76bcbec392c544eE>
    f370: 00 10 a0 e1  	mov	r1, r0
    f374: 0c 10 8d e5  	str	r1, [sp, #12]
    f378: 24 00 8d e5  	str	r0, [sp, #36]
    f37c: ff ff ff ea  	b	#-4 <_ZN4core5slice4iter13Iter$LT$T$GT$3new17hb77f1747bbaef115E+0x28>
    f380: 0c 00 9d e5  	ldr	r0, [sp, #12]
    f384: ba ea ff eb  	bl	#-21784 <_ZN4core3ptr9const_ptr33_$LT$impl$u20$$BP$const$u20$T$GT$7is_null17h8bf2c1c38017a24bE>
    f388: ff ff ff ea  	b	#-4 <_ZN4core5slice4iter13Iter$LT$T$GT$3new17hb77f1747bbaef115E+0x34>
    f38c: ff ff ff ea  	b	#-4 <_ZN4core5slice4iter13Iter$LT$T$GT$3new17hb77f1747bbaef115E+0x38>
    f390: ff ff ff ea  	b	#-4 <_ZN4core5slice4iter13Iter$LT$T$GT$3new17hb77f1747bbaef115E+0x3c>
    f394: 01 00 a0 e3  	mov	r0, #1
    f398: 00 00 50 e3  	cmp	r0, #0
    f39c: 0b 00 00 1a  	bne	#44 <_ZN4core5slice4iter13Iter$LT$T$GT$3new17hb77f1747bbaef115E+0x78>
    f3a0: ff ff ff ea  	b	#-4 <_ZN4core5slice4iter13Iter$LT$T$GT$3new17hb77f1747bbaef115E+0x4c>
    f3a4: 0c 00 9d e5  	ldr	r0, [sp, #12]
    f3a8: 08 10 9d e5  	ldr	r1, [sp, #8]
    f3ac: 3c 00 8d e5  	str	r0, [sp, #60]
    f3b0: 40 10 8d e5  	str	r1, [sp, #64]
    f3b4: 44 00 8d e5  	str	r0, [sp, #68]
    f3b8: 48 10 8d e5  	str	r1, [sp, #72]
    f3bc: 01 00 80 e0  	add	r0, r0, r1
    f3c0: 4c 00 8d e5  	str	r0, [sp, #76]
    f3c4: 4c 00 9d e5  	ldr	r0, [sp, #76]
    f3c8: 04 00 8d e5  	str	r0, [sp, #4]
    f3cc: 0e 00 00 ea  	b	#56 <_ZN4core5slice4iter13Iter$LT$T$GT$3new17hb77f1747bbaef115E+0xb4>
    f3d0: 0c 00 9d e5  	ldr	r0, [sp, #12]
    f3d4: 08 10 9d e5  	ldr	r1, [sp, #8]
    f3d8: 28 00 8d e5  	str	r0, [sp, #40]
    f3dc: 2c 10 8d e5  	str	r1, [sp, #44]
    f3e0: 30 00 8d e5  	str	r0, [sp, #48]
    f3e4: 34 10 8d e5  	str	r1, [sp, #52]
    f3e8: 01 00 80 e0  	add	r0, r0, r1
    f3ec: 38 00 8d e5  	str	r0, [sp, #56]
    f3f0: 38 00 9d e5  	ldr	r0, [sp, #56]
    f3f4: 18 00 8d e5  	str	r0, [sp, #24]
    f3f8: ff ff ff ea  	b	#-4 <_ZN4core5slice4iter13Iter$LT$T$GT$3new17hb77f1747bbaef115E+0xa4>
    f3fc: 0c 00 9d e5  	ldr	r0, [sp, #12]
    f400: 5b ea ff eb  	bl	#-22164 <_ZN4core3ptr8non_null16NonNull$LT$T$GT$13new_unchecked17ha617d323a7fc3e1eE>
    f404: 00 00 8d e5  	str	r0, [sp]
    f408: 02 00 00 ea  	b	#8 <_ZN4core5slice4iter13Iter$LT$T$GT$3new17hb77f1747bbaef115E+0xc0>
    f40c: 04 00 9d e5  	ldr	r0, [sp, #4]
    f410: 18 00 8d e5  	str	r0, [sp, #24]
    f414: f8 ff ff ea  	b	#-32 <_ZN4core5slice4iter13Iter$LT$T$GT$3new17hb77f1747bbaef115E+0xa4>
    f418: 00 10 9d e5  	ldr	r1, [sp]
    f41c: 18 00 9d e5  	ldr	r0, [sp, #24]
    f420: 10 10 8d e5  	str	r1, [sp, #16]
    f424: 14 00 8d e5  	str	r0, [sp, #20]
    f428: 10 00 9d e5  	ldr	r0, [sp, #16]
    f42c: 14 10 9d e5  	ldr	r1, [sp, #20]
    f430: 50 d0 8d e2  	add	sp, sp, #80
    f434: 00 88 bd e8  	pop	{r11, pc}

0000f438 <_ZN4core5slice4iter13Iter$LT$T$GT$3new17hbb1f906be78fe598E>:
    f438: 00 48 2d e9  	push	{r11, lr}
    f43c: 50 d0 4d e2  	sub	sp, sp, #80
    f440: 08 10 8d e5  	str	r1, [sp, #8]
    f444: 1c 00 8d e5  	str	r0, [sp, #28]
    f448: 20 10 8d e5  	str	r1, [sp, #32]
    f44c: 61 02 00 eb  	bl	#2436 <_ZN4core5slice29_$LT$impl$u20$$u5b$T$u5d$$GT$6as_ptr17h6b8941cd08966201E>
    f450: 00 10 a0 e1  	mov	r1, r0
    f454: 0c 10 8d e5  	str	r1, [sp, #12]
    f458: 24 00 8d e5  	str	r0, [sp, #36]
    f45c: ff ff ff ea  	b	#-4 <_ZN4core5slice4iter13Iter$LT$T$GT$3new17hbb1f906be78fe598E+0x28>
    f460: 0c 00 9d e5  	ldr	r0, [sp, #12]
    f464: 9e ea ff eb  	bl	#-21896 <_ZN4core3ptr9const_ptr33_$LT$impl$u20$$BP$const$u20$T$GT$7is_null17ha3dab16996a599e5E>
    f468: ff ff ff ea  	b	#-4 <_ZN4core5slice4iter13Iter$LT$T$GT$3new17hbb1f906be78fe598E+0x34>
    f46c: ff ff ff ea  	b	#-4 <_ZN4core5slice4iter13Iter$LT$T$GT$3new17hbb1f906be78fe598E+0x38>
    f470: ff ff ff ea  	b	#-4 <_ZN4core5slice4iter13Iter$LT$T$GT$3new17hbb1f906be78fe598E+0x3c>
    f474: 01 00 a0 e3  	mov	r0, #1
    f478: 00 00 50 e3  	cmp	r0, #0
    f47c: 0b 00 00 1a  	bne	#44 <_ZN4core5slice4iter13Iter$LT$T$GT$3new17hbb1f906be78fe598E+0x78>
    f480: ff ff ff ea  	b	#-4 <_ZN4core5slice4iter13Iter$LT$T$GT$3new17hbb1f906be78fe598E+0x4c>
    f484: 0c 00 9d e5  	ldr	r0, [sp, #12]
    f488: 08 10 9d e5  	ldr	r1, [sp, #8]
    f48c: 3c 00 8d e5  	str	r0, [sp, #60]
    f490: 40 10 8d e5  	str	r1, [sp, #64]
    f494: 44 00 8d e5  	str	r0, [sp, #68]
    f498: 48 10 8d e5  	str	r1, [sp, #72]
    f49c: 01 00 80 e0  	add	r0, r0, r1
    f4a0: 4c 00 8d e5  	str	r0, [sp, #76]
    f4a4: 4c 00 9d e5  	ldr	r0, [sp, #76]
    f4a8: 04 00 8d e5  	str	r0, [sp, #4]
    f4ac: 0e 00 00 ea  	b	#56 <_ZN4core5slice4iter13Iter$LT$T$GT$3new17hbb1f906be78fe598E+0xb4>
    f4b0: 0c 00 9d e5  	ldr	r0, [sp, #12]
    f4b4: 08 10 9d e5  	ldr	r1, [sp, #8]
    f4b8: 28 00 8d e5  	str	r0, [sp, #40]
    f4bc: 2c 10 8d e5  	str	r1, [sp, #44]
    f4c0: 30 00 8d e5  	str	r0, [sp, #48]
    f4c4: 34 10 8d e5  	str	r1, [sp, #52]
    f4c8: 01 02 80 e0  	add	r0, r0, r1, lsl #4
    f4cc: 38 00 8d e5  	str	r0, [sp, #56]
    f4d0: 38 00 9d e5  	ldr	r0, [sp, #56]
    f4d4: 18 00 8d e5  	str	r0, [sp, #24]
    f4d8: ff ff ff ea  	b	#-4 <_ZN4core5slice4iter13Iter$LT$T$GT$3new17hbb1f906be78fe598E+0xa4>
    f4dc: 0c 00 9d e5  	ldr	r0, [sp, #12]
    f4e0: 1d ea ff eb  	bl	#-22412 <_ZN4core3ptr8non_null16NonNull$LT$T$GT$13new_unchecked17h9fac1d850925ce4dE>
    f4e4: 00 00 8d e5  	str	r0, [sp]
    f4e8: 02 00 00 ea  	b	#8 <_ZN4core5slice4iter13Iter$LT$T$GT$3new17hbb1f906be78fe598E+0xc0>
    f4ec: 04 00 9d e5  	ldr	r0, [sp, #4]
    f4f0: 18 00 8d e5  	str	r0, [sp, #24]
    f4f4: f8 ff ff ea  	b	#-32 <_ZN4core5slice4iter13Iter$LT$T$GT$3new17hbb1f906be78fe598E+0xa4>
    f4f8: 00 10 9d e5  	ldr	r1, [sp]
    f4fc: 18 00 9d e5  	ldr	r0, [sp, #24]
    f500: 10 10 8d e5  	str	r1, [sp, #16]
    f504: 14 00 8d e5  	str	r0, [sp, #20]
    f508: 10 00 9d e5  	ldr	r0, [sp, #16]
    f50c: 14 10 9d e5  	ldr	r1, [sp, #20]
    f510: 50 d0 8d e2  	add	sp, sp, #80
    f514: 00 88 bd e8  	pop	{r11, pc}

0000f518 <_ZN4core5slice4iter13Iter$LT$T$GT$8as_slice17h327dee1e392d377aE>:
    f518: 00 48 2d e9  	push	{r11, lr}
    f51c: 38 d0 4d e2  	sub	sp, sp, #56
    f520: 00 00 8d e5  	str	r0, [sp]
    f524: 18 00 8d e5  	str	r0, [sp, #24]
    f528: 20 00 8d e5  	str	r0, [sp, #32]
    f52c: 00 00 90 e5  	ldr	r0, [r0]
    f530: 1f ea ff eb  	bl	#-22404 <_ZN4core3ptr8non_null16NonNull$LT$T$GT$6as_ptr17h761e972d0d67cfa0E>
    f534: 00 10 a0 e1  	mov	r1, r0
    f538: 00 00 9d e5  	ldr	r0, [sp]
    f53c: 0c 10 8d e5  	str	r1, [sp, #12]
    f540: 00 00 90 e5  	ldr	r0, [r0]
    f544: 04 00 8d e5  	str	r0, [sp, #4]
    f548: 24 00 8d e5  	str	r0, [sp, #36]
    f54c: 18 ea ff eb  	bl	#-22432 <_ZN4core3ptr8non_null16NonNull$LT$T$GT$6as_ptr17h761e972d0d67cfa0E>
    f550: 00 10 9d e5  	ldr	r1, [sp]
    f554: 00 20 a0 e1  	mov	r2, r0
    f558: 04 00 9d e5  	ldr	r0, [sp, #4]
    f55c: 34 20 8d e5  	str	r2, [sp, #52]
    f560: 01 20 a0 e3  	mov	r2, #1
    f564: 28 20 8d e5  	str	r2, [sp, #40]
    f568: 04 10 91 e5  	ldr	r1, [r1, #4]
    f56c: 08 10 8d e5  	str	r1, [sp, #8]
    f570: 0f ea ff eb  	bl	#-22468 <_ZN4core3ptr8non_null16NonNull$LT$T$GT$6as_ptr17h761e972d0d67cfa0E>
    f574: 08 10 9d e5  	ldr	r1, [sp, #8]
    f578: 00 20 a0 e1  	mov	r2, r0
    f57c: 0c 00 9d e5  	ldr	r0, [sp, #12]
    f580: 02 10 41 e0  	sub	r1, r1, r2
    f584: 2c 10 8d e5  	str	r1, [sp, #44]
    f588: 2c 10 9d e5  	ldr	r1, [sp, #44]
    f58c: 30 10 8d e5  	str	r1, [sp, #48]
    f590: 1c 10 8d e5  	str	r1, [sp, #28]
    f594: 1c 10 9d e5  	ldr	r1, [sp, #28]
    f598: 91 00 00 eb  	bl	#580 <_ZN4core5slice3raw14from_raw_parts17h2c7aceaf3e66256fE>
    f59c: 10 00 8d e5  	str	r0, [sp, #16]
    f5a0: 14 10 8d e5  	str	r1, [sp, #20]
    f5a4: ff ff ff ea  	b	#-4 <_ZN4core5slice4iter13Iter$LT$T$GT$8as_slice17h327dee1e392d377aE+0x90>
    f5a8: 14 10 9d e5  	ldr	r1, [sp, #20]
    f5ac: 10 00 9d e5  	ldr	r0, [sp, #16]
    f5b0: 38 d0 8d e2  	add	sp, sp, #56
    f5b4: 00 88 bd e8  	pop	{r11, pc}

0000f5b8 <_ZN4core5slice4iter16IterMut$LT$T$GT$3new17h185c59486b1ace69E>:
    f5b8: 00 48 2d e9  	push	{r11, lr}
    f5bc: 50 d0 4d e2  	sub	sp, sp, #80
    f5c0: 08 10 8d e5  	str	r1, [sp, #8]
    f5c4: 1c 00 8d e5  	str	r0, [sp, #28]
    f5c8: 20 10 8d e5  	str	r1, [sp, #32]
    f5cc: 10 02 00 eb  	bl	#2112 <_ZN4core5slice29_$LT$impl$u20$$u5b$T$u5d$$GT$10as_mut_ptr17h0d88c70547a3eecaE>
    f5d0: 00 10 a0 e1  	mov	r1, r0
    f5d4: 0c 10 8d e5  	str	r1, [sp, #12]
    f5d8: 24 00 8d e5  	str	r0, [sp, #36]
    f5dc: ff ff ff ea  	b	#-4 <_ZN4core5slice4iter16IterMut$LT$T$GT$3new17h185c59486b1ace69E+0x28>
    f5e0: 0c 00 9d e5  	ldr	r0, [sp, #12]
    f5e4: b3 ea ff eb  	bl	#-21812 <_ZN4core3ptr7mut_ptr31_$LT$impl$u20$$BP$mut$u20$T$GT$7is_null17h90840b4ddc66cc04E>
    f5e8: ff ff ff ea  	b	#-4 <_ZN4core5slice4iter16IterMut$LT$T$GT$3new17h185c59486b1ace69E+0x34>
    f5ec: ff ff ff ea  	b	#-4 <_ZN4core5slice4iter16IterMut$LT$T$GT$3new17h185c59486b1ace69E+0x38>
    f5f0: ff ff ff ea  	b	#-4 <_ZN4core5slice4iter16IterMut$LT$T$GT$3new17h185c59486b1ace69E+0x3c>
    f5f4: 01 00 a0 e3  	mov	r0, #1
    f5f8: 00 00 50 e3  	cmp	r0, #0
    f5fc: 0b 00 00 1a  	bne	#44 <_ZN4core5slice4iter16IterMut$LT$T$GT$3new17h185c59486b1ace69E+0x78>
    f600: ff ff ff ea  	b	#-4 <_ZN4core5slice4iter16IterMut$LT$T$GT$3new17h185c59486b1ace69E+0x4c>
    f604: 0c 00 9d e5  	ldr	r0, [sp, #12]
    f608: 08 10 9d e5  	ldr	r1, [sp, #8]
    f60c: 3c 00 8d e5  	str	r0, [sp, #60]
    f610: 40 10 8d e5  	str	r1, [sp, #64]
    f614: 44 00 8d e5  	str	r0, [sp, #68]
    f618: 48 10 8d e5  	str	r1, [sp, #72]
    f61c: 01 00 80 e0  	add	r0, r0, r1
    f620: 4c 00 8d e5  	str	r0, [sp, #76]
    f624: 4c 00 9d e5  	ldr	r0, [sp, #76]
    f628: 04 00 8d e5  	str	r0, [sp, #4]
    f62c: 0e 00 00 ea  	b	#56 <_ZN4core5slice4iter16IterMut$LT$T$GT$3new17h185c59486b1ace69E+0xb4>
    f630: 0c 00 9d e5  	ldr	r0, [sp, #12]
    f634: 08 10 9d e5  	ldr	r1, [sp, #8]
    f638: 28 00 8d e5  	str	r0, [sp, #40]
    f63c: 2c 10 8d e5  	str	r1, [sp, #44]
    f640: 30 00 8d e5  	str	r0, [sp, #48]
    f644: 34 10 8d e5  	str	r1, [sp, #52]
    f648: 01 00 80 e0  	add	r0, r0, r1
    f64c: 38 00 8d e5  	str	r0, [sp, #56]
    f650: 38 00 9d e5  	ldr	r0, [sp, #56]
    f654: 18 00 8d e5  	str	r0, [sp, #24]
    f658: ff ff ff ea  	b	#-4 <_ZN4core5slice4iter16IterMut$LT$T$GT$3new17h185c59486b1ace69E+0xa4>
    f65c: 0c 00 9d e5  	ldr	r0, [sp, #12]
    f660: b7 e9 ff eb  	bl	#-22820 <_ZN4core3ptr8non_null16NonNull$LT$T$GT$13new_unchecked17h9e203cabf018418aE>
    f664: 00 00 8d e5  	str	r0, [sp]
    f668: 02 00 00 ea  	b	#8 <_ZN4core5slice4iter16IterMut$LT$T$GT$3new17h185c59486b1ace69E+0xc0>
    f66c: 04 00 9d e5  	ldr	r0, [sp, #4]
    f670: 18 00 8d e5  	str	r0, [sp, #24]
    f674: f8 ff ff ea  	b	#-32 <_ZN4core5slice4iter16IterMut$LT$T$GT$3new17h185c59486b1ace69E+0xa4>
    f678: 00 10 9d e5  	ldr	r1, [sp]
    f67c: 18 00 9d e5  	ldr	r0, [sp, #24]
    f680: 10 10 8d e5  	str	r1, [sp, #16]
    f684: 14 00 8d e5  	str	r0, [sp, #20]
    f688: 10 00 9d e5  	ldr	r0, [sp, #16]
    f68c: 14 10 9d e5  	ldr	r1, [sp, #20]
    f690: 50 d0 8d e2  	add	sp, sp, #80
    f694: 00 88 bd e8  	pop	{r11, pc}

0000f698 <_ZN4core5slice4iter15Chunks$LT$T$GT$3new17hf45b747296ab98caE>:
    f698: 0c d0 4d e2  	sub	sp, sp, #12
    f69c: 00 10 8d e5  	str	r1, [sp]
    f6a0: 04 20 8d e5  	str	r2, [sp, #4]
    f6a4: 08 30 8d e5  	str	r3, [sp, #8]
    f6a8: 00 10 80 e5  	str	r1, [r0]
    f6ac: 04 20 80 e5  	str	r2, [r0, #4]
    f6b0: 08 30 80 e5  	str	r3, [r0, #8]
    f6b4: 0c d0 8d e2  	add	sp, sp, #12
    f6b8: 1e ff 2f e1  	bx	lr

0000f6bc <_ZN93_$LT$core..slice..iter..Chunks$LT$T$GT$$u20$as$u20$core..iter..traits..iterator..Iterator$GT$4next17h8a48ec6c676315b6E>:
    f6bc: 00 48 2d e9  	push	{r11, lr}
    f6c0: 40 d0 4d e2  	sub	sp, sp, #64
    f6c4: 00 10 a0 e1  	mov	r1, r0
    f6c8: 08 10 8d e5  	str	r1, [sp, #8]
    f6cc: 28 10 8d e5  	str	r1, [sp, #40]
    f6d0: 00 00 91 e5  	ldr	r0, [r1]
    f6d4: 04 10 91 e5  	ldr	r1, [r1, #4]
    f6d8: 28 01 00 eb  	bl	#1184 <_ZN4core5slice29_$LT$impl$u20$$u5b$T$u5d$$GT$8is_empty17h7a896da0465f87a7E>
    f6dc: 0c 00 8d e5  	str	r0, [sp, #12]
    f6e0: ff ff ff ea  	b	#-4 <_ZN93_$LT$core..slice..iter..Chunks$LT$T$GT$$u20$as$u20$core..iter..traits..iterator..Iterator$GT$4next17h8a48ec6c676315b6E+0x28>
    f6e4: 0c 00 9d e5  	ldr	r0, [sp, #12]
    f6e8: 01 00 10 e3  	tst	r0, #1
    f6ec: 08 00 00 1a  	bne	#32 <_ZN93_$LT$core..slice..iter..Chunks$LT$T$GT$$u20$as$u20$core..iter..traits..iterator..Iterator$GT$4next17h8a48ec6c676315b6E+0x58>
    f6f0: ff ff ff ea  	b	#-4 <_ZN93_$LT$core..slice..iter..Chunks$LT$T$GT$$u20$as$u20$core..iter..traits..iterator..Iterator$GT$4next17h8a48ec6c676315b6E+0x38>
    f6f4: 08 10 9d e5  	ldr	r1, [sp, #8]
    f6f8: 04 00 91 e5  	ldr	r0, [r1, #4]
    f6fc: 08 10 91 e5  	ldr	r1, [r1, #8]
    f700: 5b ed ff eb  	bl	#-19092 <_ZN4core3cmp3min17h6d687506da1e36f6E>
    f704: 00 10 a0 e1  	mov	r1, r0
    f708: 04 10 8d e5  	str	r1, [sp, #4]
    f70c: 2c 00 8d e5  	str	r0, [sp, #44]
    f710: 08 00 00 ea  	b	#32 <_ZN93_$LT$core..slice..iter..Chunks$LT$T$GT$$u20$as$u20$core..iter..traits..iterator..Iterator$GT$4next17h8a48ec6c676315b6E+0x7c>
    f714: 00 00 a0 e3  	mov	r0, #0
    f718: 14 00 8d e5  	str	r0, [sp, #20]
    f71c: 10 00 8d e5  	str	r0, [sp, #16]
    f720: 10 00 8d e5  	str	r0, [sp, #16]
    f724: ff ff ff ea  	b	#-4 <_ZN93_$LT$core..slice..iter..Chunks$LT$T$GT$$u20$as$u20$core..iter..traits..iterator..Iterator$GT$4next17h8a48ec6c676315b6E+0x6c>
    f728: 10 00 9d e5  	ldr	r0, [sp, #16]
    f72c: 14 10 9d e5  	ldr	r1, [sp, #20]
    f730: 40 d0 8d e2  	add	sp, sp, #64
    f734: 00 88 bd e8  	pop	{r11, pc}
    f738: 04 30 9d e5  	ldr	r3, [sp, #4]
    f73c: 08 00 9d e5  	ldr	r0, [sp, #8]
    f740: 00 10 90 e5  	ldr	r1, [r0]
    f744: 04 20 90 e5  	ldr	r2, [r0, #4]
    f748: 48 00 9f e5  	ldr	r0, [pc, #72]
    f74c: 0d c0 a0 e1  	mov	r12, sp
    f750: 00 00 8c e5  	str	r0, [r12]
    f754: 18 00 8d e2  	add	r0, sp, #24
    f758: f9 02 00 eb  	bl	#3044 <_ZN4core5slice29_$LT$impl$u20$$u5b$T$u5d$$GT$8split_at17h48379e8d17f6fd11E>
    f75c: ff ff ff ea  	b	#-4 <_ZN93_$LT$core..slice..iter..Chunks$LT$T$GT$$u20$as$u20$core..iter..traits..iterator..Iterator$GT$4next17h8a48ec6c676315b6E+0xa4>
    f760: 08 30 9d e5  	ldr	r3, [sp, #8]
    f764: 18 10 9d e5  	ldr	r1, [sp, #24]
    f768: 1c 00 9d e5  	ldr	r0, [sp, #28]
    f76c: 30 10 8d e5  	str	r1, [sp, #48]
    f770: 34 00 8d e5  	str	r0, [sp, #52]
    f774: 20 c0 9d e5  	ldr	r12, [sp, #32]
    f778: 24 20 9d e5  	ldr	r2, [sp, #36]
    f77c: 38 c0 8d e5  	str	r12, [sp, #56]
    f780: 3c 20 8d e5  	str	r2, [sp, #60]
    f784: 00 c0 83 e5  	str	r12, [r3]
    f788: 04 20 83 e5  	str	r2, [r3, #4]
    f78c: 10 10 8d e5  	str	r1, [sp, #16]
    f790: 14 00 8d e5  	str	r0, [sp, #20]
    f794: e3 ff ff ea  	b	#-116 <_ZN93_$LT$core..slice..iter..Chunks$LT$T$GT$$u20$as$u20$core..iter..traits..iterator..Iterator$GT$4next17h8a48ec6c676315b6E+0x6c>

0000f798 <$d.1669>:
    f798:	e0 5f 01 00	.word	0x00015fe0

0000f79c <_ZN4core5slice3raw14from_raw_parts17h09828842bb9f998dE>:
    f79c: 00 48 2d e9  	push	{r11, lr}
    f7a0: 18 d0 4d e2  	sub	sp, sp, #24
    f7a4: 08 10 8d e5  	str	r1, [sp, #8]
    f7a8: 0c 00 8d e5  	str	r0, [sp, #12]
    f7ac: 10 00 8d e5  	str	r0, [sp, #16]
    f7b0: 14 10 8d e5  	str	r1, [sp, #20]
    f7b4: 53 00 00 eb  	bl	#332 <_ZN4core5slice3raw20debug_check_data_len17h7668b6c06a10d396E>
    f7b8: ff ff ff ea  	b	#-4 <_ZN4core5slice3raw14from_raw_parts17h09828842bb9f998dE+0x20>
    f7bc: 08 10 9d e5  	ldr	r1, [sp, #8]
    f7c0: 0c 00 9d e5  	ldr	r0, [sp, #12]
    f7c4: c5 ea ff eb  	bl	#-21740 <_ZN4core3ptr20slice_from_raw_parts17h9ed24265d259b02cE>
    f7c8: 00 00 8d e5  	str	r0, [sp]
    f7cc: 04 10 8d e5  	str	r1, [sp, #4]
    f7d0: ff ff ff ea  	b	#-4 <_ZN4core5slice3raw14from_raw_parts17h09828842bb9f998dE+0x38>
    f7d4: 04 10 9d e5  	ldr	r1, [sp, #4]
    f7d8: 00 00 9d e5  	ldr	r0, [sp]
    f7dc: 18 d0 8d e2  	add	sp, sp, #24
    f7e0: 00 88 bd e8  	pop	{r11, pc}

0000f7e4 <_ZN4core5slice3raw14from_raw_parts17h2c7aceaf3e66256fE>:
    f7e4: 00 48 2d e9  	push	{r11, lr}
    f7e8: 18 d0 4d e2  	sub	sp, sp, #24
    f7ec: 08 10 8d e5  	str	r1, [sp, #8]
    f7f0: 0c 00 8d e5  	str	r0, [sp, #12]
    f7f4: 10 00 8d e5  	str	r0, [sp, #16]
    f7f8: 14 10 8d e5  	str	r1, [sp, #20]
    f7fc: 1c 00 00 eb  	bl	#112 <_ZN4core5slice3raw20debug_check_data_len17h760094dfb564f4e8E>
    f800: ff ff ff ea  	b	#-4 <_ZN4core5slice3raw14from_raw_parts17h2c7aceaf3e66256fE+0x20>
    f804: 08 10 9d e5  	ldr	r1, [sp, #8]
    f808: 0c 00 9d e5  	ldr	r0, [sp, #12]
    f80c: a1 ea ff eb  	bl	#-21884 <_ZN4core3ptr20slice_from_raw_parts17h7eb9f3b40e6a6c9aE>
    f810: 00 00 8d e5  	str	r0, [sp]
    f814: 04 10 8d e5  	str	r1, [sp, #4]
    f818: ff ff ff ea  	b	#-4 <_ZN4core5slice3raw14from_raw_parts17h2c7aceaf3e66256fE+0x38>
    f81c: 04 10 9d e5  	ldr	r1, [sp, #4]
    f820: 00 00 9d e5  	ldr	r0, [sp]
    f824: 18 d0 8d e2  	add	sp, sp, #24
    f828: 00 88 bd e8  	pop	{r11, pc}

0000f82c <_ZN4core5slice3raw14from_raw_parts17hc225916af7a02989E>:
    f82c: 00 48 2d e9  	push	{r11, lr}
    f830: 18 d0 4d e2  	sub	sp, sp, #24
    f834: 08 10 8d e5  	str	r1, [sp, #8]
    f838: 0c 00 8d e5  	str	r0, [sp, #12]
    f83c: 10 00 8d e5  	str	r0, [sp, #16]
    f840: 14 10 8d e5  	str	r1, [sp, #20]
    f844: 54 00 00 eb  	bl	#336 <_ZN4core5slice3raw20debug_check_data_len17hb789fe369cea3d77E>
    f848: ff ff ff ea  	b	#-4 <_ZN4core5slice3raw14from_raw_parts17hc225916af7a02989E+0x20>
    f84c: 08 10 9d e5  	ldr	r1, [sp, #8]
    f850: 0c 00 9d e5  	ldr	r0, [sp, #12]
    f854: 7d ea ff eb  	bl	#-22028 <_ZN4core3ptr20slice_from_raw_parts17h739fb1d7ea7e2968E>
    f858: 00 00 8d e5  	str	r0, [sp]
    f85c: 04 10 8d e5  	str	r1, [sp, #4]
    f860: ff ff ff ea  	b	#-4 <_ZN4core5slice3raw14from_raw_parts17hc225916af7a02989E+0x38>
    f864: 04 10 9d e5  	ldr	r1, [sp, #4]
    f868: 00 00 9d e5  	ldr	r0, [sp]
    f86c: 18 d0 8d e2  	add	sp, sp, #24
    f870: 00 88 bd e8  	pop	{r11, pc}

0000f874 <_ZN4core5slice3raw20debug_check_data_len17h760094dfb564f4e8E>:
    f874: 00 48 2d e9  	push	{r11, lr}
    f878: 30 d0 4d e2  	sub	sp, sp, #48
    f87c: 08 10 8d e5  	str	r1, [sp, #8]
    f880: 28 00 8d e5  	str	r0, [sp, #40]
    f884: 2c 10 8d e5  	str	r1, [sp, #44]
    f888: 0c 00 8d e5  	str	r0, [sp, #12]
    f88c: 0c 00 9d e5  	ldr	r0, [sp, #12]
    f890: 7a e8 ff eb  	bl	#-24088 <_ZN4core10intrinsics17const_eval_select17ha3ffe22ae3a1c2f8E>
    f894: ff ff ff ea  	b	#-4 <_ZN4core5slice3raw20debug_check_data_len17h760094dfb564f4e8E+0x24>
    f898: ff ff ff ea  	b	#-4 <_ZN4core5slice3raw20debug_check_data_len17h760094dfb564f4e8E+0x28>
    f89c: 08 10 9d e5  	ldr	r1, [sp, #8]
    f8a0: 01 00 a0 e3  	mov	r0, #1
    f8a4: 2f 09 00 eb  	bl	#9404 <_ZN4core3num23_$LT$impl$u20$usize$GT$14saturating_mul17he0e56fdf767fb9b6E>
    f8a8: 04 00 8d e5  	str	r0, [sp, #4]
    f8ac: ff ff ff ea  	b	#-4 <_ZN4core5slice3raw20debug_check_data_len17h760094dfb564f4e8E+0x3c>
    f8b0: 04 00 9d e5  	ldr	r0, [sp, #4]
    f8b4: 00 00 50 e3  	cmp	r0, #0
    f8b8: 02 00 00 4a  	bmi	#8 <_ZN4core5slice3raw20debug_check_data_len17h760094dfb564f4e8E+0x54>
    f8bc: ff ff ff ea  	b	#-4 <_ZN4core5slice3raw20debug_check_data_len17h760094dfb564f4e8E+0x4c>
    f8c0: 30 d0 8d e2  	add	sp, sp, #48
    f8c4: 00 88 bd e8  	pop	{r11, pc}
    f8c8: 0d 10 a0 e1  	mov	r1, sp
    f8cc: 00 00 a0 e3  	mov	r0, #0
    f8d0: 00 00 81 e5  	str	r0, [r1]
    f8d4: 20 10 9f e5  	ldr	r1, [pc, #32]
    f8d8: 20 30 9f e5  	ldr	r3, [pc, #32]
    f8dc: 10 00 8d e2  	add	r0, sp, #16
    f8e0: 01 20 a0 e3  	mov	r2, #1
    f8e4: d4 f5 ff eb  	bl	#-10416 <_ZN4core3fmt9Arguments6new_v117hd47ebd6f67dc7416E>
    f8e8: ff ff ff ea  	b	#-4 <_ZN4core5slice3raw20debug_check_data_len17h760094dfb564f4e8E+0x78>
    f8ec: 10 10 9f e5  	ldr	r1, [pc, #16]
    f8f0: 10 00 8d e2  	add	r0, sp, #16
    f8f4: a5 f1 ff eb  	bl	#-14700 <_ZN4core9panicking9panic_fmt17h22cd6c9efa5fe474E>
    f8f8: fe de ff e7  	trap

0000f8fc <$d.1677>:
    f8fc:	30 60 01 00	.word	0x00016030
    f900:	38 55 01 00	.word	0x00015538
    f904:	b0 60 01 00	.word	0x000160b0

0000f908 <_ZN4core5slice3raw20debug_check_data_len17h7668b6c06a10d396E>:
    f908: 00 48 2d e9  	push	{r11, lr}
    f90c: 30 d0 4d e2  	sub	sp, sp, #48
    f910: 08 10 8d e5  	str	r1, [sp, #8]
    f914: 28 00 8d e5  	str	r0, [sp, #40]
    f918: 2c 10 8d e5  	str	r1, [sp, #44]
    f91c: 0c 00 8d e5  	str	r0, [sp, #12]
    f920: 0c 00 9d e5  	ldr	r0, [sp, #12]
    f924: 4d e8 ff eb  	bl	#-24268 <_ZN4core10intrinsics17const_eval_select17h8009a97f66a39950E>
    f928: ff ff ff ea  	b	#-4 <_ZN4core5slice3raw20debug_check_data_len17h7668b6c06a10d396E+0x24>
    f92c: ff ff ff ea  	b	#-4 <_ZN4core5slice3raw20debug_check_data_len17h7668b6c06a10d396E+0x28>
    f930: 08 10 9d e5  	ldr	r1, [sp, #8]
    f934: 10 00 a0 e3  	mov	r0, #16
    f938: 0a 09 00 eb  	bl	#9256 <_ZN4core3num23_$LT$impl$u20$usize$GT$14saturating_mul17he0e56fdf767fb9b6E>
    f93c: 04 00 8d e5  	str	r0, [sp, #4]
    f940: ff ff ff ea  	b	#-4 <_ZN4core5slice3raw20debug_check_data_len17h7668b6c06a10d396E+0x3c>
    f944: 04 00 9d e5  	ldr	r0, [sp, #4]
    f948: 00 00 50 e3  	cmp	r0, #0
    f94c: 02 00 00 4a  	bmi	#8 <_ZN4core5slice3raw20debug_check_data_len17h7668b6c06a10d396E+0x54>
    f950: ff ff ff ea  	b	#-4 <_ZN4core5slice3raw20debug_check_data_len17h7668b6c06a10d396E+0x4c>
    f954: 30 d0 8d e2  	add	sp, sp, #48
    f958: 00 88 bd e8  	pop	{r11, pc}
    f95c: 0d 10 a0 e1  	mov	r1, sp
    f960: 00 00 a0 e3  	mov	r0, #0
    f964: 00 00 81 e5  	str	r0, [r1]
    f968: 20 10 9f e5  	ldr	r1, [pc, #32]
    f96c: 20 30 9f e5  	ldr	r3, [pc, #32]
    f970: 10 00 8d e2  	add	r0, sp, #16
    f974: 01 20 a0 e3  	mov	r2, #1
    f978: af f5 ff eb  	bl	#-10564 <_ZN4core3fmt9Arguments6new_v117hd47ebd6f67dc7416E>
    f97c: ff ff ff ea  	b	#-4 <_ZN4core5slice3raw20debug_check_data_len17h7668b6c06a10d396E+0x78>
    f980: 10 10 9f e5  	ldr	r1, [pc, #16]
    f984: 10 00 8d e2  	add	r0, sp, #16
    f988: 80 f1 ff eb  	bl	#-14848 <_ZN4core9panicking9panic_fmt17h22cd6c9efa5fe474E>
    f98c: fe de ff e7  	trap

0000f990 <$d.1679>:
    f990:	30 60 01 00	.word	0x00016030
    f994:	38 55 01 00	.word	0x00015538
    f998:	b0 60 01 00	.word	0x000160b0

0000f99c <_ZN4core5slice3raw20debug_check_data_len17hb789fe369cea3d77E>:
    f99c: 00 48 2d e9  	push	{r11, lr}
    f9a0: 30 d0 4d e2  	sub	sp, sp, #48
    f9a4: 08 10 8d e5  	str	r1, [sp, #8]
    f9a8: 28 00 8d e5  	str	r0, [sp, #40]
    f9ac: 2c 10 8d e5  	str	r1, [sp, #44]
    f9b0: 0c 00 8d e5  	str	r0, [sp, #12]
    f9b4: 0c 00 9d e5  	ldr	r0, [sp, #12]
    f9b8: 0f e8 ff eb  	bl	#-24516 <_ZN4core10intrinsics17const_eval_select17h41fe6b117cd2cd5aE>
    f9bc: ff ff ff ea  	b	#-4 <_ZN4core5slice3raw20debug_check_data_len17hb789fe369cea3d77E+0x24>
    f9c0: ff ff ff ea  	b	#-4 <_ZN4core5slice3raw20debug_check_data_len17hb789fe369cea3d77E+0x28>
    f9c4: 08 10 9d e5  	ldr	r1, [sp, #8]
    f9c8: 04 00 a0 e3  	mov	r0, #4
    f9cc: e5 08 00 eb  	bl	#9108 <_ZN4core3num23_$LT$impl$u20$usize$GT$14saturating_mul17he0e56fdf767fb9b6E>
    f9d0: 04 00 8d e5  	str	r0, [sp, #4]
    f9d4: ff ff ff ea  	b	#-4 <_ZN4core5slice3raw20debug_check_data_len17hb789fe369cea3d77E+0x3c>
    f9d8: 04 00 9d e5  	ldr	r0, [sp, #4]
    f9dc: 00 00 50 e3  	cmp	r0, #0
    f9e0: 02 00 00 4a  	bmi	#8 <_ZN4core5slice3raw20debug_check_data_len17hb789fe369cea3d77E+0x54>
    f9e4: ff ff ff ea  	b	#-4 <_ZN4core5slice3raw20debug_check_data_len17hb789fe369cea3d77E+0x4c>
    f9e8: 30 d0 8d e2  	add	sp, sp, #48
    f9ec: 00 88 bd e8  	pop	{r11, pc}
    f9f0: 0d 10 a0 e1  	mov	r1, sp
    f9f4: 00 00 a0 e3  	mov	r0, #0
    f9f8: 00 00 81 e5  	str	r0, [r1]
    f9fc: 20 10 9f e5  	ldr	r1, [pc, #32]
    fa00: 20 30 9f e5  	ldr	r3, [pc, #32]
    fa04: 10 00 8d e2  	add	r0, sp, #16
    fa08: 01 20 a0 e3  	mov	r2, #1
    fa0c: 8a f5 ff eb  	bl	#-10712 <_ZN4core3fmt9Arguments6new_v117hd47ebd6f67dc7416E>
    fa10: ff ff ff ea  	b	#-4 <_ZN4core5slice3raw20debug_check_data_len17hb789fe369cea3d77E+0x78>
    fa14: 10 10 9f e5  	ldr	r1, [pc, #16]
    fa18: 10 00 8d e2  	add	r0, sp, #16
    fa1c: 5b f1 ff eb  	bl	#-14996 <_ZN4core9panicking9panic_fmt17h22cd6c9efa5fe474E>
    fa20: fe de ff e7  	trap

0000fa24 <$d.1681>:
    fa24:	30 60 01 00	.word	0x00016030
    fa28:	38 55 01 00	.word	0x00015538
    fa2c:	b0 60 01 00	.word	0x000160b0

0000fa30 <_ZN4core5slice3raw20debug_check_data_len8rt_check17h45bfb212b6aede9cE>:
    fa30: 00 48 2d e9  	push	{r11, lr}
    fa34: 28 d0 4d e2  	sub	sp, sp, #40
    fa38: 24 00 8d e5  	str	r0, [sp, #36]
    fa3c: 25 e6 ff eb  	bl	#-26476 <_ZN4core10intrinsics23is_aligned_and_not_null17h1cf92320775c1a7bE>
    fa40: 08 00 8d e5  	str	r0, [sp, #8]
    fa44: ff ff ff ea  	b	#-4 <_ZN4core5slice3raw20debug_check_data_len8rt_check17h45bfb212b6aede9cE+0x18>
    fa48: 08 00 9d e5  	ldr	r0, [sp, #8]
    fa4c: 01 00 10 e3  	tst	r0, #1
    fa50: 02 00 00 0a  	beq	#8 <_ZN4core5slice3raw20debug_check_data_len8rt_check17h45bfb212b6aede9cE+0x30>
    fa54: ff ff ff ea  	b	#-4 <_ZN4core5slice3raw20debug_check_data_len8rt_check17h45bfb212b6aede9cE+0x28>
    fa58: 28 d0 8d e2  	add	sp, sp, #40
    fa5c: 00 88 bd e8  	pop	{r11, pc}
    fa60: 0d 10 a0 e1  	mov	r1, sp
    fa64: 00 00 a0 e3  	mov	r0, #0
    fa68: 00 00 81 e5  	str	r0, [r1]
    fa6c: 20 10 9f e5  	ldr	r1, [pc, #32]
    fa70: 20 30 9f e5  	ldr	r3, [pc, #32]
    fa74: 0c 00 8d e2  	add	r0, sp, #12
    fa78: 01 20 a0 e3  	mov	r2, #1
    fa7c: 6e f5 ff eb  	bl	#-10824 <_ZN4core3fmt9Arguments6new_v117hd47ebd6f67dc7416E>
    fa80: ff ff ff ea  	b	#-4 <_ZN4core5slice3raw20debug_check_data_len8rt_check17h45bfb212b6aede9cE+0x54>
    fa84: 10 10 9f e5  	ldr	r1, [pc, #16]
    fa88: 0c 00 8d e2  	add	r0, sp, #12
    fa8c: 3f f1 ff eb  	bl	#-15108 <_ZN4core9panicking9panic_fmt17h22cd6c9efa5fe474E>
    fa90: fe de ff e7  	trap

0000fa94 <$d.1683>:
    fa94:	ec 60 01 00	.word	0x000160ec
    fa98:	38 55 01 00	.word	0x00015538
    fa9c:	f4 60 01 00	.word	0x000160f4

0000faa0 <_ZN4core5slice3raw20debug_check_data_len8rt_check17h87ae803e467dfe74E>:
    faa0: 00 48 2d e9  	push	{r11, lr}
    faa4: 28 d0 4d e2  	sub	sp, sp, #40
    faa8: 24 00 8d e5  	str	r0, [sp, #36]
    faac: 2e e6 ff eb  	bl	#-26440 <_ZN4core10intrinsics23is_aligned_and_not_null17h6209c0cd9c9d888aE>
    fab0: 08 00 8d e5  	str	r0, [sp, #8]
    fab4: ff ff ff ea  	b	#-4 <_ZN4core5slice3raw20debug_check_data_len8rt_check17h87ae803e467dfe74E+0x18>
    fab8: 08 00 9d e5  	ldr	r0, [sp, #8]
    fabc: 01 00 10 e3  	tst	r0, #1
    fac0: 02 00 00 0a  	beq	#8 <_ZN4core5slice3raw20debug_check_data_len8rt_check17h87ae803e467dfe74E+0x30>
    fac4: ff ff ff ea  	b	#-4 <_ZN4core5slice3raw20debug_check_data_len8rt_check17h87ae803e467dfe74E+0x28>
    fac8: 28 d0 8d e2  	add	sp, sp, #40
    facc: 00 88 bd e8  	pop	{r11, pc}
    fad0: 0d 10 a0 e1  	mov	r1, sp
    fad4: 00 00 a0 e3  	mov	r0, #0
    fad8: 00 00 81 e5  	str	r0, [r1]
    fadc: 20 10 9f e5  	ldr	r1, [pc, #32]
    fae0: 20 30 9f e5  	ldr	r3, [pc, #32]
    fae4: 0c 00 8d e2  	add	r0, sp, #12
    fae8: 01 20 a0 e3  	mov	r2, #1
    faec: 52 f5 ff eb  	bl	#-10936 <_ZN4core3fmt9Arguments6new_v117hd47ebd6f67dc7416E>
    faf0: ff ff ff ea  	b	#-4 <_ZN4core5slice3raw20debug_check_data_len8rt_check17h87ae803e467dfe74E+0x54>
    faf4: 10 10 9f e5  	ldr	r1, [pc, #16]
    faf8: 0c 00 8d e2  	add	r0, sp, #12
    fafc: 23 f1 ff eb  	bl	#-15220 <_ZN4core9panicking9panic_fmt17h22cd6c9efa5fe474E>
    fb00: fe de ff e7  	trap

0000fb04 <$d.1685>:
    fb04:	ec 60 01 00	.word	0x000160ec
    fb08:	38 55 01 00	.word	0x00015538
    fb0c:	f4 60 01 00	.word	0x000160f4

0000fb10 <_ZN4core5slice3raw20debug_check_data_len8rt_check17hce02492c767833a3E>:
    fb10: 00 48 2d e9  	push	{r11, lr}
    fb14: 28 d0 4d e2  	sub	sp, sp, #40
    fb18: 24 00 8d e5  	str	r0, [sp, #36]
    fb1c: 37 e6 ff eb  	bl	#-26404 <_ZN4core10intrinsics23is_aligned_and_not_null17hcdf3ab3f95013724E>
    fb20: 08 00 8d e5  	str	r0, [sp, #8]
    fb24: ff ff ff ea  	b	#-4 <_ZN4core5slice3raw20debug_check_data_len8rt_check17hce02492c767833a3E+0x18>
    fb28: 08 00 9d e5  	ldr	r0, [sp, #8]
    fb2c: 01 00 10 e3  	tst	r0, #1
    fb30: 02 00 00 0a  	beq	#8 <_ZN4core5slice3raw20debug_check_data_len8rt_check17hce02492c767833a3E+0x30>
    fb34: ff ff ff ea  	b	#-4 <_ZN4core5slice3raw20debug_check_data_len8rt_check17hce02492c767833a3E+0x28>
    fb38: 28 d0 8d e2  	add	sp, sp, #40
    fb3c: 00 88 bd e8  	pop	{r11, pc}
    fb40: 0d 10 a0 e1  	mov	r1, sp
    fb44: 00 00 a0 e3  	mov	r0, #0
    fb48: 00 00 81 e5  	str	r0, [r1]
    fb4c: 20 10 9f e5  	ldr	r1, [pc, #32]
    fb50: 20 30 9f e5  	ldr	r3, [pc, #32]
    fb54: 0c 00 8d e2  	add	r0, sp, #12
    fb58: 01 20 a0 e3  	mov	r2, #1
    fb5c: 36 f5 ff eb  	bl	#-11048 <_ZN4core3fmt9Arguments6new_v117hd47ebd6f67dc7416E>
    fb60: ff ff ff ea  	b	#-4 <_ZN4core5slice3raw20debug_check_data_len8rt_check17hce02492c767833a3E+0x54>
    fb64: 10 10 9f e5  	ldr	r1, [pc, #16]
    fb68: 0c 00 8d e2  	add	r0, sp, #12
    fb6c: 07 f1 ff eb  	bl	#-15332 <_ZN4core9panicking9panic_fmt17h22cd6c9efa5fe474E>
    fb70: fe de ff e7  	trap

0000fb74 <$d.1687>:
    fb74:	ec 60 01 00	.word	0x000160ec
    fb78:	38 55 01 00	.word	0x00015538
    fb7c:	f4 60 01 00	.word	0x000160f4

0000fb80 <_ZN4core5slice29_$LT$impl$u20$$u5b$T$u5d$$GT$8is_empty17h7a896da0465f87a7E>:
    fb80: 08 d0 4d e2  	sub	sp, sp, #8
    fb84: 00 00 8d e5  	str	r0, [sp]
    fb88: 04 10 8d e5  	str	r1, [sp, #4]
    fb8c: 11 0f 6f e1  	clz	r0, r1
    fb90: a0 02 a0 e1  	lsr	r0, r0, #5
    fb94: 08 d0 8d e2  	add	sp, sp, #8
    fb98: 1e ff 2f e1  	bx	lr

0000fb9c <_ZN4core5slice29_$LT$impl$u20$$u5b$T$u5d$$GT$3get17h5c3858c84abeab5fE>:
    fb9c: 00 48 2d e9  	push	{r11, lr}
    fba0: 18 d0 4d e2  	sub	sp, sp, #24
    fba4: 04 20 8d e5  	str	r2, [sp, #4]
    fba8: 01 20 a0 e1  	mov	r2, r1
    fbac: 00 10 a0 e1  	mov	r1, r0
    fbb0: 04 00 9d e5  	ldr	r0, [sp, #4]
    fbb4: 0c 10 8d e5  	str	r1, [sp, #12]
    fbb8: 10 20 8d e5  	str	r2, [sp, #16]
    fbbc: 14 00 8d e5  	str	r0, [sp, #20]
    fbc0: 5c fb ff eb  	bl	#-4752 <_ZN75_$LT$usize$u20$as$u20$core..slice..index..SliceIndex$LT$$u5b$T$u5d$$GT$$GT$3get17h58700fb2e56bcbd1E>
    fbc4: 08 00 8d e5  	str	r0, [sp, #8]
    fbc8: ff ff ff ea  	b	#-4 <_ZN4core5slice29_$LT$impl$u20$$u5b$T$u5d$$GT$3get17h5c3858c84abeab5fE+0x30>
    fbcc: 08 00 9d e5  	ldr	r0, [sp, #8]
    fbd0: 18 d0 8d e2  	add	sp, sp, #24
    fbd4: 00 88 bd e8  	pop	{r11, pc}

0000fbd8 <_ZN4core5slice29_$LT$impl$u20$$u5b$T$u5d$$GT$3get17h8f5e6bea4c5e54d5E>:
    fbd8: 00 48 2d e9  	push	{r11, lr}
    fbdc: 18 d0 4d e2  	sub	sp, sp, #24
    fbe0: 04 20 8d e5  	str	r2, [sp, #4]
    fbe4: 01 20 a0 e1  	mov	r2, r1
    fbe8: 00 10 a0 e1  	mov	r1, r0
    fbec: 04 00 9d e5  	ldr	r0, [sp, #4]
    fbf0: 0c 10 8d e5  	str	r1, [sp, #12]
    fbf4: 10 20 8d e5  	str	r2, [sp, #16]
    fbf8: 14 00 8d e5  	str	r0, [sp, #20]
    fbfc: 67 fb ff eb  	bl	#-4708 <_ZN75_$LT$usize$u20$as$u20$core..slice..index..SliceIndex$LT$$u5b$T$u5d$$GT$$GT$3get17h5df82707e94e479aE>
    fc00: 08 00 8d e5  	str	r0, [sp, #8]
    fc04: ff ff ff ea  	b	#-4 <_ZN4core5slice29_$LT$impl$u20$$u5b$T$u5d$$GT$3get17h8f5e6bea4c5e54d5E+0x30>
    fc08: 08 00 9d e5  	ldr	r0, [sp, #8]
    fc0c: 18 d0 8d e2  	add	sp, sp, #24
    fc10: 00 88 bd e8  	pop	{r11, pc}

0000fc14 <_ZN4core5slice29_$LT$impl$u20$$u5b$T$u5d$$GT$13get_unchecked17h090228384a3ea5a0E>:
    fc14: 00 48 2d e9  	push	{r11, lr}
    fc18: 18 d0 4d e2  	sub	sp, sp, #24
    fc1c: 00 20 8d e5  	str	r2, [sp]
    fc20: 01 20 a0 e1  	mov	r2, r1
    fc24: 00 10 a0 e1  	mov	r1, r0
    fc28: 00 00 9d e5  	ldr	r0, [sp]
    fc2c: 0c 10 8d e5  	str	r1, [sp, #12]
    fc30: 10 20 8d e5  	str	r2, [sp, #16]
    fc34: 14 00 8d e5  	str	r0, [sp, #20]
    fc38: 79 fc ff eb  	bl	#-3612 <_ZN108_$LT$core..ops..range..RangeTo$LT$usize$GT$$u20$as$u20$core..slice..index..SliceIndex$LT$$u5b$T$u5d$$GT$$GT$13get_unchecked17hc613160324722273E>
    fc3c: 04 00 8d e5  	str	r0, [sp, #4]
    fc40: 08 10 8d e5  	str	r1, [sp, #8]
    fc44: ff ff ff ea  	b	#-4 <_ZN4core5slice29_$LT$impl$u20$$u5b$T$u5d$$GT$13get_unchecked17h090228384a3ea5a0E+0x34>
    fc48: 08 10 9d e5  	ldr	r1, [sp, #8]
    fc4c: 04 00 9d e5  	ldr	r0, [sp, #4]
    fc50: 18 d0 8d e2  	add	sp, sp, #24
    fc54: 00 88 bd e8  	pop	{r11, pc}

0000fc58 <_ZN4core5slice29_$LT$impl$u20$$u5b$T$u5d$$GT$13get_unchecked17h2b9f57321c9ab110E>:
    fc58: 00 48 2d e9  	push	{r11, lr}
    fc5c: 18 d0 4d e2  	sub	sp, sp, #24
    fc60: 00 20 8d e5  	str	r2, [sp]
    fc64: 01 20 a0 e1  	mov	r2, r1
    fc68: 00 10 a0 e1  	mov	r1, r0
    fc6c: 00 00 9d e5  	ldr	r0, [sp]
    fc70: 0c 10 8d e5  	str	r1, [sp, #12]
    fc74: 10 20 8d e5  	str	r2, [sp, #16]
    fc78: 14 00 8d e5  	str	r0, [sp, #20]
    fc7c: 9b fc ff eb  	bl	#-3476 <_ZN110_$LT$core..ops..range..RangeFrom$LT$usize$GT$$u20$as$u20$core..slice..index..SliceIndex$LT$$u5b$T$u5d$$GT$$GT$13get_unchecked17h4b85c12398c9e232E>
    fc80: 04 00 8d e5  	str	r0, [sp, #4]
    fc84: 08 10 8d e5  	str	r1, [sp, #8]
    fc88: ff ff ff ea  	b	#-4 <_ZN4core5slice29_$LT$impl$u20$$u5b$T$u5d$$GT$13get_unchecked17h2b9f57321c9ab110E+0x34>
    fc8c: 08 10 9d e5  	ldr	r1, [sp, #8]
    fc90: 04 00 9d e5  	ldr	r0, [sp, #4]
    fc94: 18 d0 8d e2  	add	sp, sp, #24
    fc98: 00 88 bd e8  	pop	{r11, pc}

0000fc9c <_ZN4core5slice29_$LT$impl$u20$$u5b$T$u5d$$GT$13get_unchecked17h4ea222d5e49e8b86E>:
    fc9c: 00 48 2d e9  	push	{r11, lr}
    fca0: 18 d0 4d e2  	sub	sp, sp, #24
    fca4: 04 20 8d e5  	str	r2, [sp, #4]
    fca8: 01 20 a0 e1  	mov	r2, r1
    fcac: 00 10 a0 e1  	mov	r1, r0
    fcb0: 04 00 9d e5  	ldr	r0, [sp, #4]
    fcb4: 0c 10 8d e5  	str	r1, [sp, #12]
    fcb8: 10 20 8d e5  	str	r2, [sp, #16]
    fcbc: 14 00 8d e5  	str	r0, [sp, #20]
    fcc0: 6d fb ff eb  	bl	#-4684 <_ZN75_$LT$usize$u20$as$u20$core..slice..index..SliceIndex$LT$$u5b$T$u5d$$GT$$GT$13get_unchecked17h63bf3b62c6d08f31E>
    fcc4: 08 00 8d e5  	str	r0, [sp, #8]
    fcc8: ff ff ff ea  	b	#-4 <_ZN4core5slice29_$LT$impl$u20$$u5b$T$u5d$$GT$13get_unchecked17h4ea222d5e49e8b86E+0x30>
    fccc: 08 00 9d e5  	ldr	r0, [sp, #8]
    fcd0: 18 d0 8d e2  	add	sp, sp, #24
    fcd4: 00 88 bd e8  	pop	{r11, pc}

0000fcd8 <_ZN4core5slice29_$LT$impl$u20$$u5b$T$u5d$$GT$13get_unchecked17h67e4e71b23d961ccE>:
    fcd8: 00 48 2d e9  	push	{r11, lr}
    fcdc: 18 d0 4d e2  	sub	sp, sp, #24
    fce0: 00 20 8d e5  	str	r2, [sp]
    fce4: 01 20 a0 e1  	mov	r2, r1
    fce8: 00 10 a0 e1  	mov	r1, r0
    fcec: 00 00 9d e5  	ldr	r0, [sp]
    fcf0: 0c 10 8d e5  	str	r1, [sp, #12]
    fcf4: 10 20 8d e5  	str	r2, [sp, #16]
    fcf8: 14 00 8d e5  	str	r0, [sp, #20]
    fcfc: 34 fc ff eb  	bl	#-3888 <_ZN108_$LT$core..ops..range..RangeTo$LT$usize$GT$$u20$as$u20$core..slice..index..SliceIndex$LT$$u5b$T$u5d$$GT$$GT$13get_unchecked17hc56e1446995c5ca8E>
    fd00: 04 00 8d e5  	str	r0, [sp, #4]
    fd04: 08 10 8d e5  	str	r1, [sp, #8]
    fd08: ff ff ff ea  	b	#-4 <_ZN4core5slice29_$LT$impl$u20$$u5b$T$u5d$$GT$13get_unchecked17h67e4e71b23d961ccE+0x34>
    fd0c: 08 10 9d e5  	ldr	r1, [sp, #8]
    fd10: 04 00 9d e5  	ldr	r0, [sp, #4]
    fd14: 18 d0 8d e2  	add	sp, sp, #24
    fd18: 00 88 bd e8  	pop	{r11, pc}

0000fd1c <_ZN4core5slice29_$LT$impl$u20$$u5b$T$u5d$$GT$13get_unchecked17h9d359a39158dbe67E>:
    fd1c: 00 48 2d e9  	push	{r11, lr}
    fd20: 18 d0 4d e2  	sub	sp, sp, #24
    fd24: 00 20 8d e5  	str	r2, [sp]
    fd28: 01 20 a0 e1  	mov	r2, r1
    fd2c: 00 10 a0 e1  	mov	r1, r0
    fd30: 00 00 9d e5  	ldr	r0, [sp]
    fd34: 0c 10 8d e5  	str	r1, [sp, #12]
    fd38: 10 20 8d e5  	str	r2, [sp, #16]
    fd3c: 14 00 8d e5  	str	r0, [sp, #20]
    fd40: 89 fc ff eb  	bl	#-3548 <_ZN110_$LT$core..ops..range..RangeFrom$LT$usize$GT$$u20$as$u20$core..slice..index..SliceIndex$LT$$u5b$T$u5d$$GT$$GT$13get_unchecked17h597bb0e645bb2269E>
    fd44: 04 00 8d e5  	str	r0, [sp, #4]
    fd48: 08 10 8d e5  	str	r1, [sp, #8]
    fd4c: ff ff ff ea  	b	#-4 <_ZN4core5slice29_$LT$impl$u20$$u5b$T$u5d$$GT$13get_unchecked17h9d359a39158dbe67E+0x34>
    fd50: 08 10 9d e5  	ldr	r1, [sp, #8]
    fd54: 04 00 9d e5  	ldr	r0, [sp, #4]
    fd58: 18 d0 8d e2  	add	sp, sp, #24
    fd5c: 00 88 bd e8  	pop	{r11, pc}

0000fd60 <_ZN4core5slice29_$LT$impl$u20$$u5b$T$u5d$$GT$13get_unchecked17hb558a5d276703f46E>:
    fd60: 00 48 2d e9  	push	{r11, lr}
    fd64: 18 d0 4d e2  	sub	sp, sp, #24
    fd68: 04 20 8d e5  	str	r2, [sp, #4]
    fd6c: 01 20 a0 e1  	mov	r2, r1
    fd70: 00 10 a0 e1  	mov	r1, r0
    fd74: 04 00 9d e5  	ldr	r0, [sp, #4]
    fd78: 0c 10 8d e5  	str	r1, [sp, #12]
    fd7c: 10 20 8d e5  	str	r2, [sp, #16]
    fd80: 14 00 8d e5  	str	r0, [sp, #20]
    fd84: 59 fb ff eb  	bl	#-4764 <_ZN75_$LT$usize$u20$as$u20$core..slice..index..SliceIndex$LT$$u5b$T$u5d$$GT$$GT$13get_unchecked17h74dc70a76a7a6cf2E>
    fd88: 08 00 8d e5  	str	r0, [sp, #8]
    fd8c: ff ff ff ea  	b	#-4 <_ZN4core5slice29_$LT$impl$u20$$u5b$T$u5d$$GT$13get_unchecked17hb558a5d276703f46E+0x30>
    fd90: 08 00 9d e5  	ldr	r0, [sp, #8]
    fd94: 18 d0 8d e2  	add	sp, sp, #24
    fd98: 00 88 bd e8  	pop	{r11, pc}

0000fd9c <_ZN4core5slice29_$LT$impl$u20$$u5b$T$u5d$$GT$6as_ptr17h4a00a55ffdc398ecE>:
    fd9c: 08 d0 4d e2  	sub	sp, sp, #8
    fda0: 00 00 8d e5  	str	r0, [sp]
    fda4: 04 10 8d e5  	str	r1, [sp, #4]
    fda8: 08 d0 8d e2  	add	sp, sp, #8
    fdac: 1e ff 2f e1  	bx	lr

0000fdb0 <_ZN4core5slice29_$LT$impl$u20$$u5b$T$u5d$$GT$6as_ptr17h4c0ffc438ec46671E>:
    fdb0: 08 d0 4d e2  	sub	sp, sp, #8
    fdb4: 00 00 8d e5  	str	r0, [sp]
    fdb8: 04 10 8d e5  	str	r1, [sp, #4]
    fdbc: 08 d0 8d e2  	add	sp, sp, #8
    fdc0: 1e ff 2f e1  	bx	lr

0000fdc4 <_ZN4core5slice29_$LT$impl$u20$$u5b$T$u5d$$GT$6as_ptr17h5a33363efb66d240E>:
    fdc4: 08 d0 4d e2  	sub	sp, sp, #8
    fdc8: 00 00 8d e5  	str	r0, [sp]
    fdcc: 04 10 8d e5  	str	r1, [sp, #4]
    fdd0: 08 d0 8d e2  	add	sp, sp, #8
    fdd4: 1e ff 2f e1  	bx	lr

0000fdd8 <_ZN4core5slice29_$LT$impl$u20$$u5b$T$u5d$$GT$6as_ptr17h6b8941cd08966201E>:
    fdd8: 08 d0 4d e2  	sub	sp, sp, #8
    fddc: 00 00 8d e5  	str	r0, [sp]
    fde0: 04 10 8d e5  	str	r1, [sp, #4]
    fde4: 08 d0 8d e2  	add	sp, sp, #8
    fde8: 1e ff 2f e1  	bx	lr

0000fdec <_ZN4core5slice29_$LT$impl$u20$$u5b$T$u5d$$GT$6as_ptr17h992ac04f5ee14697E>:
    fdec: 08 d0 4d e2  	sub	sp, sp, #8
    fdf0: 00 00 8d e5  	str	r0, [sp]
    fdf4: 04 10 8d e5  	str	r1, [sp, #4]
    fdf8: 08 d0 8d e2  	add	sp, sp, #8
    fdfc: 1e ff 2f e1  	bx	lr

0000fe00 <_ZN4core5slice29_$LT$impl$u20$$u5b$T$u5d$$GT$6as_ptr17he76bcbec392c544eE>:
    fe00: 08 d0 4d e2  	sub	sp, sp, #8
    fe04: 00 00 8d e5  	str	r0, [sp]
    fe08: 04 10 8d e5  	str	r1, [sp, #4]
    fe0c: 08 d0 8d e2  	add	sp, sp, #8
    fe10: 1e ff 2f e1  	bx	lr

0000fe14 <_ZN4core5slice29_$LT$impl$u20$$u5b$T$u5d$$GT$10as_mut_ptr17h0d88c70547a3eecaE>:
    fe14: 08 d0 4d e2  	sub	sp, sp, #8
    fe18: 00 00 8d e5  	str	r0, [sp]
    fe1c: 04 10 8d e5  	str	r1, [sp, #4]
    fe20: 08 d0 8d e2  	add	sp, sp, #8
    fe24: 1e ff 2f e1  	bx	lr

0000fe28 <_ZN4core5slice29_$LT$impl$u20$$u5b$T$u5d$$GT$4iter17h0c95fae1e4e64d73E>:
    fe28: 00 48 2d e9  	push	{r11, lr}
    fe2c: 10 d0 4d e2  	sub	sp, sp, #16
    fe30: 08 00 8d e5  	str	r0, [sp, #8]
    fe34: 0c 10 8d e5  	str	r1, [sp, #12]
    fe38: 46 fd ff eb  	bl	#-2792 <_ZN4core5slice4iter13Iter$LT$T$GT$3new17hb77f1747bbaef115E>
    fe3c: 00 00 8d e5  	str	r0, [sp]
    fe40: 04 10 8d e5  	str	r1, [sp, #4]
    fe44: ff ff ff ea  	b	#-4 <_ZN4core5slice29_$LT$impl$u20$$u5b$T$u5d$$GT$4iter17h0c95fae1e4e64d73E+0x20>
    fe48: 04 10 9d e5  	ldr	r1, [sp, #4]
    fe4c: 00 00 9d e5  	ldr	r0, [sp]
    fe50: 10 d0 8d e2  	add	sp, sp, #16
    fe54: 00 88 bd e8  	pop	{r11, pc}

0000fe58 <_ZN4core5slice29_$LT$impl$u20$$u5b$T$u5d$$GT$4iter17h0e9b2b815f0a80b4E>:
    fe58: 00 48 2d e9  	push	{r11, lr}
    fe5c: 10 d0 4d e2  	sub	sp, sp, #16
    fe60: 08 00 8d e5  	str	r0, [sp, #8]
    fe64: 0c 10 8d e5  	str	r1, [sp, #12]
    fe68: ca fc ff eb  	bl	#-3288 <_ZN4core5slice4iter13Iter$LT$T$GT$3new17h67d8f23c224d959aE>
    fe6c: 00 00 8d e5  	str	r0, [sp]
    fe70: 04 10 8d e5  	str	r1, [sp, #4]
    fe74: ff ff ff ea  	b	#-4 <_ZN4core5slice29_$LT$impl$u20$$u5b$T$u5d$$GT$4iter17h0e9b2b815f0a80b4E+0x20>
    fe78: 04 10 9d e5  	ldr	r1, [sp, #4]
    fe7c: 00 00 9d e5  	ldr	r0, [sp]
    fe80: 10 d0 8d e2  	add	sp, sp, #16
    fe84: 00 88 bd e8  	pop	{r11, pc}

0000fe88 <_ZN4core5slice29_$LT$impl$u20$$u5b$T$u5d$$GT$4iter17h15255d3309400647E>:
    fe88: 00 48 2d e9  	push	{r11, lr}
    fe8c: 10 d0 4d e2  	sub	sp, sp, #16
    fe90: 08 00 8d e5  	str	r0, [sp, #8]
    fe94: 0c 10 8d e5  	str	r1, [sp, #12]
    fe98: f6 fc ff eb  	bl	#-3112 <_ZN4core5slice4iter13Iter$LT$T$GT$3new17haa4062221ae42c46E>
    fe9c: 00 00 8d e5  	str	r0, [sp]
    fea0: 04 10 8d e5  	str	r1, [sp, #4]
    fea4: ff ff ff ea  	b	#-4 <_ZN4core5slice29_$LT$impl$u20$$u5b$T$u5d$$GT$4iter17h15255d3309400647E+0x20>
    fea8: 04 10 9d e5  	ldr	r1, [sp, #4]
    feac: 00 00 9d e5  	ldr	r0, [sp]
    feb0: 10 d0 8d e2  	add	sp, sp, #16
    feb4: 00 88 bd e8  	pop	{r11, pc}

0000feb8 <_ZN4core5slice29_$LT$impl$u20$$u5b$T$u5d$$GT$4iter17h5fc31ae58636ccf6E>:
    feb8: 00 48 2d e9  	push	{r11, lr}
    febc: 10 d0 4d e2  	sub	sp, sp, #16
    fec0: 08 00 8d e5  	str	r0, [sp, #8]
    fec4: 0c 10 8d e5  	str	r1, [sp, #12]
    fec8: 7a fc ff eb  	bl	#-3608 <_ZN4core5slice4iter13Iter$LT$T$GT$3new17h4427525444ee9a6aE>
    fecc: 00 00 8d e5  	str	r0, [sp]
    fed0: 04 10 8d e5  	str	r1, [sp, #4]
    fed4: ff ff ff ea  	b	#-4 <_ZN4core5slice29_$LT$impl$u20$$u5b$T$u5d$$GT$4iter17h5fc31ae58636ccf6E+0x20>
    fed8: 04 10 9d e5  	ldr	r1, [sp, #4]
    fedc: 00 00 9d e5  	ldr	r0, [sp]
    fee0: 10 d0 8d e2  	add	sp, sp, #16
    fee4: 00 88 bd e8  	pop	{r11, pc}

0000fee8 <_ZN4core5slice29_$LT$impl$u20$$u5b$T$u5d$$GT$4iter17hc958a26c159f8306E>:
    fee8: 00 48 2d e9  	push	{r11, lr}
    feec: 10 d0 4d e2  	sub	sp, sp, #16
    fef0: 08 00 8d e5  	str	r0, [sp, #8]
    fef4: 0c 10 8d e5  	str	r1, [sp, #12]
    fef8: 4e fd ff eb  	bl	#-2760 <_ZN4core5slice4iter13Iter$LT$T$GT$3new17hbb1f906be78fe598E>
    fefc: 00 00 8d e5  	str	r0, [sp]
    ff00: 04 10 8d e5  	str	r1, [sp, #4]
    ff04: ff ff ff ea  	b	#-4 <_ZN4core5slice29_$LT$impl$u20$$u5b$T$u5d$$GT$4iter17hc958a26c159f8306E+0x20>
    ff08: 04 10 9d e5  	ldr	r1, [sp, #4]
    ff0c: 00 00 9d e5  	ldr	r0, [sp]
    ff10: 10 d0 8d e2  	add	sp, sp, #16
    ff14: 00 88 bd e8  	pop	{r11, pc}

0000ff18 <_ZN4core5slice29_$LT$impl$u20$$u5b$T$u5d$$GT$8iter_mut17hc7e629f952ad5a61E>:
    ff18: 00 48 2d e9  	push	{r11, lr}
    ff1c: 10 d0 4d e2  	sub	sp, sp, #16
    ff20: 08 00 8d e5  	str	r0, [sp, #8]
    ff24: 0c 10 8d e5  	str	r1, [sp, #12]
    ff28: a2 fd ff eb  	bl	#-2424 <_ZN4core5slice4iter16IterMut$LT$T$GT$3new17h185c59486b1ace69E>
    ff2c: 00 00 8d e5  	str	r0, [sp]
    ff30: 04 10 8d e5  	str	r1, [sp, #4]
    ff34: ff ff ff ea  	b	#-4 <_ZN4core5slice29_$LT$impl$u20$$u5b$T$u5d$$GT$8iter_mut17hc7e629f952ad5a61E+0x20>
    ff38: 04 10 9d e5  	ldr	r1, [sp, #4]
    ff3c: 00 00 9d e5  	ldr	r0, [sp]
    ff40: 10 d0 8d e2  	add	sp, sp, #16
    ff44: 00 88 bd e8  	pop	{r11, pc}

0000ff48 <_ZN4core5slice29_$LT$impl$u20$$u5b$T$u5d$$GT$6chunks17h27d4d96d35cab058E>:
    ff48: 00 48 2d e9  	push	{r11, lr}
    ff4c: 50 d0 4d e2  	sub	sp, sp, #80
    ff50: 04 20 8d e5  	str	r2, [sp, #4]
    ff54: 08 10 8d e5  	str	r1, [sp, #8]
    ff58: 0c 00 8d e5  	str	r0, [sp, #12]
    ff5c: 18 30 8d e5  	str	r3, [sp, #24]
    ff60: 40 10 8d e5  	str	r1, [sp, #64]
    ff64: 44 20 8d e5  	str	r2, [sp, #68]
    ff68: 18 00 8d e2  	add	r0, sp, #24
    ff6c: 1c 00 8d e5  	str	r0, [sp, #28]
    ff70: 94 00 9f e5  	ldr	r0, [pc, #148]
    ff74: 20 00 8d e5  	str	r0, [sp, #32]
    ff78: 1c 00 9d e5  	ldr	r0, [sp, #28]
    ff7c: 10 00 8d e5  	str	r0, [sp, #16]
    ff80: 48 00 8d e5  	str	r0, [sp, #72]
    ff84: 20 10 9d e5  	ldr	r1, [sp, #32]
    ff88: 14 10 8d e5  	str	r1, [sp, #20]
    ff8c: 4c 10 8d e5  	str	r1, [sp, #76]
    ff90: 00 00 90 e5  	ldr	r0, [r0]
    ff94: 00 10 91 e5  	ldr	r1, [r1]
    ff98: 01 00 50 e1  	cmp	r0, r1
    ff9c: 06 00 00 0a  	beq	#24 <_ZN4core5slice29_$LT$impl$u20$$u5b$T$u5d$$GT$6chunks17h27d4d96d35cab058E+0x74>
    ffa0: ff ff ff ea  	b	#-4 <_ZN4core5slice29_$LT$impl$u20$$u5b$T$u5d$$GT$6chunks17h27d4d96d35cab058E+0x5c>
    ffa4: 04 20 9d e5  	ldr	r2, [sp, #4]
    ffa8: 08 10 9d e5  	ldr	r1, [sp, #8]
    ffac: 0c 00 9d e5  	ldr	r0, [sp, #12]
    ffb0: 18 30 9d e5  	ldr	r3, [sp, #24]
    ffb4: b7 fd ff eb  	bl	#-2340 <_ZN4core5slice4iter15Chunks$LT$T$GT$3new17hf45b747296ab98caE>
    ffb8: 11 00 00 ea  	b	#68 <_ZN4core5slice29_$LT$impl$u20$$u5b$T$u5d$$GT$6chunks17h27d4d96d35cab058E+0xbc>
    ffbc: 14 20 9d e5  	ldr	r2, [sp, #20]
    ffc0: 10 10 9d e5  	ldr	r1, [sp, #16]
    ffc4: 01 00 a0 e3  	mov	r0, #1
    ffc8: 27 00 cd e5  	strb	r0, [sp, #39]
    ffcc: 00 30 a0 e3  	mov	r3, #0
    ffd0: 3c 30 8d e5  	str	r3, [sp, #60]
    ffd4: 38 30 8d e5  	str	r3, [sp, #56]
    ffd8: 34 30 8d e5  	str	r3, [sp, #52]
    ffdc: 30 30 8d e5  	str	r3, [sp, #48]
    ffe0: 2c 30 8d e5  	str	r3, [sp, #44]
    ffe4: 28 30 8d e5  	str	r3, [sp, #40]
    ffe8: 28 30 8d e5  	str	r3, [sp, #40]
    ffec: 1c 30 9f e5  	ldr	r3, [pc, #28]
    fff0: 0d c0 a0 e1  	mov	r12, sp
    fff4: 00 30 8c e5  	str	r3, [r12]
    fff8: 28 30 8d e2  	add	r3, sp, #40
    fffc: f4 ef ff eb  	bl	#-16432 <_ZN4core9panicking13assert_failed17h5e83c24258d73ba7E>
   10000: fe de ff e7  	trap
   10004: 50 d0 8d e2  	add	sp, sp, #80
   10008: 00 88 bd e8  	pop	{r11, pc}

0001000c <$d.1735>:
   1000c:	b0 54 01 00	.word	0x000154b0
   10010:	7c 61 01 00	.word	0x0001617c

00010014 <_ZN4core5slice29_$LT$impl$u20$$u5b$T$u5d$$GT$19as_chunks_unchecked17ha103be5ba45421e1E>:
   10014: 00 48 2d e9  	push	{r11, lr}
   10018: a0 d0 4d e2  	sub	sp, sp, #160
   1001c: 24 10 8d e5  	str	r1, [sp, #36]
   10020: 28 00 8d e5  	str	r0, [sp, #40]
   10024: 80 00 8d e5  	str	r0, [sp, #128]
   10028: 84 10 8d e5  	str	r1, [sp, #132]
   1002c: 74 01 9f e5  	ldr	r0, [pc, #372]
   10030: 34 00 8d e5  	str	r0, [sp, #52]
   10034: 70 01 9f e5  	ldr	r0, [pc, #368]
   10038: 38 00 8d e5  	str	r0, [sp, #56]
   1003c: 34 00 9d e5  	ldr	r0, [sp, #52]
   10040: 2c 00 8d e5  	str	r0, [sp, #44]
   10044: 88 00 8d e5  	str	r0, [sp, #136]
   10048: 38 10 9d e5  	ldr	r1, [sp, #56]
   1004c: 30 10 8d e5  	str	r1, [sp, #48]
   10050: 8c 10 8d e5  	str	r1, [sp, #140]
   10054: 00 00 90 e5  	ldr	r0, [r0]
   10058: 00 10 91 e5  	ldr	r1, [r1]
   1005c: 01 00 50 e1  	cmp	r0, r1
   10060: 01 00 00 0a  	beq	#4 <_ZN4core5slice29_$LT$impl$u20$$u5b$T$u5d$$GT$19as_chunks_unchecked17ha103be5ba45421e1E+0x58>
   10064: ff ff ff ea  	b	#-4 <_ZN4core5slice29_$LT$impl$u20$$u5b$T$u5d$$GT$19as_chunks_unchecked17ha103be5ba45421e1E+0x54>
   10068: 11 00 00 ea  	b	#68 <_ZN4core5slice29_$LT$impl$u20$$u5b$T$u5d$$GT$19as_chunks_unchecked17ha103be5ba45421e1E+0xa0>
   1006c: 30 20 9d e5  	ldr	r2, [sp, #48]
   10070: 2c 10 9d e5  	ldr	r1, [sp, #44]
   10074: 01 00 a0 e3  	mov	r0, #1
   10078: 3f 00 cd e5  	strb	r0, [sp, #63]
   1007c: 00 30 a0 e3  	mov	r3, #0
   10080: 54 30 8d e5  	str	r3, [sp, #84]
   10084: 50 30 8d e5  	str	r3, [sp, #80]
   10088: 4c 30 8d e5  	str	r3, [sp, #76]
   1008c: 48 30 8d e5  	str	r3, [sp, #72]
   10090: 44 30 8d e5  	str	r3, [sp, #68]
   10094: 40 30 8d e5  	str	r3, [sp, #64]
   10098: 40 30 8d e5  	str	r3, [sp, #64]
   1009c: 10 31 9f e5  	ldr	r3, [pc, #272]
   100a0: 0d c0 a0 e1  	mov	r12, sp
   100a4: 00 30 8c e5  	str	r3, [r12]
   100a8: 40 30 8d e2  	add	r3, sp, #64
   100ac: c8 ef ff eb  	bl	#-16608 <_ZN4core9panicking13assert_failed17h5e83c24258d73ba7E>
   100b0: fe de ff e7  	trap
   100b4: 24 00 9d e5  	ldr	r0, [sp, #36]
   100b8: 03 00 00 e2  	and	r0, r0, #3
   100bc: 60 00 8d e5  	str	r0, [sp, #96]
   100c0: 60 00 8d e2  	add	r0, sp, #96
   100c4: 58 00 8d e5  	str	r0, [sp, #88]
   100c8: dc 00 9f e5  	ldr	r0, [pc, #220]
   100cc: 5c 00 8d e5  	str	r0, [sp, #92]
   100d0: 58 00 9d e5  	ldr	r0, [sp, #88]
   100d4: 1c 00 8d e5  	str	r0, [sp, #28]
   100d8: 90 00 8d e5  	str	r0, [sp, #144]
   100dc: 5c 10 9d e5  	ldr	r1, [sp, #92]
   100e0: 20 10 8d e5  	str	r1, [sp, #32]
   100e4: 94 10 8d e5  	str	r1, [sp, #148]
   100e8: 00 00 90 e5  	ldr	r0, [r0]
   100ec: 00 10 91 e5  	ldr	r1, [r1]
   100f0: 01 00 50 e1  	cmp	r0, r1
   100f4: 07 00 00 1a  	bne	#28 <_ZN4core5slice29_$LT$impl$u20$$u5b$T$u5d$$GT$19as_chunks_unchecked17ha103be5ba45421e1E+0x104>
   100f8: ff ff ff ea  	b	#-4 <_ZN4core5slice29_$LT$impl$u20$$u5b$T$u5d$$GT$19as_chunks_unchecked17ha103be5ba45421e1E+0xe8>
   100fc: 24 00 9d e5  	ldr	r0, [sp, #36]
   10100: 20 01 a0 e1  	lsr	r0, r0, #2
   10104: 98 00 8d e5  	str	r0, [sp, #152]
   10108: 98 00 9d e5  	ldr	r0, [sp, #152]
   1010c: 18 00 8d e5  	str	r0, [sp, #24]
   10110: 9c 00 8d e5  	str	r0, [sp, #156]
   10114: 10 00 00 ea  	b	#64 <_ZN4core5slice29_$LT$impl$u20$$u5b$T$u5d$$GT$19as_chunks_unchecked17ha103be5ba45421e1E+0x148>
   10118: 20 20 9d e5  	ldr	r2, [sp, #32]
   1011c: 1c 10 9d e5  	ldr	r1, [sp, #28]
   10120: 00 00 a0 e3  	mov	r0, #0
   10124: 67 00 cd e5  	strb	r0, [sp, #103]
   10128: 7c 00 8d e5  	str	r0, [sp, #124]
   1012c: 78 00 8d e5  	str	r0, [sp, #120]
   10130: 74 00 8d e5  	str	r0, [sp, #116]
   10134: 70 00 8d e5  	str	r0, [sp, #112]
   10138: 6c 00 8d e5  	str	r0, [sp, #108]
   1013c: 68 00 8d e5  	str	r0, [sp, #104]
   10140: 68 00 8d e5  	str	r0, [sp, #104]
   10144: 64 30 9f e5  	ldr	r3, [pc, #100]
   10148: 0d c0 a0 e1  	mov	r12, sp
   1014c: 00 30 8c e5  	str	r3, [r12]
   10150: 68 30 8d e2  	add	r3, sp, #104
   10154: 9e ef ff eb  	bl	#-16776 <_ZN4core9panicking13assert_failed17h5e83c24258d73ba7E>
   10158: fe de ff e7  	trap
   1015c: 24 10 9d e5  	ldr	r1, [sp, #36]
   10160: 28 00 9d e5  	ldr	r0, [sp, #40]
   10164: 20 ff ff eb  	bl	#-896 <_ZN4core5slice29_$LT$impl$u20$$u5b$T$u5d$$GT$6as_ptr17h992ac04f5ee14697E>
   10168: 14 00 8d e5  	str	r0, [sp, #20]
   1016c: ff ff ff ea  	b	#-4 <_ZN4core5slice29_$LT$impl$u20$$u5b$T$u5d$$GT$19as_chunks_unchecked17ha103be5ba45421e1E+0x15c>
   10170: 14 00 9d e5  	ldr	r0, [sp, #20]
   10174: 78 e7 ff eb  	bl	#-25120 <_ZN4core3ptr9const_ptr33_$LT$impl$u20$$BP$const$u20$T$GT$4cast17hda8d7474972e149fE>
   10178: 10 00 8d e5  	str	r0, [sp, #16]
   1017c: ff ff ff ea  	b	#-4 <_ZN4core5slice29_$LT$impl$u20$$u5b$T$u5d$$GT$19as_chunks_unchecked17ha103be5ba45421e1E+0x16c>
   10180: 18 10 9d e5  	ldr	r1, [sp, #24]
   10184: 10 00 9d e5  	ldr	r0, [sp, #16]
   10188: 83 fd ff eb  	bl	#-2548 <_ZN4core5slice3raw14from_raw_parts17h09828842bb9f998dE>
   1018c: 08 00 8d e5  	str	r0, [sp, #8]
   10190: 0c 10 8d e5  	str	r1, [sp, #12]
   10194: ff ff ff ea  	b	#-4 <_ZN4core5slice29_$LT$impl$u20$$u5b$T$u5d$$GT$19as_chunks_unchecked17ha103be5ba45421e1E+0x184>
   10198: 0c 10 9d e5  	ldr	r1, [sp, #12]
   1019c: 08 00 9d e5  	ldr	r0, [sp, #8]
   101a0: a0 d0 8d e2  	add	sp, sp, #160
   101a4: 00 88 bd e8  	pop	{r11, pc}

000101a8 <$d.1737>:
   101a8:	c4 54 01 00	.word	0x000154c4
   101ac:	b0 54 01 00	.word	0x000154b0
   101b0:	9c 61 01 00	.word	0x0001619c
   101b4:	8c 61 01 00	.word	0x0001618c

000101b8 <_ZN4core5slice29_$LT$impl$u20$$u5b$T$u5d$$GT$9as_chunks17h950d980911bc47fbE>:
   101b8: 00 48 2d e9  	push	{r11, lr}
   101bc: 90 d0 4d e2  	sub	sp, sp, #144
   101c0: 1c 20 8d e5  	str	r2, [sp, #28]
   101c4: 20 10 8d e5  	str	r1, [sp, #32]
   101c8: 24 00 8d e5  	str	r0, [sp, #36]
   101cc: 64 10 8d e5  	str	r1, [sp, #100]
   101d0: 68 20 8d e5  	str	r2, [sp, #104]
   101d4: 50 01 9f e5  	ldr	r0, [pc, #336]
   101d8: 30 00 8d e5  	str	r0, [sp, #48]
   101dc: 4c 01 9f e5  	ldr	r0, [pc, #332]
   101e0: 34 00 8d e5  	str	r0, [sp, #52]
   101e4: 30 00 9d e5  	ldr	r0, [sp, #48]
   101e8: 28 00 8d e5  	str	r0, [sp, #40]
   101ec: 6c 00 8d e5  	str	r0, [sp, #108]
   101f0: 34 10 9d e5  	ldr	r1, [sp, #52]
   101f4: 2c 10 8d e5  	str	r1, [sp, #44]
   101f8: 70 10 8d e5  	str	r1, [sp, #112]
   101fc: 00 00 90 e5  	ldr	r0, [r0]
   10200: 00 10 91 e5  	ldr	r1, [r1]
   10204: 01 00 50 e1  	cmp	r0, r1
   10208: 01 00 00 0a  	beq	#4 <_ZN4core5slice29_$LT$impl$u20$$u5b$T$u5d$$GT$9as_chunks17h950d980911bc47fbE+0x5c>
   1020c: ff ff ff ea  	b	#-4 <_ZN4core5slice29_$LT$impl$u20$$u5b$T$u5d$$GT$9as_chunks17h950d980911bc47fbE+0x58>
   10210: 11 00 00 ea  	b	#68 <_ZN4core5slice29_$LT$impl$u20$$u5b$T$u5d$$GT$9as_chunks17h950d980911bc47fbE+0xa4>
   10214: 2c 20 9d e5  	ldr	r2, [sp, #44]
   10218: 28 10 9d e5  	ldr	r1, [sp, #40]
   1021c: 01 00 a0 e3  	mov	r0, #1
   10220: 3b 00 cd e5  	strb	r0, [sp, #59]
   10224: 00 30 a0 e3  	mov	r3, #0
   10228: 50 30 8d e5  	str	r3, [sp, #80]
   1022c: 4c 30 8d e5  	str	r3, [sp, #76]
   10230: 48 30 8d e5  	str	r3, [sp, #72]
   10234: 44 30 8d e5  	str	r3, [sp, #68]
   10238: 40 30 8d e5  	str	r3, [sp, #64]
   1023c: 3c 30 8d e5  	str	r3, [sp, #60]
   10240: 3c 30 8d e5  	str	r3, [sp, #60]
   10244: f4 30 9f e5  	ldr	r3, [pc, #244]
   10248: 0d c0 a0 e1  	mov	r12, sp
   1024c: 00 30 8c e5  	str	r3, [r12]
   10250: 3c 30 8d e2  	add	r3, sp, #60
   10254: 5e ef ff eb  	bl	#-17032 <_ZN4core9panicking13assert_failed17h5e83c24258d73ba7E>
   10258: fe de ff e7  	trap
   1025c: 1c 00 9d e5  	ldr	r0, [sp, #28]
   10260: 20 01 a0 e1  	lsr	r0, r0, #2
   10264: 74 00 8d e5  	str	r0, [sp, #116]
   10268: 00 01 a0 e1  	lsl	r0, r0, #2
   1026c: 18 00 8d e5  	str	r0, [sp, #24]
   10270: 00 00 a0 e3  	mov	r0, #0
   10274: 00 00 50 e3  	cmp	r0, #0
   10278: 09 00 00 1a  	bne	#36 <_ZN4core5slice29_$LT$impl$u20$$u5b$T$u5d$$GT$9as_chunks17h950d980911bc47fbE+0xec>
   1027c: ff ff ff ea  	b	#-4 <_ZN4core5slice29_$LT$impl$u20$$u5b$T$u5d$$GT$9as_chunks17h950d980911bc47fbE+0xc8>
   10280: 18 30 9d e5  	ldr	r3, [sp, #24]
   10284: 1c 20 9d e5  	ldr	r2, [sp, #28]
   10288: 20 10 9d e5  	ldr	r1, [sp, #32]
   1028c: a0 00 9f e5  	ldr	r0, [pc, #160]
   10290: 0d c0 a0 e1  	mov	r12, sp
   10294: 00 00 8c e5  	str	r0, [r12]
   10298: 54 00 8d e2  	add	r0, sp, #84
   1029c: 28 00 00 eb  	bl	#160 <_ZN4core5slice29_$LT$impl$u20$$u5b$T$u5d$$GT$8split_at17h48379e8d17f6fd11E>
   102a0: 04 00 00 ea  	b	#16 <_ZN4core5slice29_$LT$impl$u20$$u5b$T$u5d$$GT$9as_chunks17h950d980911bc47fbE+0x100>
   102a4: 8c 00 9f e5  	ldr	r0, [pc, #140]
   102a8: 8c 20 9f e5  	ldr	r2, [pc, #140]
   102ac: 21 10 a0 e3  	mov	r1, #33
   102b0: ff ee ff eb  	bl	#-17412 <_ZN4core9panicking5panic17h70f755644c6683e5E>
   102b4: fe de ff e7  	trap
   102b8: 54 00 9d e5  	ldr	r0, [sp, #84]
   102bc: 58 10 9d e5  	ldr	r1, [sp, #88]
   102c0: 78 00 8d e5  	str	r0, [sp, #120]
   102c4: 7c 10 8d e5  	str	r1, [sp, #124]
   102c8: 5c 30 9d e5  	ldr	r3, [sp, #92]
   102cc: 08 30 8d e5  	str	r3, [sp, #8]
   102d0: 60 20 9d e5  	ldr	r2, [sp, #96]
   102d4: 0c 20 8d e5  	str	r2, [sp, #12]
   102d8: 80 30 8d e5  	str	r3, [sp, #128]
   102dc: 84 20 8d e5  	str	r2, [sp, #132]
   102e0: 4b ff ff eb  	bl	#-724 <_ZN4core5slice29_$LT$impl$u20$$u5b$T$u5d$$GT$19as_chunks_unchecked17ha103be5ba45421e1E>
   102e4: 00 20 a0 e1  	mov	r2, r0
   102e8: 10 20 8d e5  	str	r2, [sp, #16]
   102ec: 01 20 a0 e1  	mov	r2, r1
   102f0: 14 20 8d e5  	str	r2, [sp, #20]
   102f4: 88 00 8d e5  	str	r0, [sp, #136]
   102f8: 8c 10 8d e5  	str	r1, [sp, #140]
   102fc: ff ff ff ea  	b	#-4 <_ZN4core5slice29_$LT$impl$u20$$u5b$T$u5d$$GT$9as_chunks17h950d980911bc47fbE+0x148>
   10300: 0c 00 9d e5  	ldr	r0, [sp, #12]
   10304: 24 10 9d e5  	ldr	r1, [sp, #36]
   10308: 08 20 9d e5  	ldr	r2, [sp, #8]
   1030c: 14 30 9d e5  	ldr	r3, [sp, #20]
   10310: 10 c0 9d e5  	ldr	r12, [sp, #16]
   10314: 00 c0 81 e5  	str	r12, [r1]
   10318: 04 30 81 e5  	str	r3, [r1, #4]
   1031c: 08 20 81 e5  	str	r2, [r1, #8]
   10320: 0c 00 81 e5  	str	r0, [r1, #12]
   10324: 90 d0 8d e2  	add	sp, sp, #144
   10328: 00 88 bd e8  	pop	{r11, pc}

0001032c <$d.1739>:
   1032c:	c4 54 01 00	.word	0x000154c4
   10330:	b0 54 01 00	.word	0x000154b0
   10334:	cc 61 01 00	.word	0x000161cc
   10338:	20 52 01 00	.word	0x00015220
   1033c:	bc 61 01 00	.word	0x000161bc
   10340:	ac 61 01 00	.word	0x000161ac

00010344 <_ZN4core5slice29_$LT$impl$u20$$u5b$T$u5d$$GT$8split_at17h48379e8d17f6fd11E>:
   10344: 00 48 2d e9  	push	{r11, lr}
   10348: 20 d0 4d e2  	sub	sp, sp, #32
   1034c: 00 30 8d e5  	str	r3, [sp]
   10350: 04 20 8d e5  	str	r2, [sp, #4]
   10354: 08 10 8d e5  	str	r1, [sp, #8]
   10358: 0c 00 8d e5  	str	r0, [sp, #12]
   1035c: 28 00 9d e5  	ldr	r0, [sp, #40]
   10360: 10 00 8d e5  	str	r0, [sp, #16]
   10364: 14 10 8d e5  	str	r1, [sp, #20]
   10368: 18 20 8d e5  	str	r2, [sp, #24]
   1036c: 1c 30 8d e5  	str	r3, [sp, #28]
   10370: 02 00 53 e1  	cmp	r3, r2
   10374: 06 00 00 8a  	bhi	#24 <_ZN4core5slice29_$LT$impl$u20$$u5b$T$u5d$$GT$8split_at17h48379e8d17f6fd11E+0x50>
   10378: ff ff ff ea  	b	#-4 <_ZN4core5slice29_$LT$impl$u20$$u5b$T$u5d$$GT$8split_at17h48379e8d17f6fd11E+0x38>
   1037c: 00 30 9d e5  	ldr	r3, [sp]
   10380: 04 20 9d e5  	ldr	r2, [sp, #4]
   10384: 08 10 9d e5  	ldr	r1, [sp, #8]
   10388: 0c 00 9d e5  	ldr	r0, [sp, #12]
   1038c: 24 00 00 eb  	bl	#144 <_ZN4core5slice29_$LT$impl$u20$$u5b$T$u5d$$GT$18split_at_unchecked17h6060ba5c4226ec4fE>
   10390: 04 00 00 ea  	b	#16 <_ZN4core5slice29_$LT$impl$u20$$u5b$T$u5d$$GT$8split_at17h48379e8d17f6fd11E+0x64>
   10394: 10 20 9d e5  	ldr	r2, [sp, #16]
   10398: 10 00 9f e5  	ldr	r0, [pc, #16]
   1039c: 23 10 a0 e3  	mov	r1, #35
   103a0: c3 ee ff eb  	bl	#-17652 <_ZN4core9panicking5panic17h70f755644c6683e5E>
   103a4: fe de ff e7  	trap
   103a8: 20 d0 8d e2  	add	sp, sp, #32
   103ac: 00 88 bd e8  	pop	{r11, pc}

000103b0 <$d.1741>:
   103b0:	dc 61 01 00	.word	0x000161dc

000103b4 <_ZN4core5slice29_$LT$impl$u20$$u5b$T$u5d$$GT$8split_at17he87220cefa3c80b2E>:
   103b4: 00 48 2d e9  	push	{r11, lr}
   103b8: 20 d0 4d e2  	sub	sp, sp, #32
   103bc: 00 30 8d e5  	str	r3, [sp]
   103c0: 04 20 8d e5  	str	r2, [sp, #4]
   103c4: 08 10 8d e5  	str	r1, [sp, #8]
   103c8: 0c 00 8d e5  	str	r0, [sp, #12]
   103cc: 28 00 9d e5  	ldr	r0, [sp, #40]
   103d0: 10 00 8d e5  	str	r0, [sp, #16]
   103d4: 14 10 8d e5  	str	r1, [sp, #20]
   103d8: 18 20 8d e5  	str	r2, [sp, #24]
   103dc: 1c 30 8d e5  	str	r3, [sp, #28]
   103e0: 02 00 53 e1  	cmp	r3, r2
   103e4: 06 00 00 8a  	bhi	#24 <_ZN4core5slice29_$LT$impl$u20$$u5b$T$u5d$$GT$8split_at17he87220cefa3c80b2E+0x50>
   103e8: ff ff ff ea  	b	#-4 <_ZN4core5slice29_$LT$impl$u20$$u5b$T$u5d$$GT$8split_at17he87220cefa3c80b2E+0x38>
   103ec: 00 30 9d e5  	ldr	r3, [sp]
   103f0: 04 20 9d e5  	ldr	r2, [sp, #4]
   103f4: 08 10 9d e5  	ldr	r1, [sp, #8]
   103f8: 0c 00 9d e5  	ldr	r0, [sp, #12]
   103fc: 2f 00 00 eb  	bl	#188 <_ZN4core5slice29_$LT$impl$u20$$u5b$T$u5d$$GT$18split_at_unchecked17h7bc1833861925780E>
   10400: 04 00 00 ea  	b	#16 <_ZN4core5slice29_$LT$impl$u20$$u5b$T$u5d$$GT$8split_at17he87220cefa3c80b2E+0x64>
   10404: 10 20 9d e5  	ldr	r2, [sp, #16]
   10408: 10 00 9f e5  	ldr	r0, [pc, #16]
   1040c: 23 10 a0 e3  	mov	r1, #35
   10410: a7 ee ff eb  	bl	#-17764 <_ZN4core9panicking5panic17h70f755644c6683e5E>
   10414: fe de ff e7  	trap
   10418: 20 d0 8d e2  	add	sp, sp, #32
   1041c: 00 88 bd e8  	pop	{r11, pc}

00010420 <$d.1743>:
   10420:	dc 61 01 00	.word	0x000161dc

00010424 <_ZN4core5slice29_$LT$impl$u20$$u5b$T$u5d$$GT$18split_at_unchecked17h6060ba5c4226ec4fE>:
   10424: 00 48 2d e9  	push	{r11, lr}
   10428: 38 d0 4d e2  	sub	sp, sp, #56
   1042c: 0c 30 8d e5  	str	r3, [sp, #12]
   10430: 10 20 8d e5  	str	r2, [sp, #16]
   10434: 01 20 a0 e1  	mov	r2, r1
   10438: 10 10 9d e5  	ldr	r1, [sp, #16]
   1043c: 14 20 8d e5  	str	r2, [sp, #20]
   10440: 00 20 a0 e1  	mov	r2, r0
   10444: 14 00 9d e5  	ldr	r0, [sp, #20]
   10448: 18 20 8d e5  	str	r2, [sp, #24]
   1044c: 2c 00 8d e5  	str	r0, [sp, #44]
   10450: 30 10 8d e5  	str	r1, [sp, #48]
   10454: 34 30 8d e5  	str	r3, [sp, #52]
   10458: 24 30 8d e5  	str	r3, [sp, #36]
   1045c: 24 20 9d e5  	ldr	r2, [sp, #36]
   10460: 1c fe ff eb  	bl	#-1936 <_ZN4core5slice29_$LT$impl$u20$$u5b$T$u5d$$GT$13get_unchecked17h67e4e71b23d961ccE>
   10464: 1c 00 8d e5  	str	r0, [sp, #28]
   10468: 20 10 8d e5  	str	r1, [sp, #32]
   1046c: ff ff ff ea  	b	#-4 <_ZN4core5slice29_$LT$impl$u20$$u5b$T$u5d$$GT$18split_at_unchecked17h6060ba5c4226ec4fE+0x4c>
   10470: 10 10 9d e5  	ldr	r1, [sp, #16]
   10474: 14 00 9d e5  	ldr	r0, [sp, #20]
   10478: 0c 20 9d e5  	ldr	r2, [sp, #12]
   1047c: 28 20 8d e5  	str	r2, [sp, #40]
   10480: 28 20 9d e5  	ldr	r2, [sp, #40]
   10484: f3 fd ff eb  	bl	#-2100 <_ZN4core5slice29_$LT$impl$u20$$u5b$T$u5d$$GT$13get_unchecked17h2b9f57321c9ab110E>
   10488: 04 00 8d e5  	str	r0, [sp, #4]
   1048c: 08 10 8d e5  	str	r1, [sp, #8]
   10490: ff ff ff ea  	b	#-4 <_ZN4core5slice29_$LT$impl$u20$$u5b$T$u5d$$GT$18split_at_unchecked17h6060ba5c4226ec4fE+0x70>
   10494: 08 00 9d e5  	ldr	r0, [sp, #8]
   10498: 18 10 9d e5  	ldr	r1, [sp, #24]
   1049c: 04 20 9d e5  	ldr	r2, [sp, #4]
   104a0: 20 30 9d e5  	ldr	r3, [sp, #32]
   104a4: 1c c0 9d e5  	ldr	r12, [sp, #28]
   104a8: 00 c0 81 e5  	str	r12, [r1]
   104ac: 04 30 81 e5  	str	r3, [r1, #4]
   104b0: 08 20 81 e5  	str	r2, [r1, #8]
   104b4: 0c 00 81 e5  	str	r0, [r1, #12]
   104b8: 38 d0 8d e2  	add	sp, sp, #56
   104bc: 00 88 bd e8  	pop	{r11, pc}

000104c0 <_ZN4core5slice29_$LT$impl$u20$$u5b$T$u5d$$GT$18split_at_unchecked17h7bc1833861925780E>:
   104c0: 00 48 2d e9  	push	{r11, lr}
   104c4: 38 d0 4d e2  	sub	sp, sp, #56
   104c8: 0c 30 8d e5  	str	r3, [sp, #12]
   104cc: 10 20 8d e5  	str	r2, [sp, #16]
   104d0: 01 20 a0 e1  	mov	r2, r1
   104d4: 10 10 9d e5  	ldr	r1, [sp, #16]
   104d8: 14 20 8d e5  	str	r2, [sp, #20]
   104dc: 00 20 a0 e1  	mov	r2, r0
   104e0: 14 00 9d e5  	ldr	r0, [sp, #20]
   104e4: 18 20 8d e5  	str	r2, [sp, #24]
   104e8: 2c 00 8d e5  	str	r0, [sp, #44]
   104ec: 30 10 8d e5  	str	r1, [sp, #48]
   104f0: 34 30 8d e5  	str	r3, [sp, #52]
   104f4: 24 30 8d e5  	str	r3, [sp, #36]
   104f8: 24 20 9d e5  	ldr	r2, [sp, #36]
   104fc: c4 fd ff eb  	bl	#-2288 <_ZN4core5slice29_$LT$impl$u20$$u5b$T$u5d$$GT$13get_unchecked17h090228384a3ea5a0E>
   10500: 1c 00 8d e5  	str	r0, [sp, #28]
   10504: 20 10 8d e5  	str	r1, [sp, #32]
   10508: ff ff ff ea  	b	#-4 <_ZN4core5slice29_$LT$impl$u20$$u5b$T$u5d$$GT$18split_at_unchecked17h7bc1833861925780E+0x4c>
   1050c: 10 10 9d e5  	ldr	r1, [sp, #16]
   10510: 14 00 9d e5  	ldr	r0, [sp, #20]
   10514: 0c 20 9d e5  	ldr	r2, [sp, #12]
   10518: 28 20 8d e5  	str	r2, [sp, #40]
   1051c: 28 20 9d e5  	ldr	r2, [sp, #40]
   10520: fd fd ff eb  	bl	#-2060 <_ZN4core5slice29_$LT$impl$u20$$u5b$T$u5d$$GT$13get_unchecked17h9d359a39158dbe67E>
   10524: 04 00 8d e5  	str	r0, [sp, #4]
   10528: 08 10 8d e5  	str	r1, [sp, #8]
   1052c: ff ff ff ea  	b	#-4 <_ZN4core5slice29_$LT$impl$u20$$u5b$T$u5d$$GT$18split_at_unchecked17h7bc1833861925780E+0x70>
   10530: 08 00 9d e5  	ldr	r0, [sp, #8]
   10534: 18 10 9d e5  	ldr	r1, [sp, #24]
   10538: 04 20 9d e5  	ldr	r2, [sp, #4]
   1053c: 20 30 9d e5  	ldr	r3, [sp, #32]
   10540: 1c c0 9d e5  	ldr	r12, [sp, #28]
   10544: 00 c0 81 e5  	str	r12, [r1]
   10548: 04 30 81 e5  	str	r3, [r1, #4]
   1054c: 08 20 81 e5  	str	r2, [r1, #8]
   10550: 0c 00 81 e5  	str	r0, [r1, #12]
   10554: 38 d0 8d e2  	add	sp, sp, #56
   10558: 00 88 bd e8  	pop	{r11, pc}

0001055c <_ZN4core5slice29_$LT$impl$u20$$u5b$T$u5d$$GT$16align_to_offsets17h3fbc5b4b1927f7e4E>:
   1055c: 00 48 2d e9  	push	{r11, lr}
   10560: 38 d0 4d e2  	sub	sp, sp, #56
   10564: 10 10 8d e5  	str	r1, [sp, #16]
   10568: 1c 00 8d e5  	str	r0, [sp, #28]
   1056c: 20 10 8d e5  	str	r1, [sp, #32]
   10570: ff ff ff ea  	b	#-4 <_ZN4core5slice29_$LT$impl$u20$$u5b$T$u5d$$GT$16align_to_offsets17h3fbc5b4b1927f7e4E+0x18>
   10574: ff ff ff ea  	b	#-4 <_ZN4core5slice29_$LT$impl$u20$$u5b$T$u5d$$GT$16align_to_offsets17h3fbc5b4b1927f7e4E+0x1c>
   10578: 01 00 a0 e3  	mov	r0, #1
   1057c: 04 10 a0 e3  	mov	r1, #4
   10580: 58 00 00 eb  	bl	#352 <_ZN4core5slice29_$LT$impl$u20$$u5b$T$u5d$$GT$16align_to_offsets3gcd17h52ca9ed27e23eecdE>
   10584: 00 10 a0 e1  	mov	r1, r0
   10588: 0c 10 8d e5  	str	r1, [sp, #12]
   1058c: 24 00 8d e5  	str	r0, [sp, #36]
   10590: ff ff ff ea  	b	#-4 <_ZN4core5slice29_$LT$impl$u20$$u5b$T$u5d$$GT$16align_to_offsets17h3fbc5b4b1927f7e4E+0x38>
   10594: ff ff ff ea  	b	#-4 <_ZN4core5slice29_$LT$impl$u20$$u5b$T$u5d$$GT$16align_to_offsets17h3fbc5b4b1927f7e4E+0x3c>
   10598: 0c 00 9d e5  	ldr	r0, [sp, #12]
   1059c: 00 00 50 e3  	cmp	r0, #0
   105a0: 07 00 00 0a  	beq	#28 <_ZN4core5slice29_$LT$impl$u20$$u5b$T$u5d$$GT$16align_to_offsets17h3fbc5b4b1927f7e4E+0x68>
   105a4: ff ff ff ea  	b	#-4 <_ZN4core5slice29_$LT$impl$u20$$u5b$T$u5d$$GT$16align_to_offsets17h3fbc5b4b1927f7e4E+0x4c>
   105a8: 0c 10 9d e5  	ldr	r1, [sp, #12]
   105ac: 04 00 a0 e3  	mov	r0, #4
   105b0: 17 10 00 eb  	bl	#16476 <__aeabi_uidiv>
   105b4: 00 10 a0 e1  	mov	r1, r0
   105b8: 08 10 8d e5  	str	r1, [sp, #8]
   105bc: 28 00 8d e5  	str	r0, [sp, #40]
   105c0: 04 00 00 ea  	b	#16 <_ZN4core5slice29_$LT$impl$u20$$u5b$T$u5d$$GT$16align_to_offsets17h3fbc5b4b1927f7e4E+0x7c>
   105c4: 10 01 9f e5  	ldr	r0, [pc, #272]
   105c8: 14 21 9f e5  	ldr	r2, [pc, #276]
   105cc: 19 10 a0 e3  	mov	r1, #25
   105d0: 37 ee ff eb  	bl	#-18212 <_ZN4core9panicking5panic17h70f755644c6683e5E>
   105d4: fe de ff e7  	trap
   105d8: 0c 00 9d e5  	ldr	r0, [sp, #12]
   105dc: 00 00 50 e3  	cmp	r0, #0
   105e0: 0b 00 00 0a  	beq	#44 <_ZN4core5slice29_$LT$impl$u20$$u5b$T$u5d$$GT$16align_to_offsets17h3fbc5b4b1927f7e4E+0xb8>
   105e4: ff ff ff ea  	b	#-4 <_ZN4core5slice29_$LT$impl$u20$$u5b$T$u5d$$GT$16align_to_offsets17h3fbc5b4b1927f7e4E+0x8c>
   105e8: 0c 10 9d e5  	ldr	r1, [sp, #12]
   105ec: 01 00 a0 e3  	mov	r0, #1
   105f0: 07 10 00 eb  	bl	#16412 <__aeabi_uidiv>
   105f4: 00 10 a0 e1  	mov	r1, r0
   105f8: 08 00 9d e5  	ldr	r0, [sp, #8]
   105fc: 01 20 a0 e1  	mov	r2, r1
   10600: 04 20 8d e5  	str	r2, [sp, #4]
   10604: 2c 10 8d e5  	str	r1, [sp, #44]
   10608: 00 00 50 e3  	cmp	r0, #0
   1060c: 0e 00 00 0a  	beq	#56 <_ZN4core5slice29_$LT$impl$u20$$u5b$T$u5d$$GT$16align_to_offsets17h3fbc5b4b1927f7e4E+0xf0>
   10610: 04 00 00 ea  	b	#16 <_ZN4core5slice29_$LT$impl$u20$$u5b$T$u5d$$GT$16align_to_offsets17h3fbc5b4b1927f7e4E+0xcc>
   10614: c0 00 9f e5  	ldr	r0, [pc, #192]
   10618: c0 20 9f e5  	ldr	r2, [pc, #192]
   1061c: 19 10 a0 e3  	mov	r1, #25
   10620: 23 ee ff eb  	bl	#-18292 <_ZN4core9panicking5panic17h70f755644c6683e5E>
   10624: fe de ff e7  	trap
   10628: 08 10 9d e5  	ldr	r1, [sp, #8]
   1062c: 10 00 9d e5  	ldr	r0, [sp, #16]
   10630: f7 0f 00 eb  	bl	#16348 <__aeabi_uidiv>
   10634: 04 10 9d e5  	ldr	r1, [sp, #4]
   10638: 90 11 80 e0  	umull	r1, r0, r0, r1
   1063c: 00 10 8d e5  	str	r1, [sp]
   10640: 00 00 50 e3  	cmp	r0, #0
   10644: 0b 00 00 1a  	bne	#44 <_ZN4core5slice29_$LT$impl$u20$$u5b$T$u5d$$GT$16align_to_offsets17h3fbc5b4b1927f7e4E+0x11c>
   10648: 04 00 00 ea  	b	#16 <_ZN4core5slice29_$LT$impl$u20$$u5b$T$u5d$$GT$16align_to_offsets17h3fbc5b4b1927f7e4E+0x104>
   1064c: 88 00 9f e5  	ldr	r0, [pc, #136]
   10650: 80 20 9f e5  	ldr	r2, [pc, #128]
   10654: 19 10 a0 e3  	mov	r1, #25
   10658: 15 ee ff eb  	bl	#-18348 <_ZN4core9panicking5panic17h70f755644c6683e5E>
   1065c: fe de ff e7  	trap
   10660: 08 00 9d e5  	ldr	r0, [sp, #8]
   10664: 00 10 9d e5  	ldr	r1, [sp]
   10668: 30 10 8d e5  	str	r1, [sp, #48]
   1066c: 00 00 50 e3  	cmp	r0, #0
   10670: 10 00 00 0a  	beq	#64 <_ZN4core5slice29_$LT$impl$u20$$u5b$T$u5d$$GT$16align_to_offsets17h3fbc5b4b1927f7e4E+0x15c>
   10674: 04 00 00 ea  	b	#16 <_ZN4core5slice29_$LT$impl$u20$$u5b$T$u5d$$GT$16align_to_offsets17h3fbc5b4b1927f7e4E+0x130>
   10678: 54 00 9f e5  	ldr	r0, [pc, #84]
   1067c: 54 20 9f e5  	ldr	r2, [pc, #84]
   10680: 21 10 a0 e3  	mov	r1, #33
   10684: 0a ee ff eb  	bl	#-18392 <_ZN4core9panicking5panic17h70f755644c6683e5E>
   10688: fe de ff e7  	trap
   1068c: 08 10 9d e5  	ldr	r1, [sp, #8]
   10690: 10 00 9d e5  	ldr	r0, [sp, #16]
   10694: 1a 0e 00 eb  	bl	#14440 <__aeabi_uidivmod>
   10698: 00 00 9d e5  	ldr	r0, [sp]
   1069c: 34 10 8d e5  	str	r1, [sp, #52]
   106a0: 14 00 8d e5  	str	r0, [sp, #20]
   106a4: 18 10 8d e5  	str	r1, [sp, #24]
   106a8: 14 00 9d e5  	ldr	r0, [sp, #20]
   106ac: 18 10 9d e5  	ldr	r1, [sp, #24]
   106b0: 38 d0 8d e2  	add	sp, sp, #56
   106b4: 00 88 bd e8  	pop	{r11, pc}
   106b8: 0c 00 9f e5  	ldr	r0, [pc, #12]
   106bc: 0c 20 9f e5  	ldr	r2, [pc, #12]
   106c0: 39 10 a0 e3  	mov	r1, #57
   106c4: fa ed ff eb  	bl	#-18456 <_ZN4core9panicking5panic17h70f755644c6683e5E>
   106c8: fe de ff e7  	trap

000106cc <$d.1780>:
   106cc:	70 54 01 00	.word	0x00015470
   106d0:	30 62 01 00	.word	0x00016230
   106d4:	20 52 01 00	.word	0x00015220
   106d8:	20 62 01 00	.word	0x00016220
   106dc:	50 54 01 00	.word	0x00015450
   106e0:	10 62 01 00	.word	0x00016210
   106e4:	00 62 01 00	.word	0x00016200

000106e8 <_ZN4core5slice29_$LT$impl$u20$$u5b$T$u5d$$GT$16align_to_offsets3gcd17h52ca9ed27e23eecdE>:
   106e8: 00 48 2d e9  	push	{r11, lr}
   106ec: 60 d0 4d e2  	sub	sp, sp, #96
   106f0: 24 10 8d e5  	str	r1, [sp, #36]
   106f4: 28 00 8d e5  	str	r0, [sp, #40]
   106f8: 44 00 8d e5  	str	r0, [sp, #68]
   106fc: 48 10 8d e5  	str	r1, [sp, #72]
   10700: 00 00 50 e3  	cmp	r0, #0
   10704: 03 00 00 1a  	bne	#12 <_ZN4core5slice29_$LT$impl$u20$$u5b$T$u5d$$GT$16align_to_offsets3gcd17h52ca9ed27e23eecdE+0x30>
   10708: ff ff ff ea  	b	#-4 <_ZN4core5slice29_$LT$impl$u20$$u5b$T$u5d$$GT$16align_to_offsets3gcd17h52ca9ed27e23eecdE+0x24>
   1070c: 24 00 9d e5  	ldr	r0, [sp, #36]
   10710: 2c 00 8d e5  	str	r0, [sp, #44]
   10714: 82 00 00 ea  	b	#520 <_ZN4core5slice29_$LT$impl$u20$$u5b$T$u5d$$GT$16align_to_offsets3gcd17h52ca9ed27e23eecdE+0x23c>
   10718: 24 00 9d e5  	ldr	r0, [sp, #36]
   1071c: 00 00 50 e3  	cmp	r0, #0
   10720: 03 00 00 1a  	bne	#12 <_ZN4core5slice29_$LT$impl$u20$$u5b$T$u5d$$GT$16align_to_offsets3gcd17h52ca9ed27e23eecdE+0x4c>
   10724: ff ff ff ea  	b	#-4 <_ZN4core5slice29_$LT$impl$u20$$u5b$T$u5d$$GT$16align_to_offsets3gcd17h52ca9ed27e23eecdE+0x40>
   10728: 28 00 9d e5  	ldr	r0, [sp, #40]
   1072c: 2c 00 8d e5  	str	r0, [sp, #44]
   10730: 7b 00 00 ea  	b	#492 <_ZN4core5slice29_$LT$impl$u20$$u5b$T$u5d$$GT$16align_to_offsets3gcd17h52ca9ed27e23eecdE+0x23c>
   10734: 28 10 9d e5  	ldr	r1, [sp, #40]
   10738: 01 00 41 e2  	sub	r0, r1, #1
   1073c: 01 00 c0 e1  	bic	r0, r0, r1
   10740: 10 0f 6f e1  	clz	r0, r0
   10744: 20 00 60 e2  	rsb	r0, r0, #32
   10748: 4c 00 8d e5  	str	r0, [sp, #76]
   1074c: 4c 00 9d e5  	ldr	r0, [sp, #76]
   10750: 20 00 8d e5  	str	r0, [sp, #32]
   10754: ff ff ff ea  	b	#-4 <_ZN4core5slice29_$LT$impl$u20$$u5b$T$u5d$$GT$16align_to_offsets3gcd17h52ca9ed27e23eecdE+0x70>
   10758: 24 10 9d e5  	ldr	r1, [sp, #36]
   1075c: 01 00 41 e2  	sub	r0, r1, #1
   10760: 01 00 c0 e1  	bic	r0, r0, r1
   10764: 10 0f 6f e1  	clz	r0, r0
   10768: 20 00 60 e2  	rsb	r0, r0, #32
   1076c: 50 00 8d e5  	str	r0, [sp, #80]
   10770: 50 00 9d e5  	ldr	r0, [sp, #80]
   10774: 1c 00 8d e5  	str	r0, [sp, #28]
   10778: ff ff ff ea  	b	#-4 <_ZN4core5slice29_$LT$impl$u20$$u5b$T$u5d$$GT$16align_to_offsets3gcd17h52ca9ed27e23eecdE+0x94>
   1077c: 1c 00 9d e5  	ldr	r0, [sp, #28]
   10780: 20 10 9d e5  	ldr	r1, [sp, #32]
   10784: 34 10 8d e5  	str	r1, [sp, #52]
   10788: 38 00 8d e5  	str	r0, [sp, #56]
   1078c: 34 00 9d e5  	ldr	r0, [sp, #52]
   10790: 14 00 8d e5  	str	r0, [sp, #20]
   10794: 54 00 8d e5  	str	r0, [sp, #84]
   10798: 38 10 9d e5  	ldr	r1, [sp, #56]
   1079c: 30 10 8d e5  	str	r1, [sp, #48]
   107a0: 30 10 9d e5  	ldr	r1, [sp, #48]
   107a4: 28 e9 ff eb  	bl	#-23392 <_ZN4core3cmp3Ord3min17h4dfc62cab0572f9aE>
   107a8: 00 10 a0 e1  	mov	r1, r0
   107ac: 18 10 8d e5  	str	r1, [sp, #24]
   107b0: 58 00 8d e5  	str	r0, [sp, #88]
   107b4: ff ff ff ea  	b	#-4 <_ZN4core5slice29_$LT$impl$u20$$u5b$T$u5d$$GT$16align_to_offsets3gcd17h52ca9ed27e23eecdE+0xd0>
   107b8: 14 00 9d e5  	ldr	r0, [sp, #20]
   107bc: 28 10 9d e5  	ldr	r1, [sp, #40]
   107c0: 1f 20 00 e2  	and	r2, r0, #31
   107c4: 31 12 a0 e1  	lsr	r1, r1, r2
   107c8: 10 10 8d e5  	str	r1, [sp, #16]
   107cc: 1f 10 e0 e3  	mvn	r1, #31
   107d0: 01 00 10 e1  	tst	r0, r1
   107d4: 05 00 00 1a  	bne	#20 <_ZN4core5slice29_$LT$impl$u20$$u5b$T$u5d$$GT$16align_to_offsets3gcd17h52ca9ed27e23eecdE+0x108>
   107d8: ff ff ff ea  	b	#-4 <_ZN4core5slice29_$LT$impl$u20$$u5b$T$u5d$$GT$16align_to_offsets3gcd17h52ca9ed27e23eecdE+0xf4>
   107dc: 24 00 9d e5  	ldr	r0, [sp, #36]
   107e0: 10 10 9d e5  	ldr	r1, [sp, #16]
   107e4: 3c 10 8d e5  	str	r1, [sp, #60]
   107e8: 40 00 8d e5  	str	r0, [sp, #64]
   107ec: 04 00 00 ea  	b	#16 <_ZN4core5slice29_$LT$impl$u20$$u5b$T$u5d$$GT$16align_to_offsets3gcd17h52ca9ed27e23eecdE+0x11c>
   107f0: 48 01 9f e5  	ldr	r0, [pc, #328]
   107f4: 4c 21 9f e5  	ldr	r2, [pc, #332]
   107f8: 24 10 a0 e3  	mov	r1, #36
   107fc: ac ed ff eb  	bl	#-18768 <_ZN4core9panicking5panic17h70f755644c6683e5E>
   10800: fe de ff e7  	trap
   10804: 30 00 9d e5  	ldr	r0, [sp, #48]
   10808: 40 10 9d e5  	ldr	r1, [sp, #64]
   1080c: 1f 20 00 e2  	and	r2, r0, #31
   10810: 31 12 a0 e1  	lsr	r1, r1, r2
   10814: 0c 10 8d e5  	str	r1, [sp, #12]
   10818: 1f 10 e0 e3  	mvn	r1, #31
   1081c: 01 00 10 e1  	tst	r0, r1
   10820: 07 00 00 1a  	bne	#28 <_ZN4core5slice29_$LT$impl$u20$$u5b$T$u5d$$GT$16align_to_offsets3gcd17h52ca9ed27e23eecdE+0x15c>
   10824: ff ff ff ea  	b	#-4 <_ZN4core5slice29_$LT$impl$u20$$u5b$T$u5d$$GT$16align_to_offsets3gcd17h52ca9ed27e23eecdE+0x140>
   10828: 0c 00 9d e5  	ldr	r0, [sp, #12]
   1082c: 40 00 8d e5  	str	r0, [sp, #64]
   10830: 3c 00 9d e5  	ldr	r0, [sp, #60]
   10834: 40 10 9d e5  	ldr	r1, [sp, #64]
   10838: 01 00 50 e1  	cmp	r0, r1
   1083c: 0c 00 00 8a  	bhi	#48 <_ZN4core5slice29_$LT$impl$u20$$u5b$T$u5d$$GT$16align_to_offsets3gcd17h52ca9ed27e23eecdE+0x18c>
   10840: 04 00 00 ea  	b	#16 <_ZN4core5slice29_$LT$impl$u20$$u5b$T$u5d$$GT$16align_to_offsets3gcd17h52ca9ed27e23eecdE+0x170>
   10844: f4 00 9f e5  	ldr	r0, [pc, #244]
   10848: f4 20 9f e5  	ldr	r2, [pc, #244]
   1084c: 24 10 a0 e3  	mov	r1, #36
   10850: 97 ed ff eb  	bl	#-18852 <_ZN4core9panicking5panic17h70f755644c6683e5E>
   10854: fe de ff e7  	trap
   10858: 40 00 9d e5  	ldr	r0, [sp, #64]
   1085c: 3c 10 9d e5  	ldr	r1, [sp, #60]
   10860: 01 20 40 e0  	sub	r2, r0, r1
   10864: 08 20 8d e5  	str	r2, [sp, #8]
   10868: 01 00 50 e1  	cmp	r0, r1
   1086c: 0a 00 00 3a  	blo	#40 <_ZN4core5slice29_$LT$impl$u20$$u5b$T$u5d$$GT$16align_to_offsets3gcd17h52ca9ed27e23eecdE+0x1b4>
   10870: 03 00 00 ea  	b	#12 <_ZN4core5slice29_$LT$impl$u20$$u5b$T$u5d$$GT$16align_to_offsets3gcd17h52ca9ed27e23eecdE+0x19c>
   10874: 3c 00 8d e2  	add	r0, sp, #60
   10878: 40 10 8d e2  	add	r1, sp, #64
   1087c: 98 e4 ff eb  	bl	#-28064 <_ZN4core3mem4swap17h452343371b57d963E>
   10880: f4 ff ff ea  	b	#-48 <_ZN4core5slice29_$LT$impl$u20$$u5b$T$u5d$$GT$16align_to_offsets3gcd17h52ca9ed27e23eecdE+0x170>
   10884: 08 00 9d e5  	ldr	r0, [sp, #8]
   10888: 40 00 8d e5  	str	r0, [sp, #64]
   1088c: 40 00 9d e5  	ldr	r0, [sp, #64]
   10890: 00 00 50 e3  	cmp	r0, #0
   10894: 05 00 00 0a  	beq	#20 <_ZN4core5slice29_$LT$impl$u20$$u5b$T$u5d$$GT$16align_to_offsets3gcd17h52ca9ed27e23eecdE+0x1c8>
   10898: 0d 00 00 ea  	b	#52 <_ZN4core5slice29_$LT$impl$u20$$u5b$T$u5d$$GT$16align_to_offsets3gcd17h52ca9ed27e23eecdE+0x1ec>
   1089c: 94 00 9f e5  	ldr	r0, [pc, #148]
   108a0: 94 20 9f e5  	ldr	r2, [pc, #148]
   108a4: 21 10 a0 e3  	mov	r1, #33
   108a8: 81 ed ff eb  	bl	#-18940 <_ZN4core9panicking5panic17h70f755644c6683e5E>
   108ac: fe de ff e7  	trap
   108b0: 18 00 9d e5  	ldr	r0, [sp, #24]
   108b4: 3c 10 9d e5  	ldr	r1, [sp, #60]
   108b8: 1f 20 00 e2  	and	r2, r0, #31
   108bc: 11 12 a0 e1  	lsl	r1, r1, r2
   108c0: 04 10 8d e5  	str	r1, [sp, #4]
   108c4: 1f 10 e0 e3  	mvn	r1, #31
   108c8: 01 00 10 e1  	tst	r0, r1
   108cc: 0f 00 00 1a  	bne	#60 <_ZN4core5slice29_$LT$impl$u20$$u5b$T$u5d$$GT$16align_to_offsets3gcd17h52ca9ed27e23eecdE+0x228>
   108d0: 0b 00 00 ea  	b	#44 <_ZN4core5slice29_$LT$impl$u20$$u5b$T$u5d$$GT$16align_to_offsets3gcd17h52ca9ed27e23eecdE+0x21c>
   108d4: 40 10 9d e5  	ldr	r1, [sp, #64]
   108d8: 01 00 41 e2  	sub	r0, r1, #1
   108dc: 01 00 c0 e1  	bic	r0, r0, r1
   108e0: 10 0f 6f e1  	clz	r0, r0
   108e4: 20 00 60 e2  	rsb	r0, r0, #32
   108e8: 5c 00 8d e5  	str	r0, [sp, #92]
   108ec: 5c 00 9d e5  	ldr	r0, [sp, #92]
   108f0: 00 00 8d e5  	str	r0, [sp]
   108f4: ff ff ff ea  	b	#-4 <_ZN4core5slice29_$LT$impl$u20$$u5b$T$u5d$$GT$16align_to_offsets3gcd17h52ca9ed27e23eecdE+0x210>
   108f8: 00 00 9d e5  	ldr	r0, [sp]
   108fc: 30 00 8d e5  	str	r0, [sp, #48]
   10900: bf ff ff ea  	b	#-260 <_ZN4core5slice29_$LT$impl$u20$$u5b$T$u5d$$GT$16align_to_offsets3gcd17h52ca9ed27e23eecdE+0x11c>
   10904: 04 00 9d e5  	ldr	r0, [sp, #4]
   10908: 2c 00 8d e5  	str	r0, [sp, #44]
   1090c: 04 00 00 ea  	b	#16 <_ZN4core5slice29_$LT$impl$u20$$u5b$T$u5d$$GT$16align_to_offsets3gcd17h52ca9ed27e23eecdE+0x23c>
   10910: 18 00 9f e5  	ldr	r0, [pc, #24]
   10914: 18 20 9f e5  	ldr	r2, [pc, #24]
   10918: 23 10 a0 e3  	mov	r1, #35
   1091c: 64 ed ff eb  	bl	#-19056 <_ZN4core9panicking5panic17h70f755644c6683e5E>
   10920: fe de ff e7  	trap
   10924: 2c 00 9d e5  	ldr	r0, [sp, #44]
   10928: 60 d0 8d e2  	add	sp, sp, #96
   1092c: 00 88 bd e8  	pop	{r11, pc}

00010930 <$d.1784>:
   10930:	50 52 01 00	.word	0x00015250
   10934:	70 62 01 00	.word	0x00016270
   10938:	d0 51 01 00	.word	0x000151d0
   1093c:	60 62 01 00	.word	0x00016260
   10940:	80 52 01 00	.word	0x00015280
   10944:	50 62 01 00	.word	0x00016250
   10948:	40 62 01 00	.word	0x00016240

0001094c <_ZN4core5slice29_$LT$impl$u20$$u5b$T$u5d$$GT$8align_to17hfcf2be5c78c5ce3bE>:
   1094c: 10 40 2d e9  	push	{r4, lr}
   10950: a0 d0 4d e2  	sub	sp, sp, #160
   10954: 44 20 8d e5  	str	r2, [sp, #68]
   10958: 48 10 8d e5  	str	r1, [sp, #72]
   1095c: 4c 00 8d e5  	str	r0, [sp, #76]
   10960: 64 10 8d e5  	str	r1, [sp, #100]
   10964: 68 20 8d e5  	str	r2, [sp, #104]
   10968: ff ff ff ea  	b	#-4 <_ZN4core5slice29_$LT$impl$u20$$u5b$T$u5d$$GT$8align_to17hfcf2be5c78c5ce3bE+0x20>
   1096c: 01 00 a0 e3  	mov	r0, #1
   10970: 00 00 50 e3  	cmp	r0, #0
   10974: 03 00 00 1a  	bne	#12 <_ZN4core5slice29_$LT$impl$u20$$u5b$T$u5d$$GT$8align_to17hfcf2be5c78c5ce3bE+0x3c>
   10978: ff ff ff ea  	b	#-4 <_ZN4core5slice29_$LT$impl$u20$$u5b$T$u5d$$GT$8align_to17hfcf2be5c78c5ce3bE+0x30>
   1097c: 01 00 a0 e3  	mov	r0, #1
   10980: 53 00 cd e5  	strb	r0, [sp, #83]
   10984: 03 00 00 ea  	b	#12 <_ZN4core5slice29_$LT$impl$u20$$u5b$T$u5d$$GT$8align_to17hfcf2be5c78c5ce3bE+0x4c>
   10988: ff ff ff ea  	b	#-4 <_ZN4core5slice29_$LT$impl$u20$$u5b$T$u5d$$GT$8align_to17hfcf2be5c78c5ce3bE+0x40>
   1098c: 00 00 a0 e3  	mov	r0, #0
   10990: 53 00 cd e5  	strb	r0, [sp, #83]
   10994: ff ff ff ea  	b	#-4 <_ZN4core5slice29_$LT$impl$u20$$u5b$T$u5d$$GT$8align_to17hfcf2be5c78c5ce3bE+0x4c>
   10998: 53 00 dd e5  	ldrb	r0, [sp, #83]
   1099c: 01 00 10 e3  	tst	r0, #1
   109a0: 07 00 00 1a  	bne	#28 <_ZN4core5slice29_$LT$impl$u20$$u5b$T$u5d$$GT$8align_to17hfcf2be5c78c5ce3bE+0x78>
   109a4: ff ff ff ea  	b	#-4 <_ZN4core5slice29_$LT$impl$u20$$u5b$T$u5d$$GT$8align_to17hfcf2be5c78c5ce3bE+0x5c>
   109a8: 44 10 9d e5  	ldr	r1, [sp, #68]
   109ac: 48 00 9d e5  	ldr	r0, [sp, #72]
   109b0: 12 fd ff eb  	bl	#-3000 <_ZN4core5slice29_$LT$impl$u20$$u5b$T$u5d$$GT$6as_ptr17he76bcbec392c544eE>
   109b4: 00 10 a0 e1  	mov	r1, r0
   109b8: 40 10 8d e5  	str	r1, [sp, #64]
   109bc: 6c 00 8d e5  	str	r0, [sp, #108]
   109c0: 0d 00 00 ea  	b	#52 <_ZN4core5slice29_$LT$impl$u20$$u5b$T$u5d$$GT$8align_to17hfcf2be5c78c5ce3bE+0xb0>
   109c4: 4c 10 9d e5  	ldr	r1, [sp, #76]
   109c8: 44 00 9d e5  	ldr	r0, [sp, #68]
   109cc: 48 20 9d e5  	ldr	r2, [sp, #72]
   109d0: 00 20 81 e5  	str	r2, [r1]
   109d4: 04 00 81 e5  	str	r0, [r1, #4]
   109d8: ec 21 9f e5  	ldr	r2, [pc, #492]
   109dc: 08 20 81 e5  	str	r2, [r1, #8]
   109e0: 00 00 a0 e3  	mov	r0, #0
   109e4: 0c 00 81 e5  	str	r0, [r1, #12]
   109e8: 10 20 81 e5  	str	r2, [r1, #16]
   109ec: 14 00 81 e5  	str	r0, [r1, #20]
   109f0: ff ff ff ea  	b	#-4 <_ZN4core5slice29_$LT$impl$u20$$u5b$T$u5d$$GT$8align_to17hfcf2be5c78c5ce3bE+0xa8>
   109f4: a0 d0 8d e2  	add	sp, sp, #160
   109f8: 10 80 bd e8  	pop	{r4, pc}
   109fc: ff ff ff ea  	b	#-4 <_ZN4core5slice29_$LT$impl$u20$$u5b$T$u5d$$GT$8align_to17hfcf2be5c78c5ce3bE+0xb4>
   10a00: 40 00 9d e5  	ldr	r0, [sp, #64]
   10a04: 04 10 a0 e3  	mov	r1, #4
   10a08: a2 e7 ff eb  	bl	#-24952 <_ZN4core3ptr12align_offset17h7dced9cb56e93b5fE>
   10a0c: 00 10 a0 e1  	mov	r1, r0
   10a10: 3c 10 8d e5  	str	r1, [sp, #60]
   10a14: 70 00 8d e5  	str	r0, [sp, #112]
   10a18: ff ff ff ea  	b	#-4 <_ZN4core5slice29_$LT$impl$u20$$u5b$T$u5d$$GT$8align_to17hfcf2be5c78c5ce3bE+0xd0>
   10a1c: 3c 00 9d e5  	ldr	r0, [sp, #60]
   10a20: 44 10 9d e5  	ldr	r1, [sp, #68]
   10a24: 01 00 50 e1  	cmp	r0, r1
   10a28: 09 00 00 8a  	bhi	#36 <_ZN4core5slice29_$LT$impl$u20$$u5b$T$u5d$$GT$8align_to17hfcf2be5c78c5ce3bE+0x108>
   10a2c: ff ff ff ea  	b	#-4 <_ZN4core5slice29_$LT$impl$u20$$u5b$T$u5d$$GT$8align_to17hfcf2be5c78c5ce3bE+0xe4>
   10a30: 3c 30 9d e5  	ldr	r3, [sp, #60]
   10a34: 44 20 9d e5  	ldr	r2, [sp, #68]
   10a38: 48 10 9d e5  	ldr	r1, [sp, #72]
   10a3c: 7c 01 9f e5  	ldr	r0, [pc, #380]
   10a40: 0d c0 a0 e1  	mov	r12, sp
   10a44: 00 00 8c e5  	str	r0, [r12]
   10a48: 54 00 8d e2  	add	r0, sp, #84
   10a4c: 58 fe ff eb  	bl	#-1696 <_ZN4core5slice29_$LT$impl$u20$$u5b$T$u5d$$GT$8split_at17he87220cefa3c80b2E>
   10a50: 0b 00 00 ea  	b	#44 <_ZN4core5slice29_$LT$impl$u20$$u5b$T$u5d$$GT$8align_to17hfcf2be5c78c5ce3bE+0x138>
   10a54: 4c 10 9d e5  	ldr	r1, [sp, #76]
   10a58: 44 00 9d e5  	ldr	r0, [sp, #68]
   10a5c: 48 20 9d e5  	ldr	r2, [sp, #72]
   10a60: 00 20 81 e5  	str	r2, [r1]
   10a64: 04 00 81 e5  	str	r0, [r1, #4]
   10a68: 5c 21 9f e5  	ldr	r2, [pc, #348]
   10a6c: 08 20 81 e5  	str	r2, [r1, #8]
   10a70: 00 00 a0 e3  	mov	r0, #0
   10a74: 0c 00 81 e5  	str	r0, [r1, #12]
   10a78: 10 20 81 e5  	str	r2, [r1, #16]
   10a7c: 14 00 81 e5  	str	r0, [r1, #20]
   10a80: db ff ff ea  	b	#-148 <_ZN4core5slice29_$LT$impl$u20$$u5b$T$u5d$$GT$8align_to17hfcf2be5c78c5ce3bE+0xa8>
   10a84: 54 10 9d e5  	ldr	r1, [sp, #84]
   10a88: 24 10 8d e5  	str	r1, [sp, #36]
   10a8c: 58 00 9d e5  	ldr	r0, [sp, #88]
   10a90: 28 00 8d e5  	str	r0, [sp, #40]
   10a94: 74 10 8d e5  	str	r1, [sp, #116]
   10a98: 78 00 8d e5  	str	r0, [sp, #120]
   10a9c: 5c 00 9d e5  	ldr	r0, [sp, #92]
   10aa0: 2c 00 8d e5  	str	r0, [sp, #44]
   10aa4: 60 10 9d e5  	ldr	r1, [sp, #96]
   10aa8: 30 10 8d e5  	str	r1, [sp, #48]
   10aac: 7c 00 8d e5  	str	r0, [sp, #124]
   10ab0: 80 10 8d e5  	str	r1, [sp, #128]
   10ab4: a8 fe ff eb  	bl	#-1376 <_ZN4core5slice29_$LT$impl$u20$$u5b$T$u5d$$GT$16align_to_offsets17h3fbc5b4b1927f7e4E>
   10ab8: 34 00 8d e5  	str	r0, [sp, #52]
   10abc: 38 10 8d e5  	str	r1, [sp, #56]
   10ac0: ff ff ff ea  	b	#-4 <_ZN4core5slice29_$LT$impl$u20$$u5b$T$u5d$$GT$8align_to17hfcf2be5c78c5ce3bE+0x178>
   10ac4: 30 10 9d e5  	ldr	r1, [sp, #48]
   10ac8: 2c 00 9d e5  	ldr	r0, [sp, #44]
   10acc: 38 20 9d e5  	ldr	r2, [sp, #56]
   10ad0: 34 30 9d e5  	ldr	r3, [sp, #52]
   10ad4: 84 30 8d e5  	str	r3, [sp, #132]
   10ad8: 88 20 8d e5  	str	r2, [sp, #136]
   10adc: c7 fc ff eb  	bl	#-3300 <_ZN4core5slice29_$LT$impl$u20$$u5b$T$u5d$$GT$6as_ptr17he76bcbec392c544eE>
   10ae0: 20 00 8d e5  	str	r0, [sp, #32]
   10ae4: ff ff ff ea  	b	#-4 <_ZN4core5slice29_$LT$impl$u20$$u5b$T$u5d$$GT$8align_to17hfcf2be5c78c5ce3bE+0x19c>
   10ae8: 34 10 9d e5  	ldr	r1, [sp, #52]
   10aec: 20 00 9d e5  	ldr	r0, [sp, #32]
   10af0: 4d fb ff eb  	bl	#-4812 <_ZN4core5slice3raw14from_raw_parts17hc225916af7a02989E>
   10af4: 18 00 8d e5  	str	r0, [sp, #24]
   10af8: 1c 10 8d e5  	str	r1, [sp, #28]
   10afc: ff ff ff ea  	b	#-4 <_ZN4core5slice29_$LT$impl$u20$$u5b$T$u5d$$GT$8align_to17hfcf2be5c78c5ce3bE+0x1b4>
   10b00: 30 10 9d e5  	ldr	r1, [sp, #48]
   10b04: 2c 00 9d e5  	ldr	r0, [sp, #44]
   10b08: bc fc ff eb  	bl	#-3344 <_ZN4core5slice29_$LT$impl$u20$$u5b$T$u5d$$GT$6as_ptr17he76bcbec392c544eE>
   10b0c: 14 00 8d e5  	str	r0, [sp, #20]
   10b10: ff ff ff ea  	b	#-4 <_ZN4core5slice29_$LT$impl$u20$$u5b$T$u5d$$GT$8align_to17hfcf2be5c78c5ce3bE+0x1c8>
   10b14: 30 00 9d e5  	ldr	r0, [sp, #48]
   10b18: 38 10 9d e5  	ldr	r1, [sp, #56]
   10b1c: 01 20 40 e0  	sub	r2, r0, r1
   10b20: 10 20 8d e5  	str	r2, [sp, #16]
   10b24: 01 00 50 e1  	cmp	r0, r1
   10b28: 0b 00 00 3a  	blo	#44 <_ZN4core5slice29_$LT$impl$u20$$u5b$T$u5d$$GT$8align_to17hfcf2be5c78c5ce3bE+0x210>
   10b2c: ff ff ff ea  	b	#-4 <_ZN4core5slice29_$LT$impl$u20$$u5b$T$u5d$$GT$8align_to17hfcf2be5c78c5ce3bE+0x1e4>
   10b30: 14 00 9d e5  	ldr	r0, [sp, #20]
   10b34: 10 10 9d e5  	ldr	r1, [sp, #16]
   10b38: 8c 00 8d e5  	str	r0, [sp, #140]
   10b3c: 90 10 8d e5  	str	r1, [sp, #144]
   10b40: 94 00 8d e5  	str	r0, [sp, #148]
   10b44: 98 10 8d e5  	str	r1, [sp, #152]
   10b48: 01 00 80 e0  	add	r0, r0, r1
   10b4c: 9c 00 8d e5  	str	r0, [sp, #156]
   10b50: 9c 00 9d e5  	ldr	r0, [sp, #156]
   10b54: 0c 00 8d e5  	str	r0, [sp, #12]
   10b58: 04 00 00 ea  	b	#16 <_ZN4core5slice29_$LT$impl$u20$$u5b$T$u5d$$GT$8align_to17hfcf2be5c78c5ce3bE+0x224>
   10b5c: 60 00 9f e5  	ldr	r0, [pc, #96]
   10b60: 60 20 9f e5  	ldr	r2, [pc, #96]
   10b64: 21 10 a0 e3  	mov	r1, #33
   10b68: d1 ec ff eb  	bl	#-19644 <_ZN4core9panicking5panic17h70f755644c6683e5E>
   10b6c: fe de ff e7  	trap
   10b70: 38 10 9d e5  	ldr	r1, [sp, #56]
   10b74: 0c 00 9d e5  	ldr	r0, [sp, #12]
   10b78: 19 fb ff eb  	bl	#-5020 <_ZN4core5slice3raw14from_raw_parts17h2c7aceaf3e66256fE>
   10b7c: 04 00 8d e5  	str	r0, [sp, #4]
   10b80: 08 10 8d e5  	str	r1, [sp, #8]
   10b84: ff ff ff ea  	b	#-4 <_ZN4core5slice29_$LT$impl$u20$$u5b$T$u5d$$GT$8align_to17hfcf2be5c78c5ce3bE+0x23c>
   10b88: 08 00 9d e5  	ldr	r0, [sp, #8]
   10b8c: 4c 10 9d e5  	ldr	r1, [sp, #76]
   10b90: 04 20 9d e5  	ldr	r2, [sp, #4]
   10b94: 1c 30 9d e5  	ldr	r3, [sp, #28]
   10b98: 18 c0 9d e5  	ldr	r12, [sp, #24]
   10b9c: 28 e0 9d e5  	ldr	lr, [sp, #40]
   10ba0: 24 40 9d e5  	ldr	r4, [sp, #36]
   10ba4: 00 40 81 e5  	str	r4, [r1]
   10ba8: 04 e0 81 e5  	str	lr, [r1, #4]
   10bac: 08 c0 81 e5  	str	r12, [r1, #8]
   10bb0: 0c 30 81 e5  	str	r3, [r1, #12]
   10bb4: 10 20 81 e5  	str	r2, [r1, #16]
   10bb8: 14 00 81 e5  	str	r0, [r1, #20]
   10bbc: 8c ff ff ea  	b	#-464 <_ZN4core5slice29_$LT$impl$u20$$u5b$T$u5d$$GT$8align_to17hfcf2be5c78c5ce3bE+0xa8>

00010bc0 <$d.1788>:
   10bc0:	80 62 01 00	.word	0x00016280
   10bc4:	d0 51 01 00	.word	0x000151d0
   10bc8:	90 62 01 00	.word	0x00016290
   10bcc:	38 55 01 00	.word	0x00015538

00010bd0 <_ZN4core3str8converts19from_utf8_unchecked17h52dbaed8b9b07d57E>:
   10bd0: 18 d0 4d e2  	sub	sp, sp, #24
   10bd4: 08 00 8d e5  	str	r0, [sp, #8]
   10bd8: 0c 10 8d e5  	str	r1, [sp, #12]
   10bdc: 10 00 8d e5  	str	r0, [sp, #16]
   10be0: 14 10 8d e5  	str	r1, [sp, #20]
   10be4: 10 00 9d e5  	ldr	r0, [sp, #16]
   10be8: 00 00 8d e5  	str	r0, [sp]
   10bec: 14 00 9d e5  	ldr	r0, [sp, #20]
   10bf0: 04 00 8d e5  	str	r0, [sp, #4]
   10bf4: ff ff ff ea  	b	#-4 <_ZN4core3str8converts19from_utf8_unchecked17h52dbaed8b9b07d57E+0x28>
   10bf8: 04 10 9d e5  	ldr	r1, [sp, #4]
   10bfc: 00 00 9d e5  	ldr	r0, [sp]
   10c00: 18 d0 8d e2  	add	sp, sp, #24
   10c04: 1e ff 2f e1  	bx	lr

00010c08 <_ZN4core3str5count11count_chars17hfe9d88bbf5353924E>:
   10c08: 00 48 2d e9  	push	{r11, lr}
   10c0c: 30 d0 4d e2  	sub	sp, sp, #48
   10c10: 08 10 8d e5  	str	r1, [sp, #8]
   10c14: 0c 00 8d e5  	str	r0, [sp, #12]
   10c18: 18 00 8d e5  	str	r0, [sp, #24]
   10c1c: 1c 10 8d e5  	str	r1, [sp, #28]
   10c20: 88 03 00 eb  	bl	#3616 <_ZN4core3str21_$LT$impl$u20$str$GT$3len17h14a3611b18a00a0eE>
   10c24: 10 00 8d e5  	str	r0, [sp, #16]
   10c28: ff ff ff ea  	b	#-4 <_ZN4core3str5count11count_chars17hfe9d88bbf5353924E+0x24>
   10c2c: 10 00 9d e5  	ldr	r0, [sp, #16]
   10c30: 10 00 50 e3  	cmp	r0, #16
   10c34: 05 00 00 3a  	blo	#20 <_ZN4core3str5count11count_chars17hfe9d88bbf5353924E+0x48>
   10c38: ff ff ff ea  	b	#-4 <_ZN4core3str5count11count_chars17hfe9d88bbf5353924E+0x34>
   10c3c: 08 10 9d e5  	ldr	r1, [sp, #8]
   10c40: 0c 00 9d e5  	ldr	r0, [sp, #12]
   10c44: 14 00 00 eb  	bl	#80 <_ZN4core3str5count14do_count_chars17h7d881dc4ec4d70a8E>
   10c48: 14 00 8d e5  	str	r0, [sp, #20]
   10c4c: 0f 00 00 ea  	b	#60 <_ZN4core3str5count11count_chars17hfe9d88bbf5353924E+0x88>
   10c50: 08 00 9d e5  	ldr	r0, [sp, #8]
   10c54: 0c 10 9d e5  	ldr	r1, [sp, #12]
   10c58: 20 10 8d e5  	str	r1, [sp, #32]
   10c5c: 24 00 8d e5  	str	r0, [sp, #36]
   10c60: 28 10 8d e5  	str	r1, [sp, #40]
   10c64: 2c 00 8d e5  	str	r0, [sp, #44]
   10c68: 28 00 9d e5  	ldr	r0, [sp, #40]
   10c6c: 00 00 8d e5  	str	r0, [sp]
   10c70: 2c 00 9d e5  	ldr	r0, [sp, #44]
   10c74: 04 00 8d e5  	str	r0, [sp, #4]
   10c78: ff ff ff ea  	b	#-4 <_ZN4core3str5count11count_chars17hfe9d88bbf5353924E+0x74>
   10c7c: 04 10 9d e5  	ldr	r1, [sp, #4]
   10c80: 00 00 9d e5  	ldr	r0, [sp]
   10c84: 8f 01 00 eb  	bl	#1596 <_ZN4core3str5count23char_count_general_case17he4b6dcb5826225bbE>
   10c88: 14 00 8d e5  	str	r0, [sp, #20]
   10c8c: ff ff ff ea  	b	#-4 <_ZN4core3str5count11count_chars17hfe9d88bbf5353924E+0x88>
   10c90: 14 00 9d e5  	ldr	r0, [sp, #20]
   10c94: 30 d0 8d e2  	add	sp, sp, #48
   10c98: 00 88 bd e8  	pop	{r11, pc}

00010c9c <_ZN4core3str5count14do_count_chars17h7d881dc4ec4d70a8E>:
   10c9c: 00 48 2d e9  	push	{r11, lr}
   10ca0: 06 dd 4d e2  	sub	sp, sp, #384
   10ca4: 7c 10 8d e5  	str	r1, [sp, #124]
   10ca8: 80 00 8d e5  	str	r0, [sp, #128]
   10cac: 18 01 8d e5  	str	r0, [sp, #280]
   10cb0: 1c 11 8d e5  	str	r1, [sp, #284]
   10cb4: 70 01 8d e5  	str	r0, [sp, #368]
   10cb8: 74 11 8d e5  	str	r1, [sp, #372]
   10cbc: 78 01 8d e5  	str	r0, [sp, #376]
   10cc0: 7c 11 8d e5  	str	r1, [sp, #380]
   10cc4: 78 01 9d e5  	ldr	r0, [sp, #376]
   10cc8: 84 00 8d e5  	str	r0, [sp, #132]
   10ccc: 7c 01 9d e5  	ldr	r0, [sp, #380]
   10cd0: 88 00 8d e5  	str	r0, [sp, #136]
   10cd4: ff ff ff ea  	b	#-4 <_ZN4core3str5count14do_count_chars17h7d881dc4ec4d70a8E+0x3c>
   10cd8: 88 20 9d e5  	ldr	r2, [sp, #136]
   10cdc: 84 10 9d e5  	ldr	r1, [sp, #132]
   10ce0: 90 00 8d e2  	add	r0, sp, #144
   10ce4: 18 ff ff eb  	bl	#-928 <_ZN4core5slice29_$LT$impl$u20$$u5b$T$u5d$$GT$8align_to17hfcf2be5c78c5ce3bE>
   10ce8: ff ff ff ea  	b	#-4 <_ZN4core3str5count14do_count_chars17h7d881dc4ec4d70a8E+0x50>
   10cec: 90 10 9d e5  	ldr	r1, [sp, #144]
   10cf0: 60 10 8d e5  	str	r1, [sp, #96]
   10cf4: 94 00 9d e5  	ldr	r0, [sp, #148]
   10cf8: 64 00 8d e5  	str	r0, [sp, #100]
   10cfc: 20 11 8d e5  	str	r1, [sp, #288]
   10d00: 24 01 8d e5  	str	r0, [sp, #292]
   10d04: 98 00 9d e5  	ldr	r0, [sp, #152]
   10d08: 68 00 8d e5  	str	r0, [sp, #104]
   10d0c: 9c 10 9d e5  	ldr	r1, [sp, #156]
   10d10: 6c 10 8d e5  	str	r1, [sp, #108]
   10d14: 28 01 8d e5  	str	r0, [sp, #296]
   10d18: 2c 11 8d e5  	str	r1, [sp, #300]
   10d1c: a0 30 9d e5  	ldr	r3, [sp, #160]
   10d20: 70 30 8d e5  	str	r3, [sp, #112]
   10d24: a4 20 9d e5  	ldr	r2, [sp, #164]
   10d28: 74 20 8d e5  	str	r2, [sp, #116]
   10d2c: 30 31 8d e5  	str	r3, [sp, #304]
   10d30: 34 21 8d e5  	str	r2, [sp, #308]
   10d34: 91 fb ff eb  	bl	#-4540 <_ZN4core5slice29_$LT$impl$u20$$u5b$T$u5d$$GT$8is_empty17h7a896da0465f87a7E>
   10d38: 78 00 8d e5  	str	r0, [sp, #120]
   10d3c: ff ff ff ea  	b	#-4 <_ZN4core3str5count14do_count_chars17h7d881dc4ec4d70a8E+0xa4>
   10d40: 78 00 9d e5  	ldr	r0, [sp, #120]
   10d44: 01 00 10 e3  	tst	r0, #1
   10d48: 06 00 00 1a  	bne	#24 <_ZN4core3str5count14do_count_chars17h7d881dc4ec4d70a8E+0xcc>
   10d4c: ff ff ff ea  	b	#-4 <_ZN4core3str5count14do_count_chars17h7d881dc4ec4d70a8E+0xb4>
   10d50: 64 10 9d e5  	ldr	r1, [sp, #100]
   10d54: 00 00 a0 e3  	mov	r0, #0
   10d58: 04 00 51 e3  	cmp	r1, #4
   10d5c: 01 00 a0 83  	movhi	r0, #1
   10d60: ab 00 cd e5  	strb	r0, [sp, #171]
   10d64: 02 00 00 ea  	b	#8 <_ZN4core3str5count14do_count_chars17h7d881dc4ec4d70a8E+0xd8>
   10d68: 01 00 a0 e3  	mov	r0, #1
   10d6c: ab 00 cd e5  	strb	r0, [sp, #171]
   10d70: ff ff ff ea  	b	#-4 <_ZN4core3str5count14do_count_chars17h7d881dc4ec4d70a8E+0xd8>
   10d74: ab 00 dd e5  	ldrb	r0, [sp, #171]
   10d78: 01 00 10 e3  	tst	r0, #1
   10d7c: 06 00 00 1a  	bne	#24 <_ZN4core3str5count14do_count_chars17h7d881dc4ec4d70a8E+0x100>
   10d80: ff ff ff ea  	b	#-4 <_ZN4core3str5count14do_count_chars17h7d881dc4ec4d70a8E+0xe8>
   10d84: 74 10 9d e5  	ldr	r1, [sp, #116]
   10d88: 00 00 a0 e3  	mov	r0, #0
   10d8c: 04 00 51 e3  	cmp	r1, #4
   10d90: 01 00 a0 83  	movhi	r0, #1
   10d94: aa 00 cd e5  	strb	r0, [sp, #170]
   10d98: 02 00 00 ea  	b	#8 <_ZN4core3str5count14do_count_chars17h7d881dc4ec4d70a8E+0x10c>
   10d9c: 01 00 a0 e3  	mov	r0, #1
   10da0: aa 00 cd e5  	strb	r0, [sp, #170]
   10da4: ff ff ff ea  	b	#-4 <_ZN4core3str5count14do_count_chars17h7d881dc4ec4d70a8E+0x10c>
   10da8: aa 00 dd e5  	ldrb	r0, [sp, #170]
   10dac: 3b 01 cd e5  	strb	r0, [sp, #315]
   10db0: 3b 01 dd e5  	ldrb	r0, [sp, #315]
   10db4: 5c 00 8d e5  	str	r0, [sp, #92]
   10db8: ff ff ff ea  	b	#-4 <_ZN4core3str5count14do_count_chars17h7d881dc4ec4d70a8E+0x120>
   10dbc: 5c 00 9d e5  	ldr	r0, [sp, #92]
   10dc0: 01 00 10 e3  	tst	r0, #1
   10dc4: 05 00 00 1a  	bne	#20 <_ZN4core3str5count14do_count_chars17h7d881dc4ec4d70a8E+0x144>
   10dc8: ff ff ff ea  	b	#-4 <_ZN4core3str5count14do_count_chars17h7d881dc4ec4d70a8E+0x130>
   10dcc: 64 10 9d e5  	ldr	r1, [sp, #100]
   10dd0: 60 00 9d e5  	ldr	r0, [sp, #96]
   10dd4: 3b 01 00 eb  	bl	#1260 <_ZN4core3str5count23char_count_general_case17he4b6dcb5826225bbE>
   10dd8: 58 00 8d e5  	str	r0, [sp, #88]
   10ddc: 12 00 00 ea  	b	#72 <_ZN4core3str5count14do_count_chars17h7d881dc4ec4d70a8E+0x190>
   10de0: 7c 00 9d e5  	ldr	r0, [sp, #124]
   10de4: 80 10 9d e5  	ldr	r1, [sp, #128]
   10de8: 60 11 8d e5  	str	r1, [sp, #352]
   10dec: 64 01 8d e5  	str	r0, [sp, #356]
   10df0: 68 11 8d e5  	str	r1, [sp, #360]
   10df4: 6c 01 8d e5  	str	r0, [sp, #364]
   10df8: 68 01 9d e5  	ldr	r0, [sp, #360]
   10dfc: 50 00 8d e5  	str	r0, [sp, #80]
   10e00: 6c 01 9d e5  	ldr	r0, [sp, #364]
   10e04: 54 00 8d e5  	str	r0, [sp, #84]
   10e08: ff ff ff ea  	b	#-4 <_ZN4core3str5count14do_count_chars17h7d881dc4ec4d70a8E+0x170>
   10e0c: 54 10 9d e5  	ldr	r1, [sp, #84]
   10e10: 50 00 9d e5  	ldr	r0, [sp, #80]
   10e14: 2b 01 00 eb  	bl	#1196 <_ZN4core3str5count23char_count_general_case17he4b6dcb5826225bbE>
   10e18: 8c 00 8d e5  	str	r0, [sp, #140]
   10e1c: ff ff ff ea  	b	#-4 <_ZN4core3str5count14do_count_chars17h7d881dc4ec4d70a8E+0x184>
   10e20: 8c 00 9d e5  	ldr	r0, [sp, #140]
   10e24: 06 dd 8d e2  	add	sp, sp, #384
   10e28: 00 88 bd e8  	pop	{r11, pc}
   10e2c: 74 10 9d e5  	ldr	r1, [sp, #116]
   10e30: 70 00 9d e5  	ldr	r0, [sp, #112]
   10e34: 23 01 00 eb  	bl	#1164 <_ZN4core3str5count23char_count_general_case17he4b6dcb5826225bbE>
   10e38: 4c 00 8d e5  	str	r0, [sp, #76]
   10e3c: ff ff ff ea  	b	#-4 <_ZN4core3str5count14do_count_chars17h7d881dc4ec4d70a8E+0x1a4>
   10e40: 58 10 9d e5  	ldr	r1, [sp, #88]
   10e44: 4c 00 9d e5  	ldr	r0, [sp, #76]
   10e48: 00 00 81 e0  	add	r0, r1, r0
   10e4c: 48 00 8d e5  	str	r0, [sp, #72]
   10e50: 01 00 50 e1  	cmp	r0, r1
   10e54: 08 00 00 3a  	blo	#32 <_ZN4core3str5count14do_count_chars17h7d881dc4ec4d70a8E+0x1e0>
   10e58: ff ff ff ea  	b	#-4 <_ZN4core3str5count14do_count_chars17h7d881dc4ec4d70a8E+0x1c0>
   10e5c: 6c 20 9d e5  	ldr	r2, [sp, #108]
   10e60: 68 10 9d e5  	ldr	r1, [sp, #104]
   10e64: 48 00 9d e5  	ldr	r0, [sp, #72]
   10e68: ac 00 8d e5  	str	r0, [sp, #172]
   10e6c: bc 00 8d e2  	add	r0, sp, #188
   10e70: c0 30 a0 e3  	mov	r3, #192
   10e74: 33 fc ff eb  	bl	#-3892 <_ZN4core5slice29_$LT$impl$u20$$u5b$T$u5d$$GT$6chunks17h27d4d96d35cab058E>
   10e78: 04 00 00 ea  	b	#16 <_ZN4core3str5count14do_count_chars17h7d881dc4ec4d70a8E+0x1f4>
   10e7c: 48 03 9f e5  	ldr	r0, [pc, #840]
   10e80: 58 23 9f e5  	ldr	r2, [pc, #856]
   10e84: 1c 10 a0 e3  	mov	r1, #28
   10e88: 09 ec ff eb  	bl	#-20444 <_ZN4core9panicking5panic17h70f755644c6683e5E>
   10e8c: fe de ff e7  	trap
   10e90: b0 00 8d e2  	add	r0, sp, #176
   10e94: bc 10 8d e2  	add	r1, sp, #188
   10e98: 95 e9 ff eb  	bl	#-22956 <_ZN63_$LT$I$u20$as$u20$core..iter..traits..collect..IntoIterator$GT$9into_iter17h50345055115cfa37E>
   10e9c: ff ff ff ea  	b	#-4 <_ZN4core3str5count14do_count_chars17h7d881dc4ec4d70a8E+0x204>
   10ea0: b0 00 9d e5  	ldr	r0, [sp, #176]
   10ea4: b4 10 9d e5  	ldr	r1, [sp, #180]
   10ea8: b8 20 9d e5  	ldr	r2, [sp, #184]
   10eac: d0 20 8d e5  	str	r2, [sp, #208]
   10eb0: cc 10 8d e5  	str	r1, [sp, #204]
   10eb4: c8 00 8d e5  	str	r0, [sp, #200]
   10eb8: ff ff ff ea  	b	#-4 <_ZN4core3str5count14do_count_chars17h7d881dc4ec4d70a8E+0x220>
   10ebc: c8 00 8d e2  	add	r0, sp, #200
   10ec0: fd f9 ff eb  	bl	#-6156 <_ZN93_$LT$core..slice..iter..Chunks$LT$T$GT$$u20$as$u20$core..iter..traits..iterator..Iterator$GT$4next17h8a48ec6c676315b6E>
   10ec4: d8 10 8d e5  	str	r1, [sp, #216]
   10ec8: d4 00 8d e5  	str	r0, [sp, #212]
   10ecc: ff ff ff ea  	b	#-4 <_ZN4core3str5count14do_count_chars17h7d881dc4ec4d70a8E+0x234>
   10ed0: d4 00 9d e5  	ldr	r0, [sp, #212]
   10ed4: 00 00 50 e3  	cmp	r0, #0
   10ed8: 00 10 a0 e1  	mov	r1, r0
   10edc: 01 10 a0 13  	movne	r1, #1
   10ee0: 00 00 50 e3  	cmp	r0, #0
   10ee4: 02 00 00 0a  	beq	#8 <_ZN4core3str5count14do_count_chars17h7d881dc4ec4d70a8E+0x258>
   10ee8: ff ff ff ea  	b	#-4 <_ZN4core3str5count14do_count_chars17h7d881dc4ec4d70a8E+0x250>
   10eec: 03 00 00 ea  	b	#12 <_ZN4core3str5count14do_count_chars17h7d881dc4ec4d70a8E+0x264>
   10ef0: fe de ff e7  	trap
   10ef4: ac 00 9d e5  	ldr	r0, [sp, #172]
   10ef8: 8c 00 8d e5  	str	r0, [sp, #140]
   10efc: c7 ff ff ea  	b	#-228 <_ZN4core3str5count14do_count_chars17h7d881dc4ec4d70a8E+0x184>
   10f00: d4 10 9d e5  	ldr	r1, [sp, #212]
   10f04: d8 20 9d e5  	ldr	r2, [sp, #216]
   10f08: 3c 11 8d e5  	str	r1, [sp, #316]
   10f0c: 40 21 8d e5  	str	r2, [sp, #320]
   10f10: 00 00 a0 e3  	mov	r0, #0
   10f14: dc 00 8d e5  	str	r0, [sp, #220]
   10f18: e0 00 8d e2  	add	r0, sp, #224
   10f1c: a5 fc ff eb  	bl	#-3436 <_ZN4core5slice29_$LT$impl$u20$$u5b$T$u5d$$GT$9as_chunks17h950d980911bc47fbE>
   10f20: ff ff ff ea  	b	#-4 <_ZN4core3str5count14do_count_chars17h7d881dc4ec4d70a8E+0x288>
   10f24: e0 00 9d e5  	ldr	r0, [sp, #224]
   10f28: e4 10 9d e5  	ldr	r1, [sp, #228]
   10f2c: 44 01 8d e5  	str	r0, [sp, #324]
   10f30: 48 11 8d e5  	str	r1, [sp, #328]
   10f34: e8 30 9d e5  	ldr	r3, [sp, #232]
   10f38: 38 30 8d e5  	str	r3, [sp, #56]
   10f3c: ec 20 9d e5  	ldr	r2, [sp, #236]
   10f40: 3c 20 8d e5  	str	r2, [sp, #60]
   10f44: 4c 31 8d e5  	str	r3, [sp, #332]
   10f48: 50 21 8d e5  	str	r2, [sp, #336]
   10f4c: 41 f8 ff eb  	bl	#-7932 <_ZN4core5slice4iter87_$LT$impl$u20$core..iter..traits..collect..IntoIterator$u20$for$u20$$RF$$u5b$T$u5d$$GT$9into_iter17h3cc1521738f9d061E>
   10f50: 40 00 8d e5  	str	r0, [sp, #64]
   10f54: 44 10 8d e5  	str	r1, [sp, #68]
   10f58: ff ff ff ea  	b	#-4 <_ZN4core3str5count14do_count_chars17h7d881dc4ec4d70a8E+0x2c0>
   10f5c: 44 00 9d e5  	ldr	r0, [sp, #68]
   10f60: 40 10 9d e5  	ldr	r1, [sp, #64]
   10f64: f0 10 8d e5  	str	r1, [sp, #240]
   10f68: f4 00 8d e5  	str	r0, [sp, #244]
   10f6c: ff ff ff ea  	b	#-4 <_ZN4core3str5count14do_count_chars17h7d881dc4ec4d70a8E+0x2d4>
   10f70: f0 00 8d e2  	add	r0, sp, #240
   10f74: 1c 08 00 eb  	bl	#8304 <_ZN91_$LT$core..slice..iter..Iter$LT$T$GT$$u20$as$u20$core..iter..traits..iterator..Iterator$GT$4next17h385cdd3a3cf20cddE>
   10f78: f8 00 8d e5  	str	r0, [sp, #248]
   10f7c: ff ff ff ea  	b	#-4 <_ZN4core3str5count14do_count_chars17h7d881dc4ec4d70a8E+0x2e4>
   10f80: f8 00 9d e5  	ldr	r0, [sp, #248]
   10f84: 00 00 50 e3  	cmp	r0, #0
   10f88: 00 10 a0 e1  	mov	r1, r0
   10f8c: 01 10 a0 13  	movne	r1, #1
   10f90: 00 00 50 e3  	cmp	r0, #0
   10f94: 02 00 00 0a  	beq	#8 <_ZN4core3str5count14do_count_chars17h7d881dc4ec4d70a8E+0x308>
   10f98: ff ff ff ea  	b	#-4 <_ZN4core3str5count14do_count_chars17h7d881dc4ec4d70a8E+0x300>
   10f9c: 04 00 00 ea  	b	#16 <_ZN4core3str5count14do_count_chars17h7d881dc4ec4d70a8E+0x318>
   10fa0: fe de ff e7  	trap
   10fa4: dc 00 9d e5  	ldr	r0, [sp, #220]
   10fa8: a0 00 00 eb  	bl	#640 <_ZN4core3str5count18sum_bytes_in_usize17h6004dc9ac87b2593E>
   10fac: 34 00 8d e5  	str	r0, [sp, #52]
   10fb0: 2c 00 00 ea  	b	#176 <_ZN4core3str5count14do_count_chars17h7d881dc4ec4d70a8E+0x3cc>
   10fb4: f8 00 9d e5  	ldr	r0, [sp, #248]
   10fb8: 54 01 8d e5  	str	r0, [sp, #340]
   10fbc: 8e e7 ff eb  	bl	#-25032 <_ZN4core5array98_$LT$impl$u20$core..iter..traits..collect..IntoIterator$u20$for$u20$$RF$$u5b$T$u3b$$u20$N$u5d$$GT$9into_iter17h3c7ec5274e531605E>
   10fc0: 2c 00 8d e5  	str	r0, [sp, #44]
   10fc4: 30 10 8d e5  	str	r1, [sp, #48]
   10fc8: ff ff ff ea  	b	#-4 <_ZN4core3str5count14do_count_chars17h7d881dc4ec4d70a8E+0x330>
   10fcc: 30 00 9d e5  	ldr	r0, [sp, #48]
   10fd0: 2c 10 9d e5  	ldr	r1, [sp, #44]
   10fd4: fc 10 8d e5  	str	r1, [sp, #252]
   10fd8: 00 01 8d e5  	str	r0, [sp, #256]
   10fdc: ff ff ff ea  	b	#-4 <_ZN4core3str5count14do_count_chars17h7d881dc4ec4d70a8E+0x344>
   10fe0: fc 00 8d e2  	add	r0, sp, #252
   10fe4: 46 08 00 eb  	bl	#8472 <_ZN91_$LT$core..slice..iter..Iter$LT$T$GT$$u20$as$u20$core..iter..traits..iterator..Iterator$GT$4next17h42b8e2d1e4f97919E>
   10fe8: 04 01 8d e5  	str	r0, [sp, #260]
   10fec: ff ff ff ea  	b	#-4 <_ZN4core3str5count14do_count_chars17h7d881dc4ec4d70a8E+0x354>
   10ff0: 04 01 9d e5  	ldr	r0, [sp, #260]
   10ff4: 00 00 50 e3  	cmp	r0, #0
   10ff8: 00 10 a0 e1  	mov	r1, r0
   10ffc: 01 10 a0 13  	movne	r1, #1
   11000: 00 00 50 e3  	cmp	r0, #0
   11004: d9 ff ff 0a  	beq	#-156 <_ZN4core3str5count14do_count_chars17h7d881dc4ec4d70a8E+0x2d4>
   11008: ff ff ff ea  	b	#-4 <_ZN4core3str5count14do_count_chars17h7d881dc4ec4d70a8E+0x370>
   1100c: 00 00 00 ea  	b	#0 <_ZN4core3str5count14do_count_chars17h7d881dc4ec4d70a8E+0x378>
   11010: fe de ff e7  	trap
   11014: 04 01 9d e5  	ldr	r0, [sp, #260]
   11018: 00 00 90 e5  	ldr	r0, [r0]
   1101c: 58 01 8d e5  	str	r0, [sp, #344]
   11020: 6f 00 00 eb  	bl	#444 <_ZN4core3str5count30contains_non_continuation_byte17h414c6b05581547daE>
   11024: 28 00 8d e5  	str	r0, [sp, #40]
   11028: ff ff ff ea  	b	#-4 <_ZN4core3str5count14do_count_chars17h7d881dc4ec4d70a8E+0x390>
   1102c: 28 00 9d e5  	ldr	r0, [sp, #40]
   11030: dc 10 9d e5  	ldr	r1, [sp, #220]
   11034: 00 00 81 e0  	add	r0, r1, r0
   11038: 24 00 8d e5  	str	r0, [sp, #36]
   1103c: 01 00 50 e1  	cmp	r0, r1
   11040: 03 00 00 3a  	blo	#12 <_ZN4core3str5count14do_count_chars17h7d881dc4ec4d70a8E+0x3b8>
   11044: ff ff ff ea  	b	#-4 <_ZN4core3str5count14do_count_chars17h7d881dc4ec4d70a8E+0x3ac>
   11048: 24 00 9d e5  	ldr	r0, [sp, #36]
   1104c: dc 00 8d e5  	str	r0, [sp, #220]
   11050: e2 ff ff ea  	b	#-120 <_ZN4core3str5count14do_count_chars17h7d881dc4ec4d70a8E+0x344>
   11054: 70 01 9f e5  	ldr	r0, [pc, #368]
   11058: 70 21 9f e5  	ldr	r2, [pc, #368]
   1105c: 1c 10 a0 e3  	mov	r1, #28
   11060: 93 eb ff eb  	bl	#-20916 <_ZN4core9panicking5panic17h70f755644c6683e5E>
   11064: fe de ff e7  	trap
   11068: 34 00 9d e5  	ldr	r0, [sp, #52]
   1106c: ac 10 9d e5  	ldr	r1, [sp, #172]
   11070: 00 00 81 e0  	add	r0, r1, r0
   11074: 20 00 8d e5  	str	r0, [sp, #32]
   11078: 01 00 50 e1  	cmp	r0, r1
   1107c: 07 00 00 3a  	blo	#28 <_ZN4core3str5count14do_count_chars17h7d881dc4ec4d70a8E+0x404>
   11080: ff ff ff ea  	b	#-4 <_ZN4core3str5count14do_count_chars17h7d881dc4ec4d70a8E+0x3e8>
   11084: 3c 10 9d e5  	ldr	r1, [sp, #60]
   11088: 38 00 9d e5  	ldr	r0, [sp, #56]
   1108c: 20 20 9d e5  	ldr	r2, [sp, #32]
   11090: ac 20 8d e5  	str	r2, [sp, #172]
   11094: b9 fa ff eb  	bl	#-5404 <_ZN4core5slice29_$LT$impl$u20$$u5b$T$u5d$$GT$8is_empty17h7a896da0465f87a7E>
   11098: 1c 00 8d e5  	str	r0, [sp, #28]
   1109c: 04 00 00 ea  	b	#16 <_ZN4core3str5count14do_count_chars17h7d881dc4ec4d70a8E+0x418>
   110a0: 24 01 9f e5  	ldr	r0, [pc, #292]
   110a4: 30 21 9f e5  	ldr	r2, [pc, #304]
   110a8: 1c 10 a0 e3  	mov	r1, #28
   110ac: 80 eb ff eb  	bl	#-20992 <_ZN4core9panicking5panic17h70f755644c6683e5E>
   110b0: fe de ff e7  	trap
   110b4: 1c 00 9d e5  	ldr	r0, [sp, #28]
   110b8: 01 00 10 e3  	tst	r0, #1
   110bc: 7e ff ff 1a  	bne	#-520 <_ZN4core3str5count14do_count_chars17h7d881dc4ec4d70a8E+0x220>
   110c0: ff ff ff ea  	b	#-4 <_ZN4core3str5count14do_count_chars17h7d881dc4ec4d70a8E+0x428>
   110c4: 3c 10 9d e5  	ldr	r1, [sp, #60]
   110c8: 38 00 9d e5  	ldr	r0, [sp, #56]
   110cc: 00 20 a0 e3  	mov	r2, #0
   110d0: 08 21 8d e5  	str	r2, [sp, #264]
   110d4: eb f7 ff eb  	bl	#-8276 <_ZN4core5slice4iter87_$LT$impl$u20$core..iter..traits..collect..IntoIterator$u20$for$u20$$RF$$u5b$T$u5d$$GT$9into_iter17hbb5dcc1a8a1ccab4E>
   110d8: 14 00 8d e5  	str	r0, [sp, #20]
   110dc: 18 10 8d e5  	str	r1, [sp, #24]
   110e0: ff ff ff ea  	b	#-4 <_ZN4core3str5count14do_count_chars17h7d881dc4ec4d70a8E+0x448>
   110e4: 18 00 9d e5  	ldr	r0, [sp, #24]
   110e8: 14 10 9d e5  	ldr	r1, [sp, #20]
   110ec: 0c 11 8d e5  	str	r1, [sp, #268]
   110f0: 10 01 8d e5  	str	r0, [sp, #272]
   110f4: ff ff ff ea  	b	#-4 <_ZN4core3str5count14do_count_chars17h7d881dc4ec4d70a8E+0x45c>
   110f8: 43 0f 8d e2  	add	r0, sp, #268
   110fc: 00 08 00 eb  	bl	#8192 <_ZN91_$LT$core..slice..iter..Iter$LT$T$GT$$u20$as$u20$core..iter..traits..iterator..Iterator$GT$4next17h42b8e2d1e4f97919E>
   11100: 14 01 8d e5  	str	r0, [sp, #276]
   11104: ff ff ff ea  	b	#-4 <_ZN4core3str5count14do_count_chars17h7d881dc4ec4d70a8E+0x46c>
   11108: 14 01 9d e5  	ldr	r0, [sp, #276]
   1110c: 00 00 50 e3  	cmp	r0, #0
   11110: 00 10 a0 e1  	mov	r1, r0
   11114: 01 10 a0 13  	movne	r1, #1
   11118: 00 00 50 e3  	cmp	r0, #0
   1111c: 02 00 00 0a  	beq	#8 <_ZN4core3str5count14do_count_chars17h7d881dc4ec4d70a8E+0x490>
   11120: ff ff ff ea  	b	#-4 <_ZN4core3str5count14do_count_chars17h7d881dc4ec4d70a8E+0x488>
   11124: 04 00 00 ea  	b	#16 <_ZN4core3str5count14do_count_chars17h7d881dc4ec4d70a8E+0x4a0>
   11128: fe de ff e7  	trap
   1112c: 08 01 9d e5  	ldr	r0, [sp, #264]
   11130: 3e 00 00 eb  	bl	#248 <_ZN4core3str5count18sum_bytes_in_usize17h6004dc9ac87b2593E>
   11134: 10 00 8d e5  	str	r0, [sp, #16]
   11138: 14 00 00 ea  	b	#80 <_ZN4core3str5count14do_count_chars17h7d881dc4ec4d70a8E+0x4f4>
   1113c: 14 01 9d e5  	ldr	r0, [sp, #276]
   11140: 00 00 90 e5  	ldr	r0, [r0]
   11144: 5c 01 8d e5  	str	r0, [sp, #348]
   11148: 25 00 00 eb  	bl	#148 <_ZN4core3str5count30contains_non_continuation_byte17h414c6b05581547daE>
   1114c: 0c 00 8d e5  	str	r0, [sp, #12]
   11150: ff ff ff ea  	b	#-4 <_ZN4core3str5count14do_count_chars17h7d881dc4ec4d70a8E+0x4b8>
   11154: 0c 00 9d e5  	ldr	r0, [sp, #12]
   11158: 08 11 9d e5  	ldr	r1, [sp, #264]
   1115c: 00 00 81 e0  	add	r0, r1, r0
   11160: 08 00 8d e5  	str	r0, [sp, #8]
   11164: 01 00 50 e1  	cmp	r0, r1
   11168: 03 00 00 3a  	blo	#12 <_ZN4core3str5count14do_count_chars17h7d881dc4ec4d70a8E+0x4e0>
   1116c: ff ff ff ea  	b	#-4 <_ZN4core3str5count14do_count_chars17h7d881dc4ec4d70a8E+0x4d4>
   11170: 08 00 9d e5  	ldr	r0, [sp, #8]
   11174: 08 01 8d e5  	str	r0, [sp, #264]
   11178: de ff ff ea  	b	#-136 <_ZN4core3str5count14do_count_chars17h7d881dc4ec4d70a8E+0x45c>
   1117c: 48 00 9f e5  	ldr	r0, [pc, #72]
   11180: 4c 20 9f e5  	ldr	r2, [pc, #76]
   11184: 1c 10 a0 e3  	mov	r1, #28
   11188: 49 eb ff eb  	bl	#-21212 <_ZN4core9panicking5panic17h70f755644c6683e5E>
   1118c: fe de ff e7  	trap
   11190: 10 00 9d e5  	ldr	r0, [sp, #16]
   11194: ac 10 9d e5  	ldr	r1, [sp, #172]
   11198: 00 00 81 e0  	add	r0, r1, r0
   1119c: 04 00 8d e5  	str	r0, [sp, #4]
   111a0: 01 00 50 e1  	cmp	r0, r1
   111a4: 03 00 00 3a  	blo	#12 <_ZN4core3str5count14do_count_chars17h7d881dc4ec4d70a8E+0x51c>
   111a8: ff ff ff ea  	b	#-4 <_ZN4core3str5count14do_count_chars17h7d881dc4ec4d70a8E+0x510>
   111ac: 04 00 9d e5  	ldr	r0, [sp, #4]
   111b0: ac 00 8d e5  	str	r0, [sp, #172]
   111b4: 4e ff ff ea  	b	#-712 <_ZN4core3str5count14do_count_chars17h7d881dc4ec4d70a8E+0x258>
   111b8: 0c 00 9f e5  	ldr	r0, [pc, #12]
   111bc: 14 20 9f e5  	ldr	r2, [pc, #20]
   111c0: 1c 10 a0 e3  	mov	r1, #28
   111c4: 3a eb ff eb  	bl	#-21272 <_ZN4core9panicking5panic17h70f755644c6683e5E>
   111c8: fe de ff e7  	trap

000111cc <$d.1797>:
   111cc:	00 52 01 00	.word	0x00015200
   111d0:	28 63 01 00	.word	0x00016328
   111d4:	48 63 01 00	.word	0x00016348
   111d8:	58 63 01 00	.word	0x00016358
   111dc:	38 63 01 00	.word	0x00016338
   111e0:	18 63 01 00	.word	0x00016318

000111e4 <_ZN4core3str5count30contains_non_continuation_byte17h414c6b05581547daE>:
   111e4: 10 d0 4d e2  	sub	sp, sp, #16
   111e8: 04 00 8d e5  	str	r0, [sp, #4]
   111ec: 0c 00 8d e5  	str	r0, [sp, #12]
   111f0: 00 00 e0 e1  	mvn	r0, r0
   111f4: a0 03 a0 e1  	lsr	r0, r0, #7
   111f8: 08 00 8d e5  	str	r0, [sp, #8]
   111fc: ff ff ff ea  	b	#-4 <_ZN4core3str5count30contains_non_continuation_byte17h414c6b05581547daE+0x1c>
   11200: 04 00 9d e5  	ldr	r0, [sp, #4]
   11204: 20 03 a0 e1  	lsr	r0, r0, #6
   11208: 00 00 8d e5  	str	r0, [sp]
   1120c: ff ff ff ea  	b	#-4 <_ZN4core3str5count30contains_non_continuation_byte17h414c6b05581547daE+0x2c>
   11210: 08 00 9d e5  	ldr	r0, [sp, #8]
   11214: 00 10 9d e5  	ldr	r1, [sp]
   11218: 01 00 80 e1  	orr	r0, r0, r1
   1121c: 08 10 9f e5  	ldr	r1, [pc, #8]
   11220: 01 00 00 e0  	and	r0, r0, r1
   11224: 10 d0 8d e2  	add	sp, sp, #16
   11228: 1e ff 2f e1  	bx	lr

0001122c <$d.1799>:
   1122c:	01 01 01 01	.word	0x01010101

00011230 <_ZN4core3str5count18sum_bytes_in_usize17h6004dc9ac87b2593E>:
   11230: 28 d0 4d e2  	sub	sp, sp, #40
   11234: 18 00 8d e5  	str	r0, [sp, #24]
   11238: 70 10 cf e6  	uxtb16	r1, r0
   1123c: 10 10 8d e5  	str	r1, [sp, #16]
   11240: 20 04 a0 e1  	lsr	r0, r0, #8
   11244: 14 00 8d e5  	str	r0, [sp, #20]
   11248: ff ff ff ea  	b	#-4 <_ZN4core3str5count18sum_bytes_in_usize17h6004dc9ac87b2593E+0x1c>
   1124c: 10 10 9d e5  	ldr	r1, [sp, #16]
   11250: 14 00 9d e5  	ldr	r0, [sp, #20]
   11254: 70 00 cf e6  	uxtb16	r0, r0
   11258: 00 00 81 e0  	add	r0, r1, r0
   1125c: 0c 00 8d e5  	str	r0, [sp, #12]
   11260: 01 00 50 e1  	cmp	r0, r1
   11264: 09 00 00 3a  	blo	#36 <_ZN4core3str5count18sum_bytes_in_usize17h6004dc9ac87b2593E+0x60>
   11268: ff ff ff ea  	b	#-4 <_ZN4core3str5count18sum_bytes_in_usize17h6004dc9ac87b2593E+0x3c>
   1126c: 0c 00 9d e5  	ldr	r0, [sp, #12]
   11270: 1c 00 8d e5  	str	r0, [sp, #28]
   11274: 20 00 8d e5  	str	r0, [sp, #32]
   11278: 01 10 a0 e3  	mov	r1, #1
   1127c: 01 18 81 e3  	orr	r1, r1, #65536
   11280: 24 10 8d e5  	str	r1, [sp, #36]
   11284: 00 08 80 e0  	add	r0, r0, r0, lsl #16
   11288: 08 00 8d e5  	str	r0, [sp, #8]
   1128c: 04 00 00 ea  	b	#16 <_ZN4core3str5count18sum_bytes_in_usize17h6004dc9ac87b2593E+0x74>
   11290: 28 00 9f e5  	ldr	r0, [pc, #40]
   11294: 28 20 9f e5  	ldr	r2, [pc, #40]
   11298: 1c 10 a0 e3  	mov	r1, #28
   1129c: 04 eb ff eb  	bl	#-21488 <_ZN4core9panicking5panic17h70f755644c6683e5E>
   112a0: fe de ff e7  	trap
   112a4: 08 00 9d e5  	ldr	r0, [sp, #8]
   112a8: 20 08 a0 e1  	lsr	r0, r0, #16
   112ac: 04 00 8d e5  	str	r0, [sp, #4]
   112b0: ff ff ff ea  	b	#-4 <_ZN4core3str5count18sum_bytes_in_usize17h6004dc9ac87b2593E+0x84>
   112b4: 04 00 9d e5  	ldr	r0, [sp, #4]
   112b8: 28 d0 8d e2  	add	sp, sp, #40
   112bc: 1e ff 2f e1  	bx	lr

000112c0 <$d.1801>:
   112c0:	00 52 01 00	.word	0x00015200
   112c4:	68 63 01 00	.word	0x00016368

000112c8 <_ZN4core3str5count23char_count_general_case17he4b6dcb5826225bbE>:
   112c8: 00 48 2d e9  	push	{r11, lr}
   112cc: 20 d0 4d e2  	sub	sp, sp, #32
   112d0: 18 00 8d e5  	str	r0, [sp, #24]
   112d4: 1c 10 8d e5  	str	r1, [sp, #28]
   112d8: d2 fa ff eb  	bl	#-5304 <_ZN4core5slice29_$LT$impl$u20$$u5b$T$u5d$$GT$4iter17h0c95fae1e4e64d73E>
   112dc: 10 00 8d e5  	str	r0, [sp, #16]
   112e0: 14 10 8d e5  	str	r1, [sp, #20]
   112e4: ff ff ff ea  	b	#-4 <_ZN4core3str5count23char_count_general_case17he4b6dcb5826225bbE+0x20>
   112e8: 14 10 9d e5  	ldr	r1, [sp, #20]
   112ec: 10 00 9d e5  	ldr	r0, [sp, #16]
   112f0: 20 e9 ff eb  	bl	#-23424 <_ZN4core4iter6traits8iterator8Iterator6filter17hb66cd4fc014ab058E>
   112f4: 08 00 8d e5  	str	r0, [sp, #8]
   112f8: 0c 10 8d e5  	str	r1, [sp, #12]
   112fc: ff ff ff ea  	b	#-4 <_ZN4core3str5count23char_count_general_case17he4b6dcb5826225bbE+0x38>
   11300: 0c 10 9d e5  	ldr	r1, [sp, #12]
   11304: 08 00 9d e5  	ldr	r0, [sp, #8]
   11308: d1 e7 ff eb  	bl	#-24764 <_ZN108_$LT$core..iter..adapters..filter..Filter$LT$I$C$P$GT$$u20$as$u20$core..iter..traits..iterator..Iterator$GT$5count17h4d419545bff67014E>
   1130c: 04 00 8d e5  	str	r0, [sp, #4]
   11310: ff ff ff ea  	b	#-4 <_ZN4core3str5count23char_count_general_case17he4b6dcb5826225bbE+0x4c>
   11314: 04 00 9d e5  	ldr	r0, [sp, #4]
   11318: 20 d0 8d e2  	add	sp, sp, #32
   1131c: 00 88 bd e8  	pop	{r11, pc}

00011320 <_ZN4core3str5count23char_count_general_case28_$u7b$$u7b$closure$u7d$$u7d$17h3bfaf0e4922b22e5E>:
   11320: 00 48 2d e9  	push	{r11, lr}
   11324: 10 d0 4d e2  	sub	sp, sp, #16
   11328: 04 00 8d e5  	str	r0, [sp, #4]
   1132c: 08 10 8d e5  	str	r1, [sp, #8]
   11330: 00 00 91 e5  	ldr	r0, [r1]
   11334: 00 00 d0 e5  	ldrb	r0, [r0]
   11338: 0f 00 cd e5  	strb	r0, [sp, #15]
   1133c: 2c 01 00 eb  	bl	#1200 <_ZN4core3str11validations17utf8_is_cont_byte17hf4225f2dee7ad739E>
   11340: 00 00 8d e5  	str	r0, [sp]
   11344: ff ff ff ea  	b	#-4 <_ZN4core3str5count23char_count_general_case28_$u7b$$u7b$closure$u7d$$u7d$17h3bfaf0e4922b22e5E+0x28>
   11348: 00 10 9d e5  	ldr	r1, [sp]
   1134c: 01 00 a0 e3  	mov	r0, #1
   11350: 01 00 c0 e1  	bic	r0, r0, r1
   11354: 10 d0 8d e2  	add	sp, sp, #16
   11358: 00 88 bd e8  	pop	{r11, pc}

0001135c <_ZN81_$LT$core..str..iter..Chars$u20$as$u20$core..iter..traits..iterator..Iterator$GT$4next17h4ce585fe76b34787E>:
   1135c: 00 48 2d e9  	push	{r11, lr}
   11360: 10 d0 4d e2  	sub	sp, sp, #16
   11364: 0c 00 8d e5  	str	r0, [sp, #12]
   11368: 29 01 00 eb  	bl	#1188 <_ZN4core3str11validations15next_code_point17hca9f819efee38a31E>
   1136c: 04 00 8d e5  	str	r0, [sp, #4]
   11370: 08 10 8d e5  	str	r1, [sp, #8]
   11374: ff ff ff ea  	b	#-4 <_ZN81_$LT$core..str..iter..Chars$u20$as$u20$core..iter..traits..iterator..Iterator$GT$4next17h4ce585fe76b34787E+0x1c>
   11378: 08 10 9d e5  	ldr	r1, [sp, #8]
   1137c: 04 00 9d e5  	ldr	r0, [sp, #4]
   11380: ef e9 ff eb  	bl	#-22596 <_ZN4core6option15Option$LT$T$GT$3map17h23edb8605e04aca5E>
   11384: 00 00 8d e5  	str	r0, [sp]
   11388: ff ff ff ea  	b	#-4 <_ZN81_$LT$core..str..iter..Chars$u20$as$u20$core..iter..traits..iterator..Iterator$GT$4next17h4ce585fe76b34787E+0x30>
   1138c: 00 00 9d e5  	ldr	r0, [sp]
   11390: 10 d0 8d e2  	add	sp, sp, #16
   11394: 00 88 bd e8  	pop	{r11, pc}

00011398 <_ZN81_$LT$core..str..iter..Chars$u20$as$u20$core..iter..traits..iterator..Iterator$GT$4next28_$u7b$$u7b$closure$u7d$$u7d$17hd5e273e066f80caaE>:
   11398: 00 48 2d e9  	push	{r11, lr}
   1139c: 10 d0 4d e2  	sub	sp, sp, #16
   113a0: 0c 00 8d e5  	str	r0, [sp, #12]
   113a4: ca e6 ff eb  	bl	#-25816 <_ZN4core4char7convert18from_u32_unchecked17ha5af22e9e29cbbabE>
   113a8: 04 00 8d e5  	str	r0, [sp, #4]
   113ac: ff ff ff ea  	b	#-4 <_ZN81_$LT$core..str..iter..Chars$u20$as$u20$core..iter..traits..iterator..Iterator$GT$4next28_$u7b$$u7b$closure$u7d$$u7d$17hd5e273e066f80caaE+0x18>
   113b0: 04 00 9d e5  	ldr	r0, [sp, #4]
   113b4: 10 d0 8d e2  	add	sp, sp, #16
   113b8: 00 88 bd e8  	pop	{r11, pc}

000113bc <_ZN81_$LT$core..str..iter..Chars$u20$as$u20$core..iter..traits..iterator..Iterator$GT$5count17h42b30a58c777afecE>:
   113bc: 00 48 2d e9  	push	{r11, lr}
   113c0: 18 d0 4d e2  	sub	sp, sp, #24
   113c4: 10 00 8d e5  	str	r0, [sp, #16]
   113c8: 14 10 8d e5  	str	r1, [sp, #20]
   113cc: 10 00 8d e2  	add	r0, sp, #16
   113d0: 0a 00 00 eb  	bl	#40 <_ZN4core3str4iter5Chars6as_str17hbf2654c7ec81d8fcE>
   113d4: 08 00 8d e5  	str	r0, [sp, #8]
   113d8: 0c 10 8d e5  	str	r1, [sp, #12]
   113dc: ff ff ff ea  	b	#-4 <_ZN81_$LT$core..str..iter..Chars$u20$as$u20$core..iter..traits..iterator..Iterator$GT$5count17h42b30a58c777afecE+0x24>
   113e0: 0c 10 9d e5  	ldr	r1, [sp, #12]
   113e4: 08 00 9d e5  	ldr	r0, [sp, #8]
   113e8: 06 fe ff eb  	bl	#-2024 <_ZN4core3str5count11count_chars17hfe9d88bbf5353924E>
   113ec: 04 00 8d e5  	str	r0, [sp, #4]
   113f0: ff ff ff ea  	b	#-4 <_ZN81_$LT$core..str..iter..Chars$u20$as$u20$core..iter..traits..iterator..Iterator$GT$5count17h42b30a58c777afecE+0x38>
   113f4: 04 00 9d e5  	ldr	r0, [sp, #4]
   113f8: 18 d0 8d e2  	add	sp, sp, #24
   113fc: 00 88 bd e8  	pop	{r11, pc}

00011400 <_ZN4core3str4iter5Chars6as_str17hbf2654c7ec81d8fcE>:
   11400: 00 48 2d e9  	push	{r11, lr}
   11404: 18 d0 4d e2  	sub	sp, sp, #24
   11408: 14 00 8d e5  	str	r0, [sp, #20]
   1140c: 41 f8 ff eb  	bl	#-7932 <_ZN4core5slice4iter13Iter$LT$T$GT$8as_slice17h327dee1e392d377aE>
   11410: 0c 00 8d e5  	str	r0, [sp, #12]
   11414: 10 10 8d e5  	str	r1, [sp, #16]
   11418: ff ff ff ea  	b	#-4 <_ZN4core3str4iter5Chars6as_str17hbf2654c7ec81d8fcE+0x1c>
   1141c: 10 10 9d e5  	ldr	r1, [sp, #16]
   11420: 0c 00 9d e5  	ldr	r0, [sp, #12]
   11424: e9 fd ff eb  	bl	#-2140 <_ZN4core3str8converts19from_utf8_unchecked17h52dbaed8b9b07d57E>
   11428: 04 00 8d e5  	str	r0, [sp, #4]
   1142c: 08 10 8d e5  	str	r1, [sp, #8]
   11430: ff ff ff ea  	b	#-4 <_ZN4core3str4iter5Chars6as_str17hbf2654c7ec81d8fcE+0x34>
   11434: 08 10 9d e5  	ldr	r1, [sp, #8]
   11438: 04 00 9d e5  	ldr	r0, [sp, #4]
   1143c: 18 d0 8d e2  	add	sp, sp, #24
   11440: 00 88 bd e8  	pop	{r11, pc}

00011444 <_ZN87_$LT$core..str..iter..CharIndices$u20$as$u20$core..iter..traits..iterator..Iterator$GT$4next17hd773219ae4fca8caE>:
   11444: 00 48 2d e9  	push	{r11, lr}
   11448: 90 d0 4d e2  	sub	sp, sp, #144
   1144c: 20 00 8d e5  	str	r0, [sp, #32]
   11450: 44 00 8d e5  	str	r0, [sp, #68]
   11454: 04 10 80 e2  	add	r1, r0, #4
   11458: 78 10 8d e5  	str	r1, [sp, #120]
   1145c: 04 00 90 e5  	ldr	r0, [r0, #4]
   11460: 24 00 8d e5  	str	r0, [sp, #36]
   11464: 7c 00 8d e5  	str	r0, [sp, #124]
   11468: 51 e2 ff eb  	bl	#-30396 <_ZN4core3ptr8non_null16NonNull$LT$T$GT$6as_ptr17h761e972d0d67cfa0E>
   1146c: 20 10 9d e5  	ldr	r1, [sp, #32]
   11470: 00 20 a0 e1  	mov	r2, r0
   11474: 24 00 9d e5  	ldr	r0, [sp, #36]
   11478: 8c 20 8d e5  	str	r2, [sp, #140]
   1147c: 01 20 a0 e3  	mov	r2, #1
   11480: 80 20 8d e5  	str	r2, [sp, #128]
   11484: 08 10 91 e5  	ldr	r1, [r1, #8]
   11488: 28 10 8d e5  	str	r1, [sp, #40]
   1148c: 48 e2 ff eb  	bl	#-30432 <_ZN4core3ptr8non_null16NonNull$LT$T$GT$6as_ptr17h761e972d0d67cfa0E>
   11490: 00 10 a0 e1  	mov	r1, r0
   11494: 28 00 9d e5  	ldr	r0, [sp, #40]
   11498: 01 00 40 e0  	sub	r0, r0, r1
   1149c: 84 00 8d e5  	str	r0, [sp, #132]
   114a0: 84 00 9d e5  	ldr	r0, [sp, #132]
   114a4: 88 00 8d e5  	str	r0, [sp, #136]
   114a8: 74 00 8d e5  	str	r0, [sp, #116]
   114ac: 74 00 9d e5  	ldr	r0, [sp, #116]
   114b0: 2c 00 8d e5  	str	r0, [sp, #44]
   114b4: 48 00 8d e5  	str	r0, [sp, #72]
   114b8: ff ff ff ea  	b	#-4 <_ZN87_$LT$core..str..iter..CharIndices$u20$as$u20$core..iter..traits..iterator..Iterator$GT$4next17hd773219ae4fca8caE+0x78>
   114bc: 20 00 9d e5  	ldr	r0, [sp, #32]
   114c0: 04 00 80 e2  	add	r0, r0, #4
   114c4: a4 ff ff eb  	bl	#-368 <_ZN81_$LT$core..str..iter..Chars$u20$as$u20$core..iter..traits..iterator..Iterator$GT$4next17h4ce585fe76b34787E>
   114c8: 38 00 8d e5  	str	r0, [sp, #56]
   114cc: ff ff ff ea  	b	#-4 <_ZN87_$LT$core..str..iter..CharIndices$u20$as$u20$core..iter..traits..iterator..Iterator$GT$4next17hd773219ae4fca8caE+0x8c>
   114d0: 38 00 9d e5  	ldr	r0, [sp, #56]
   114d4: 11 18 50 e2  	subs	r1, r0, #1114112
   114d8: 01 10 a0 13  	movne	r1, #1
   114dc: 11 08 50 e3  	cmp	r0, #1114112
   114e0: 02 00 00 0a  	beq	#8 <_ZN87_$LT$core..str..iter..CharIndices$u20$as$u20$core..iter..traits..iterator..Iterator$GT$4next17hd773219ae4fca8caE+0xac>
   114e4: ff ff ff ea  	b	#-4 <_ZN87_$LT$core..str..iter..CharIndices$u20$as$u20$core..iter..traits..iterator..Iterator$GT$4next17hd773219ae4fca8caE+0xa4>
   114e8: 06 00 00 ea  	b	#24 <_ZN87_$LT$core..str..iter..CharIndices$u20$as$u20$core..iter..traits..iterator..Iterator$GT$4next17hd773219ae4fca8caE+0xc4>
   114ec: fe de ff e7  	trap
   114f0: 00 00 a0 e3  	mov	r0, #0
   114f4: 34 00 8d e5  	str	r0, [sp, #52]
   114f8: 30 00 8d e5  	str	r0, [sp, #48]
   114fc: 11 08 a0 e3  	mov	r0, #1114112
   11500: 34 00 8d e5  	str	r0, [sp, #52]
   11504: 45 00 00 ea  	b	#276 <_ZN87_$LT$core..str..iter..CharIndices$u20$as$u20$core..iter..traits..iterator..Iterator$GT$4next17hd773219ae4fca8caE+0x1dc>
   11508: 20 00 9d e5  	ldr	r0, [sp, #32]
   1150c: 38 10 9d e5  	ldr	r1, [sp, #56]
   11510: 0c 10 8d e5  	str	r1, [sp, #12]
   11514: 4c 10 8d e5  	str	r1, [sp, #76]
   11518: 00 10 90 e5  	ldr	r1, [r0]
   1151c: 10 10 8d e5  	str	r1, [sp, #16]
   11520: 50 10 8d e5  	str	r1, [sp, #80]
   11524: 04 10 80 e2  	add	r1, r0, #4
   11528: 5c 10 8d e5  	str	r1, [sp, #92]
   1152c: 04 00 90 e5  	ldr	r0, [r0, #4]
   11530: 14 00 8d e5  	str	r0, [sp, #20]
   11534: 60 00 8d e5  	str	r0, [sp, #96]
   11538: 1d e2 ff eb  	bl	#-30604 <_ZN4core3ptr8non_null16NonNull$LT$T$GT$6as_ptr17h761e972d0d67cfa0E>
   1153c: 20 10 9d e5  	ldr	r1, [sp, #32]
   11540: 00 20 a0 e1  	mov	r2, r0
   11544: 14 00 9d e5  	ldr	r0, [sp, #20]
   11548: 70 20 8d e5  	str	r2, [sp, #112]
   1154c: 01 20 a0 e3  	mov	r2, #1
   11550: 64 20 8d e5  	str	r2, [sp, #100]
   11554: 08 10 91 e5  	ldr	r1, [r1, #8]
   11558: 18 10 8d e5  	str	r1, [sp, #24]
   1155c: 14 e2 ff eb  	bl	#-30640 <_ZN4core3ptr8non_null16NonNull$LT$T$GT$6as_ptr17h761e972d0d67cfa0E>
   11560: 00 10 a0 e1  	mov	r1, r0
   11564: 18 00 9d e5  	ldr	r0, [sp, #24]
   11568: 01 00 40 e0  	sub	r0, r0, r1
   1156c: 68 00 8d e5  	str	r0, [sp, #104]
   11570: 68 00 9d e5  	ldr	r0, [sp, #104]
   11574: 6c 00 8d e5  	str	r0, [sp, #108]
   11578: 58 00 8d e5  	str	r0, [sp, #88]
   1157c: 58 00 9d e5  	ldr	r0, [sp, #88]
   11580: 1c 00 8d e5  	str	r0, [sp, #28]
   11584: 54 00 8d e5  	str	r0, [sp, #84]
   11588: ff ff ff ea  	b	#-4 <_ZN87_$LT$core..str..iter..CharIndices$u20$as$u20$core..iter..traits..iterator..Iterator$GT$4next17hd773219ae4fca8caE+0x148>
   1158c: 2c 00 9d e5  	ldr	r0, [sp, #44]
   11590: 1c 10 9d e5  	ldr	r1, [sp, #28]
   11594: 01 20 40 e0  	sub	r2, r0, r1
   11598: 08 20 8d e5  	str	r2, [sp, #8]
   1159c: 01 00 50 e1  	cmp	r0, r1
   115a0: 08 00 00 3a  	blo	#32 <_ZN87_$LT$core..str..iter..CharIndices$u20$as$u20$core..iter..traits..iterator..Iterator$GT$4next17hd773219ae4fca8caE+0x184>
   115a4: ff ff ff ea  	b	#-4 <_ZN87_$LT$core..str..iter..CharIndices$u20$as$u20$core..iter..traits..iterator..Iterator$GT$4next17hd773219ae4fca8caE+0x164>
   115a8: 08 00 9d e5  	ldr	r0, [sp, #8]
   115ac: 20 10 9d e5  	ldr	r1, [sp, #32]
   115b0: 00 10 91 e5  	ldr	r1, [r1]
   115b4: 00 00 81 e0  	add	r0, r1, r0
   115b8: 04 00 8d e5  	str	r0, [sp, #4]
   115bc: 01 00 50 e1  	cmp	r0, r1
   115c0: 11 00 00 3a  	blo	#68 <_ZN87_$LT$core..str..iter..CharIndices$u20$as$u20$core..iter..traits..iterator..Iterator$GT$4next17hd773219ae4fca8caE+0x1c8>
   115c4: 04 00 00 ea  	b	#16 <_ZN87_$LT$core..str..iter..CharIndices$u20$as$u20$core..iter..traits..iterator..Iterator$GT$4next17hd773219ae4fca8caE+0x198>
   115c8: 68 00 9f e5  	ldr	r0, [pc, #104]
   115cc: 68 20 9f e5  	ldr	r2, [pc, #104]
   115d0: 21 10 a0 e3  	mov	r1, #33
   115d4: 36 ea ff eb  	bl	#-22312 <_ZN4core9panicking5panic17h70f755644c6683e5E>
   115d8: fe de ff e7  	trap
   115dc: 0c 00 9d e5  	ldr	r0, [sp, #12]
   115e0: 10 10 9d e5  	ldr	r1, [sp, #16]
   115e4: 04 20 9d e5  	ldr	r2, [sp, #4]
   115e8: 20 30 9d e5  	ldr	r3, [sp, #32]
   115ec: 00 20 83 e5  	str	r2, [r3]
   115f0: 3c 10 8d e5  	str	r1, [sp, #60]
   115f4: 40 00 8d e5  	str	r0, [sp, #64]
   115f8: 3c 10 9d e5  	ldr	r1, [sp, #60]
   115fc: 40 00 9d e5  	ldr	r0, [sp, #64]
   11600: 30 10 8d e5  	str	r1, [sp, #48]
   11604: 34 00 8d e5  	str	r0, [sp, #52]
   11608: 04 00 00 ea  	b	#16 <_ZN87_$LT$core..str..iter..CharIndices$u20$as$u20$core..iter..traits..iterator..Iterator$GT$4next17hd773219ae4fca8caE+0x1dc>
   1160c: 1c 00 9f e5  	ldr	r0, [pc, #28]
   11610: 1c 20 9f e5  	ldr	r2, [pc, #28]
   11614: 1c 10 a0 e3  	mov	r1, #28
   11618: 25 ea ff eb  	bl	#-22380 <_ZN4core9panicking5panic17h70f755644c6683e5E>
   1161c: fe de ff e7  	trap
   11620: 30 00 9d e5  	ldr	r0, [sp, #48]
   11624: 34 10 9d e5  	ldr	r1, [sp, #52]
   11628: 90 d0 8d e2  	add	sp, sp, #144
   1162c: 00 88 bd e8  	pop	{r11, pc}

00011630 <$d.1815>:
   11630:	00 52 01 00	.word	0x00015200
   11634:	00 64 01 00	.word	0x00016400
   11638:	d0 51 01 00	.word	0x000151d0
   1163c:	f0 63 01 00	.word	0x000163f0

00011640 <_ZN4core3str6traits110_$LT$impl$u20$core..slice..index..SliceIndex$LT$str$GT$$u20$for$u20$core..ops..range..RangeTo$LT$usize$GT$$GT$3get17h38633d9bf2554e71E>:
   11640: 00 48 2d e9  	push	{r11, lr}
   11644: 30 d0 4d e2  	sub	sp, sp, #48
   11648: 0c 20 8d e5  	str	r2, [sp, #12]
   1164c: 01 20 a0 e1  	mov	r2, r1
   11650: 0c 10 9d e5  	ldr	r1, [sp, #12]
   11654: 10 20 8d e5  	str	r2, [sp, #16]
   11658: 00 20 a0 e1  	mov	r2, r0
   1165c: 10 00 9d e5  	ldr	r0, [sp, #16]
   11660: 14 20 8d e5  	str	r2, [sp, #20]
   11664: 24 20 8d e5  	str	r2, [sp, #36]
   11668: 28 00 8d e5  	str	r0, [sp, #40]
   1166c: 2c 10 8d e5  	str	r1, [sp, #44]
   11670: 0d 01 00 eb  	bl	#1076 <_ZN4core3str21_$LT$impl$u20$str$GT$16is_char_boundary17ha97b2a4a3b95f885E>
   11674: 18 00 8d e5  	str	r0, [sp, #24]
   11678: ff ff ff ea  	b	#-4 <_ZN4core3str6traits110_$LT$impl$u20$core..slice..index..SliceIndex$LT$str$GT$$u20$for$u20$core..ops..range..RangeTo$LT$usize$GT$$GT$3get17h38633d9bf2554e71E+0x3c>
   1167c: 18 00 9d e5  	ldr	r0, [sp, #24]
   11680: 01 00 10 e3  	tst	r0, #1
   11684: 05 00 00 1a  	bne	#20 <_ZN4core3str6traits110_$LT$impl$u20$core..slice..index..SliceIndex$LT$str$GT$$u20$for$u20$core..ops..range..RangeTo$LT$usize$GT$$GT$3get17h38633d9bf2554e71E+0x60>
   11688: ff ff ff ea  	b	#-4 <_ZN4core3str6traits110_$LT$impl$u20$core..slice..index..SliceIndex$LT$str$GT$$u20$for$u20$core..ops..range..RangeTo$LT$usize$GT$$GT$3get17h38633d9bf2554e71E+0x4c>
   1168c: 00 00 a0 e3  	mov	r0, #0
   11690: 20 00 8d e5  	str	r0, [sp, #32]
   11694: 1c 00 8d e5  	str	r0, [sp, #28]
   11698: 1c 00 8d e5  	str	r0, [sp, #28]
   1169c: 0b 00 00 ea  	b	#44 <_ZN4core3str6traits110_$LT$impl$u20$core..slice..index..SliceIndex$LT$str$GT$$u20$for$u20$core..ops..range..RangeTo$LT$usize$GT$$GT$3get17h38633d9bf2554e71E+0x90>
   116a0: 0c 20 9d e5  	ldr	r2, [sp, #12]
   116a4: 10 10 9d e5  	ldr	r1, [sp, #16]
   116a8: 14 00 9d e5  	ldr	r0, [sp, #20]
   116ac: 0b 00 00 eb  	bl	#44 <_ZN4core3str6traits110_$LT$impl$u20$core..slice..index..SliceIndex$LT$str$GT$$u20$for$u20$core..ops..range..RangeTo$LT$usize$GT$$GT$13get_unchecked17h778130eddf5f472cE>
   116b0: 04 00 8d e5  	str	r0, [sp, #4]
   116b4: 08 10 8d e5  	str	r1, [sp, #8]
   116b8: ff ff ff ea  	b	#-4 <_ZN4core3str6traits110_$LT$impl$u20$core..slice..index..SliceIndex$LT$str$GT$$u20$for$u20$core..ops..range..RangeTo$LT$usize$GT$$GT$3get17h38633d9bf2554e71E+0x7c>
   116bc: 08 00 9d e5  	ldr	r0, [sp, #8]
   116c0: 04 10 9d e5  	ldr	r1, [sp, #4]
   116c4: 1c 10 8d e5  	str	r1, [sp, #28]
   116c8: 20 00 8d e5  	str	r0, [sp, #32]
   116cc: ff ff ff ea  	b	#-4 <_ZN4core3str6traits110_$LT$impl$u20$core..slice..index..SliceIndex$LT$str$GT$$u20$for$u20$core..ops..range..RangeTo$LT$usize$GT$$GT$3get17h38633d9bf2554e71E+0x90>
   116d0: 1c 00 9d e5  	ldr	r0, [sp, #28]
   116d4: 20 10 9d e5  	ldr	r1, [sp, #32]
   116d8: 30 d0 8d e2  	add	sp, sp, #48
   116dc: 00 88 bd e8  	pop	{r11, pc}

000116e0 <_ZN4core3str6traits110_$LT$impl$u20$core..slice..index..SliceIndex$LT$str$GT$$u20$for$u20$core..ops..range..RangeTo$LT$usize$GT$$GT$13get_unchecked17h778130eddf5f472cE>:
   116e0: 00 48 2d e9  	push	{r11, lr}
   116e4: 30 d0 4d e2  	sub	sp, sp, #48
   116e8: 08 20 8d e5  	str	r2, [sp, #8]
   116ec: 01 20 a0 e1  	mov	r2, r1
   116f0: 08 10 9d e5  	ldr	r1, [sp, #8]
   116f4: 0c 20 8d e5  	str	r2, [sp, #12]
   116f8: 00 20 a0 e1  	mov	r2, r0
   116fc: 0c 00 9d e5  	ldr	r0, [sp, #12]
   11700: 10 20 8d e5  	str	r2, [sp, #16]
   11704: 18 20 8d e5  	str	r2, [sp, #24]
   11708: 1c 00 8d e5  	str	r0, [sp, #28]
   1170c: 20 10 8d e5  	str	r1, [sp, #32]
   11710: 24 00 8d e5  	str	r0, [sp, #36]
   11714: 28 10 8d e5  	str	r1, [sp, #40]
   11718: 4e e2 ff eb  	bl	#-30408 <_ZN4core3ptr9const_ptr43_$LT$impl$u20$$BP$const$u20$$u5b$T$u5d$$GT$6as_ptr17hac7f6cf6a075aa09E>
   1171c: 00 10 a0 e1  	mov	r1, r0
   11720: 14 10 8d e5  	str	r1, [sp, #20]
   11724: 2c 00 8d e5  	str	r0, [sp, #44]
   11728: ff ff ff ea  	b	#-4 <_ZN4core3str6traits110_$LT$impl$u20$core..slice..index..SliceIndex$LT$str$GT$$u20$for$u20$core..ops..range..RangeTo$LT$usize$GT$$GT$13get_unchecked17h778130eddf5f472cE+0x4c>
   1172c: 10 10 9d e5  	ldr	r1, [sp, #16]
   11730: 14 00 9d e5  	ldr	r0, [sp, #20]
   11734: d7 e2 ff eb  	bl	#-29860 <_ZN4core3ptr20slice_from_raw_parts17h7eb9f3b40e6a6c9aE>
   11738: 00 00 8d e5  	str	r0, [sp]
   1173c: 04 10 8d e5  	str	r1, [sp, #4]
   11740: ff ff ff ea  	b	#-4 <_ZN4core3str6traits110_$LT$impl$u20$core..slice..index..SliceIndex$LT$str$GT$$u20$for$u20$core..ops..range..RangeTo$LT$usize$GT$$GT$13get_unchecked17h778130eddf5f472cE+0x64>
   11744: 04 10 9d e5  	ldr	r1, [sp, #4]
   11748: 00 00 9d e5  	ldr	r0, [sp]
   1174c: 30 d0 8d e2  	add	sp, sp, #48
   11750: 00 88 bd e8  	pop	{r11, pc}

00011754 <_ZN4core3str11validations15utf8_first_byte17h807516d75a2ca278E>:
   11754: 10 d0 4d e2  	sub	sp, sp, #16
   11758: 00 20 a0 e1  	mov	r2, r0
   1175c: 00 20 8d e5  	str	r2, [sp]
   11760: 0b 00 cd e5  	strb	r0, [sp, #11]
   11764: 0c 10 8d e5  	str	r1, [sp, #12]
   11768: 07 20 01 e2  	and	r2, r1, #7
   1176c: 7f 00 a0 e3  	mov	r0, #127
   11770: 30 02 a0 e1  	lsr	r0, r0, r2
   11774: 04 00 8d e5  	str	r0, [sp, #4]
   11778: 07 00 e0 e3  	mvn	r0, #7
   1177c: 00 00 11 e1  	tst	r1, r0
   11780: 06 00 00 1a  	bne	#24 <_ZN4core3str11validations15utf8_first_byte17h807516d75a2ca278E+0x4c>
   11784: ff ff ff ea  	b	#-4 <_ZN4core3str11validations15utf8_first_byte17h807516d75a2ca278E+0x34>
   11788: 00 00 9d e5  	ldr	r0, [sp]
   1178c: 04 10 9d e5  	ldr	r1, [sp, #4]
   11790: 01 00 00 e0  	and	r0, r0, r1
   11794: 70 00 ef e6  	uxtb	r0, r0
   11798: 10 d0 8d e2  	add	sp, sp, #16
   1179c: 1e ff 2f e1  	bx	lr
   117a0: 0c 00 9f e5  	ldr	r0, [pc, #12]
   117a4: 0c 20 9f e5  	ldr	r2, [pc, #12]
   117a8: 24 10 a0 e3  	mov	r1, #36
   117ac: c0 e9 ff eb  	bl	#-22784 <_ZN4core9panicking5panic17h70f755644c6683e5E>
   117b0: fe de ff e7  	trap

000117b4 <$d.1839>:
   117b4:	80 52 01 00	.word	0x00015280
   117b8:	90 64 01 00	.word	0x00016490

000117bc <_ZN4core3str11validations18utf8_acc_cont_byte17hd8201390176fb4d2E>:
   117bc: 10 d0 4d e2  	sub	sp, sp, #16
   117c0: 01 20 a0 e1  	mov	r2, r1
   117c4: 00 20 8d e5  	str	r2, [sp]
   117c8: 08 00 8d e5  	str	r0, [sp, #8]
   117cc: 0f 10 cd e5  	strb	r1, [sp, #15]
   117d0: 00 03 a0 e1  	lsl	r0, r0, #6
   117d4: 04 00 8d e5  	str	r0, [sp, #4]
   117d8: ff ff ff ea  	b	#-4 <_ZN4core3str11validations18utf8_acc_cont_byte17hd8201390176fb4d2E+0x20>
   117dc: 04 00 9d e5  	ldr	r0, [sp, #4]
   117e0: 00 10 9d e5  	ldr	r1, [sp]
   117e4: 3f 10 01 e2  	and	r1, r1, #63
   117e8: 01 00 80 e1  	orr	r0, r0, r1
   117ec: 10 d0 8d e2  	add	sp, sp, #16
   117f0: 1e ff 2f e1  	bx	lr

000117f4 <_ZN4core3str11validations17utf8_is_cont_byte17hf4225f2dee7ad739E>:
   117f4: 04 d0 4d e2  	sub	sp, sp, #4
   117f8: 70 10 af e6  	sxtb	r1, r0
   117fc: 03 00 cd e5  	strb	r0, [sp, #3]
   11800: 00 00 a0 e3  	mov	r0, #0
   11804: 40 00 71 e3  	cmn	r1, #64
   11808: 01 00 a0 b3  	movlt	r0, #1
   1180c: 04 d0 8d e2  	add	sp, sp, #4
   11810: 1e ff 2f e1  	bx	lr

00011814 <_ZN4core3str11validations15next_code_point17hca9f819efee38a31E>:
   11814: 00 48 2d e9  	push	{r11, lr}
   11818: 70 d0 4d e2  	sub	sp, sp, #112
   1181c: 38 00 8d e5  	str	r0, [sp, #56]
   11820: 50 00 8d e5  	str	r0, [sp, #80]
   11824: aa 05 00 eb  	bl	#5800 <_ZN91_$LT$core..slice..iter..Iter$LT$T$GT$$u20$as$u20$core..iter..traits..iterator..Iterator$GT$4next17h09592dbd374f3d62E>
   11828: 3c 00 8d e5  	str	r0, [sp, #60]
   1182c: ff ff ff ea  	b	#-4 <_ZN4core3str11validations15next_code_point17hca9f819efee38a31E+0x1c>
   11830: 3c 00 9d e5  	ldr	r0, [sp, #60]
   11834: 3e e9 ff eb  	bl	#-23304 <_ZN75_$LT$core..option..Option$LT$T$GT$$u20$as$u20$core..ops..try_trait..Try$GT$6branch17h1ec5a3c41af1443aE>
   11838: 48 00 8d e5  	str	r0, [sp, #72]
   1183c: ff ff ff ea  	b	#-4 <_ZN4core3str11validations15next_code_point17hca9f819efee38a31E+0x2c>
   11840: 48 00 9d e5  	ldr	r0, [sp, #72]
   11844: 10 1f 6f e1  	clz	r1, r0
   11848: a1 12 a0 e1  	lsr	r1, r1, #5
   1184c: 00 00 50 e3  	cmp	r0, #0
   11850: 02 00 00 1a  	bne	#8 <_ZN4core3str11validations15next_code_point17hca9f819efee38a31E+0x4c>
   11854: ff ff ff ea  	b	#-4 <_ZN4core3str11validations15next_code_point17hca9f819efee38a31E+0x44>
   11858: 09 00 00 ea  	b	#36 <_ZN4core3str11validations15next_code_point17hca9f819efee38a31E+0x70>
   1185c: fe de ff e7  	trap
   11860: 48 00 9d e5  	ldr	r0, [sp, #72]
   11864: 58 00 8d e5  	str	r0, [sp, #88]
   11868: d0 00 d0 e1  	ldrsb	r0, [r0]
   1186c: 70 10 ef e6  	uxtb	r1, r0
   11870: 34 10 8d e5  	str	r1, [sp, #52]
   11874: 5f 00 cd e5  	strb	r0, [sp, #95]
   11878: 01 00 70 e3  	cmn	r0, #1
   1187c: 0f 00 00 ca  	bgt	#60 <_ZN4core3str11validations15next_code_point17hca9f819efee38a31E+0xac>
   11880: 07 00 00 ea  	b	#28 <_ZN4core3str11validations15next_code_point17hca9f819efee38a31E+0x90>
   11884: 50 e9 ff eb  	bl	#-23232 <_ZN84_$LT$core..option..Option$LT$T$GT$$u20$as$u20$core..ops..try_trait..FromResidual$GT$13from_residual17h508954eeadc7c28aE>
   11888: 44 10 8d e5  	str	r1, [sp, #68]
   1188c: 40 00 8d e5  	str	r0, [sp, #64]
   11890: ff ff ff ea  	b	#-4 <_ZN4core3str11validations15next_code_point17hca9f819efee38a31E+0x80>
   11894: 40 00 9d e5  	ldr	r0, [sp, #64]
   11898: 44 10 9d e5  	ldr	r1, [sp, #68]
   1189c: 70 d0 8d e2  	add	sp, sp, #112
   118a0: 00 88 bd e8  	pop	{r11, pc}
   118a4: 34 00 9d e5  	ldr	r0, [sp, #52]
   118a8: 02 10 a0 e3  	mov	r1, #2
   118ac: a8 ff ff eb  	bl	#-352 <_ZN4core3str11validations15utf8_first_byte17h807516d75a2ca278E>
   118b0: 00 10 a0 e1  	mov	r1, r0
   118b4: 30 10 8d e5  	str	r1, [sp, #48]
   118b8: 60 00 8d e5  	str	r0, [sp, #96]
   118bc: 05 00 00 ea  	b	#20 <_ZN4core3str11validations15next_code_point17hca9f819efee38a31E+0xc4>
   118c0: 34 00 9d e5  	ldr	r0, [sp, #52]
   118c4: 70 00 ef e6  	uxtb	r0, r0
   118c8: 44 00 8d e5  	str	r0, [sp, #68]
   118cc: 01 00 a0 e3  	mov	r0, #1
   118d0: 40 00 8d e5  	str	r0, [sp, #64]
   118d4: ee ff ff ea  	b	#-72 <_ZN4core3str11validations15next_code_point17hca9f819efee38a31E+0x80>
   118d8: 38 00 9d e5  	ldr	r0, [sp, #56]
   118dc: 7c 05 00 eb  	bl	#5616 <_ZN91_$LT$core..slice..iter..Iter$LT$T$GT$$u20$as$u20$core..iter..traits..iterator..Iterator$GT$4next17h09592dbd374f3d62E>
   118e0: 2c 00 8d e5  	str	r0, [sp, #44]
   118e4: ff ff ff ea  	b	#-4 <_ZN4core3str11validations15next_code_point17hca9f819efee38a31E+0xd4>
   118e8: 2c 00 9d e5  	ldr	r0, [sp, #44]
   118ec: 48 11 9f e5  	ldr	r1, [pc, #328]
   118f0: 72 e8 ff eb  	bl	#-24120 <_ZN4core6option15Option$LT$T$GT$16unwrap_unchecked17h26d673577bdd7b53E>
   118f4: 28 00 8d e5  	str	r0, [sp, #40]
   118f8: ff ff ff ea  	b	#-4 <_ZN4core3str11validations15next_code_point17hca9f819efee38a31E+0xe8>
   118fc: 30 00 9d e5  	ldr	r0, [sp, #48]
   11900: 28 10 9d e5  	ldr	r1, [sp, #40]
   11904: 00 10 d1 e5  	ldrb	r1, [r1]
   11908: 01 20 a0 e1  	mov	r2, r1
   1190c: 24 20 8d e5  	str	r2, [sp, #36]
   11910: 66 10 cd e5  	strb	r1, [sp, #102]
   11914: a8 ff ff eb  	bl	#-352 <_ZN4core3str11validations18utf8_acc_cont_byte17hd8201390176fb4d2E>
   11918: 4c 00 8d e5  	str	r0, [sp, #76]
   1191c: ff ff ff ea  	b	#-4 <_ZN4core3str11validations15next_code_point17hca9f819efee38a31E+0x10c>
   11920: 34 00 9d e5  	ldr	r0, [sp, #52]
   11924: 70 00 ef e6  	uxtb	r0, r0
   11928: df 00 50 e3  	cmp	r0, #223
   1192c: 05 00 00 8a  	bhi	#20 <_ZN4core3str11validations15next_code_point17hca9f819efee38a31E+0x134>
   11930: ff ff ff ea  	b	#-4 <_ZN4core3str11validations15next_code_point17hca9f819efee38a31E+0x120>
   11934: 4c 00 9d e5  	ldr	r0, [sp, #76]
   11938: 44 00 8d e5  	str	r0, [sp, #68]
   1193c: 01 00 a0 e3  	mov	r0, #1
   11940: 40 00 8d e5  	str	r0, [sp, #64]
   11944: d2 ff ff ea  	b	#-184 <_ZN4core3str11validations15next_code_point17hca9f819efee38a31E+0x80>
   11948: 38 00 9d e5  	ldr	r0, [sp, #56]
   1194c: 60 05 00 eb  	bl	#5504 <_ZN91_$LT$core..slice..iter..Iter$LT$T$GT$$u20$as$u20$core..iter..traits..iterator..Iterator$GT$4next17h09592dbd374f3d62E>
   11950: 20 00 8d e5  	str	r0, [sp, #32]
   11954: ff ff ff ea  	b	#-4 <_ZN4core3str11validations15next_code_point17hca9f819efee38a31E+0x144>
   11958: 20 00 9d e5  	ldr	r0, [sp, #32]
   1195c: dc 10 9f e5  	ldr	r1, [pc, #220]
   11960: 56 e8 ff eb  	bl	#-24232 <_ZN4core6option15Option$LT$T$GT$16unwrap_unchecked17h26d673577bdd7b53E>
   11964: 1c 00 8d e5  	str	r0, [sp, #28]
   11968: ff ff ff ea  	b	#-4 <_ZN4core3str11validations15next_code_point17hca9f819efee38a31E+0x158>
   1196c: 24 00 9d e5  	ldr	r0, [sp, #36]
   11970: 1c 10 9d e5  	ldr	r1, [sp, #28]
   11974: 00 10 d1 e5  	ldrb	r1, [r1]
   11978: 67 10 cd e5  	strb	r1, [sp, #103]
   1197c: 3f 00 00 e2  	and	r0, r0, #63
   11980: 8d ff ff eb  	bl	#-460 <_ZN4core3str11validations18utf8_acc_cont_byte17hd8201390176fb4d2E>
   11984: 00 10 a0 e1  	mov	r1, r0
   11988: 18 10 8d e5  	str	r1, [sp, #24]
   1198c: 68 00 8d e5  	str	r0, [sp, #104]
   11990: ff ff ff ea  	b	#-4 <_ZN4core3str11validations15next_code_point17hca9f819efee38a31E+0x180>
   11994: 30 00 9d e5  	ldr	r0, [sp, #48]
   11998: 00 06 a0 e1  	lsl	r0, r0, #12
   1199c: 14 00 8d e5  	str	r0, [sp, #20]
   119a0: ff ff ff ea  	b	#-4 <_ZN4core3str11validations15next_code_point17hca9f819efee38a31E+0x190>
   119a4: 34 00 9d e5  	ldr	r0, [sp, #52]
   119a8: 14 10 9d e5  	ldr	r1, [sp, #20]
   119ac: 18 20 9d e5  	ldr	r2, [sp, #24]
   119b0: 02 10 81 e1  	orr	r1, r1, r2
   119b4: 4c 10 8d e5  	str	r1, [sp, #76]
   119b8: 70 00 ef e6  	uxtb	r0, r0
   119bc: f0 00 50 e3  	cmp	r0, #240
   119c0: db ff ff 3a  	blo	#-148 <_ZN4core3str11validations15next_code_point17hca9f819efee38a31E+0x120>
   119c4: ff ff ff ea  	b	#-4 <_ZN4core3str11validations15next_code_point17hca9f819efee38a31E+0x1b4>
   119c8: 38 00 9d e5  	ldr	r0, [sp, #56]
   119cc: 40 05 00 eb  	bl	#5376 <_ZN91_$LT$core..slice..iter..Iter$LT$T$GT$$u20$as$u20$core..iter..traits..iterator..Iterator$GT$4next17h09592dbd374f3d62E>
   119d0: 10 00 8d e5  	str	r0, [sp, #16]
   119d4: ff ff ff ea  	b	#-4 <_ZN4core3str11validations15next_code_point17hca9f819efee38a31E+0x1c4>
   119d8: 10 00 9d e5  	ldr	r0, [sp, #16]
   119dc: 60 10 9f e5  	ldr	r1, [pc, #96]
   119e0: 36 e8 ff eb  	bl	#-24360 <_ZN4core6option15Option$LT$T$GT$16unwrap_unchecked17h26d673577bdd7b53E>
   119e4: 0c 00 8d e5  	str	r0, [sp, #12]
   119e8: ff ff ff ea  	b	#-4 <_ZN4core3str11validations15next_code_point17hca9f819efee38a31E+0x1d8>
   119ec: 30 00 9d e5  	ldr	r0, [sp, #48]
   119f0: 0c 10 9d e5  	ldr	r1, [sp, #12]
   119f4: 00 10 d1 e5  	ldrb	r1, [r1]
   119f8: 01 20 a0 e1  	mov	r2, r1
   119fc: 04 20 8d e5  	str	r2, [sp, #4]
   11a00: 6f 10 cd e5  	strb	r1, [sp, #111]
   11a04: 07 00 00 e2  	and	r0, r0, #7
   11a08: 00 09 a0 e1  	lsl	r0, r0, #18
   11a0c: 08 00 8d e5  	str	r0, [sp, #8]
   11a10: ff ff ff ea  	b	#-4 <_ZN4core3str11validations15next_code_point17hca9f819efee38a31E+0x200>
   11a14: 04 10 9d e5  	ldr	r1, [sp, #4]
   11a18: 18 00 9d e5  	ldr	r0, [sp, #24]
   11a1c: 66 ff ff eb  	bl	#-616 <_ZN4core3str11validations18utf8_acc_cont_byte17hd8201390176fb4d2E>
   11a20: 00 00 8d e5  	str	r0, [sp]
   11a24: ff ff ff ea  	b	#-4 <_ZN4core3str11validations15next_code_point17hca9f819efee38a31E+0x214>
   11a28: 08 00 9d e5  	ldr	r0, [sp, #8]
   11a2c: 00 10 9d e5  	ldr	r1, [sp]
   11a30: 01 00 80 e1  	orr	r0, r0, r1
   11a34: 4c 00 8d e5  	str	r0, [sp, #76]
   11a38: bd ff ff ea  	b	#-268 <_ZN4core3str11validations15next_code_point17hca9f819efee38a31E+0x120>

00011a3c <$d.1843>:
   11a3c:	a0 64 01 00	.word	0x000164a0
   11a40:	b0 64 01 00	.word	0x000164b0
   11a44:	c0 64 01 00	.word	0x000164c0

00011a48 <_ZN4core3str21_$LT$impl$u20$str$GT$3len17h14a3611b18a00a0eE>:
   11a48: 1c d0 4d e2  	sub	sp, sp, #28
   11a4c: 04 00 8d e5  	str	r0, [sp, #4]
   11a50: 08 10 8d e5  	str	r1, [sp, #8]
   11a54: 0c 00 8d e5  	str	r0, [sp, #12]
   11a58: 10 10 8d e5  	str	r1, [sp, #16]
   11a5c: 14 00 8d e5  	str	r0, [sp, #20]
   11a60: 18 10 8d e5  	str	r1, [sp, #24]
   11a64: 18 00 9d e5  	ldr	r0, [sp, #24]
   11a68: 00 00 8d e5  	str	r0, [sp]
   11a6c: ff ff ff ea  	b	#-4 <_ZN4core3str21_$LT$impl$u20$str$GT$3len17h14a3611b18a00a0eE+0x28>
   11a70: 00 00 9d e5  	ldr	r0, [sp]
   11a74: 1c d0 8d e2  	add	sp, sp, #28
   11a78: 1e ff 2f e1  	bx	lr

00011a7c <_ZN4core3str21_$LT$impl$u20$str$GT$8is_empty17hd7cf8b576699b70eE>:
   11a7c: 00 48 2d e9  	push	{r11, lr}
   11a80: 10 d0 4d e2  	sub	sp, sp, #16
   11a84: 08 00 8d e5  	str	r0, [sp, #8]
   11a88: 0c 10 8d e5  	str	r1, [sp, #12]
   11a8c: ed ff ff eb  	bl	#-76 <_ZN4core3str21_$LT$impl$u20$str$GT$3len17h14a3611b18a00a0eE>
   11a90: 04 00 8d e5  	str	r0, [sp, #4]
   11a94: ff ff ff ea  	b	#-4 <_ZN4core3str21_$LT$impl$u20$str$GT$8is_empty17hd7cf8b576699b70eE+0x1c>
   11a98: 04 00 9d e5  	ldr	r0, [sp, #4]
   11a9c: 10 0f 6f e1  	clz	r0, r0
   11aa0: a0 02 a0 e1  	lsr	r0, r0, #5
   11aa4: 10 d0 8d e2  	add	sp, sp, #16
   11aa8: 00 88 bd e8  	pop	{r11, pc}

00011aac <_ZN4core3str21_$LT$impl$u20$str$GT$16is_char_boundary17ha97b2a4a3b95f885E>:
   11aac: 00 48 2d e9  	push	{r11, lr}
   11ab0: 40 d0 4d e2  	sub	sp, sp, #64
   11ab4: 0c 20 8d e5  	str	r2, [sp, #12]
   11ab8: 10 10 8d e5  	str	r1, [sp, #16]
   11abc: 14 00 8d e5  	str	r0, [sp, #20]
   11ac0: 20 00 8d e5  	str	r0, [sp, #32]
   11ac4: 24 10 8d e5  	str	r1, [sp, #36]
   11ac8: 28 20 8d e5  	str	r2, [sp, #40]
   11acc: 00 00 52 e3  	cmp	r2, #0
   11ad0: 03 00 00 1a  	bne	#12 <_ZN4core3str21_$LT$impl$u20$str$GT$16is_char_boundary17ha97b2a4a3b95f885E+0x38>
   11ad4: ff ff ff ea  	b	#-4 <_ZN4core3str21_$LT$impl$u20$str$GT$16is_char_boundary17ha97b2a4a3b95f885E+0x2c>
   11ad8: 01 00 a0 e3  	mov	r0, #1
   11adc: 1b 00 cd e5  	strb	r0, [sp, #27]
   11ae0: 24 00 00 ea  	b	#144 <_ZN4core3str21_$LT$impl$u20$str$GT$16is_char_boundary17ha97b2a4a3b95f885E+0xcc>
   11ae4: 10 00 9d e5  	ldr	r0, [sp, #16]
   11ae8: 14 10 9d e5  	ldr	r1, [sp, #20]
   11aec: 30 10 8d e5  	str	r1, [sp, #48]
   11af0: 34 00 8d e5  	str	r0, [sp, #52]
   11af4: 38 10 8d e5  	str	r1, [sp, #56]
   11af8: 3c 00 8d e5  	str	r0, [sp, #60]
   11afc: 38 00 9d e5  	ldr	r0, [sp, #56]
   11b00: 04 00 8d e5  	str	r0, [sp, #4]
   11b04: 3c 00 9d e5  	ldr	r0, [sp, #60]
   11b08: 08 00 8d e5  	str	r0, [sp, #8]
   11b0c: ff ff ff ea  	b	#-4 <_ZN4core3str21_$LT$impl$u20$str$GT$16is_char_boundary17ha97b2a4a3b95f885E+0x64>
   11b10: 0c 20 9d e5  	ldr	r2, [sp, #12]
   11b14: 08 10 9d e5  	ldr	r1, [sp, #8]
   11b18: 04 00 9d e5  	ldr	r0, [sp, #4]
   11b1c: 2d f8 ff eb  	bl	#-8012 <_ZN4core5slice29_$LT$impl$u20$$u5b$T$u5d$$GT$3get17h8f5e6bea4c5e54d5E>
   11b20: 1c 00 8d e5  	str	r0, [sp, #28]
   11b24: ff ff ff ea  	b	#-4 <_ZN4core3str21_$LT$impl$u20$str$GT$16is_char_boundary17ha97b2a4a3b95f885E+0x7c>
   11b28: 1c 00 9d e5  	ldr	r0, [sp, #28]
   11b2c: 00 00 50 e3  	cmp	r0, #0
   11b30: 00 10 a0 e1  	mov	r1, r0
   11b34: 01 10 a0 13  	movne	r1, #1
   11b38: 00 00 50 e3  	cmp	r0, #0
   11b3c: 02 00 00 0a  	beq	#8 <_ZN4core3str21_$LT$impl$u20$str$GT$16is_char_boundary17ha97b2a4a3b95f885E+0xa0>
   11b40: ff ff ff ea  	b	#-4 <_ZN4core3str21_$LT$impl$u20$str$GT$16is_char_boundary17ha97b2a4a3b95f885E+0x98>
   11b44: 05 00 00 ea  	b	#20 <_ZN4core3str21_$LT$impl$u20$str$GT$16is_char_boundary17ha97b2a4a3b95f885E+0xb4>
   11b48: fe de ff e7  	trap
   11b4c: 10 10 9d e5  	ldr	r1, [sp, #16]
   11b50: 14 00 9d e5  	ldr	r0, [sp, #20]
   11b54: bb ff ff eb  	bl	#-276 <_ZN4core3str21_$LT$impl$u20$str$GT$3len17h14a3611b18a00a0eE>
   11b58: 00 00 8d e5  	str	r0, [sp]
   11b5c: 08 00 00 ea  	b	#32 <_ZN4core3str21_$LT$impl$u20$str$GT$16is_char_boundary17ha97b2a4a3b95f885E+0xd8>
   11b60: 1c 00 9d e5  	ldr	r0, [sp, #28]
   11b64: 00 00 d0 e5  	ldrb	r0, [r0]
   11b68: 2f 00 cd e5  	strb	r0, [sp, #47]
   11b6c: d0 dd ff eb  	bl	#-35008 <_ZN4core3num20_$LT$impl$u20$u8$GT$21is_utf8_char_boundary17h9c9d7c574f60edcfE>
   11b70: 1b 00 cd e5  	strb	r0, [sp, #27]
   11b74: ff ff ff ea  	b	#-4 <_ZN4core3str21_$LT$impl$u20$str$GT$16is_char_boundary17ha97b2a4a3b95f885E+0xcc>
   11b78: 1b 00 dd e5  	ldrb	r0, [sp, #27]
   11b7c: 40 d0 8d e2  	add	sp, sp, #64
   11b80: 00 88 bd e8  	pop	{r11, pc}
   11b84: 0c 00 9d e5  	ldr	r0, [sp, #12]
   11b88: 00 10 9d e5  	ldr	r1, [sp]
   11b8c: 01 00 40 e0  	sub	r0, r0, r1
   11b90: 10 0f 6f e1  	clz	r0, r0
   11b94: a0 02 a0 e1  	lsr	r0, r0, #5
   11b98: 1b 00 cd e5  	strb	r0, [sp, #27]
   11b9c: f5 ff ff ea  	b	#-44 <_ZN4core3str21_$LT$impl$u20$str$GT$16is_char_boundary17ha97b2a4a3b95f885E+0xcc>

00011ba0 <_ZN4core3str21_$LT$impl$u20$str$GT$3get17h1ffc82c8130656bdE>:
   11ba0: 00 48 2d e9  	push	{r11, lr}
   11ba4: 18 d0 4d e2  	sub	sp, sp, #24
   11ba8: 00 20 8d e5  	str	r2, [sp]
   11bac: 01 20 a0 e1  	mov	r2, r1
   11bb0: 00 10 a0 e1  	mov	r1, r0
   11bb4: 00 00 9d e5  	ldr	r0, [sp]
   11bb8: 0c 10 8d e5  	str	r1, [sp, #12]
   11bbc: 10 20 8d e5  	str	r2, [sp, #16]
   11bc0: 14 00 8d e5  	str	r0, [sp, #20]
   11bc4: 9d fe ff eb  	bl	#-1420 <_ZN4core3str6traits110_$LT$impl$u20$core..slice..index..SliceIndex$LT$str$GT$$u20$for$u20$core..ops..range..RangeTo$LT$usize$GT$$GT$3get17h38633d9bf2554e71E>
   11bc8: 04 00 8d e5  	str	r0, [sp, #4]
   11bcc: 08 10 8d e5  	str	r1, [sp, #8]
   11bd0: ff ff ff ea  	b	#-4 <_ZN4core3str21_$LT$impl$u20$str$GT$3get17h1ffc82c8130656bdE+0x34>
   11bd4: 08 10 9d e5  	ldr	r1, [sp, #8]
   11bd8: 04 00 9d e5  	ldr	r0, [sp, #4]
   11bdc: 18 d0 8d e2  	add	sp, sp, #24
   11be0: 00 88 bd e8  	pop	{r11, pc}

00011be4 <_ZN4core3str21_$LT$impl$u20$str$GT$5chars17hbaf4cad00ce48caaE>:
   11be4: 00 48 2d e9  	push	{r11, lr}
   11be8: 30 d0 4d e2  	sub	sp, sp, #48
   11bec: 18 00 8d e5  	str	r0, [sp, #24]
   11bf0: 1c 10 8d e5  	str	r1, [sp, #28]
   11bf4: 20 00 8d e5  	str	r0, [sp, #32]
   11bf8: 24 10 8d e5  	str	r1, [sp, #36]
   11bfc: 28 00 8d e5  	str	r0, [sp, #40]
   11c00: 2c 10 8d e5  	str	r1, [sp, #44]
   11c04: 28 00 9d e5  	ldr	r0, [sp, #40]
   11c08: 08 00 8d e5  	str	r0, [sp, #8]
   11c0c: 2c 00 9d e5  	ldr	r0, [sp, #44]
   11c10: 0c 00 8d e5  	str	r0, [sp, #12]
   11c14: ff ff ff ea  	b	#-4 <_ZN4core3str21_$LT$impl$u20$str$GT$5chars17hbaf4cad00ce48caaE+0x34>
   11c18: 0c 10 9d e5  	ldr	r1, [sp, #12]
   11c1c: 08 00 9d e5  	ldr	r0, [sp, #8]
   11c20: 80 f8 ff eb  	bl	#-7680 <_ZN4core5slice29_$LT$impl$u20$$u5b$T$u5d$$GT$4iter17h0c95fae1e4e64d73E>
   11c24: 00 00 8d e5  	str	r0, [sp]
   11c28: 04 10 8d e5  	str	r1, [sp, #4]
   11c2c: ff ff ff ea  	b	#-4 <_ZN4core3str21_$LT$impl$u20$str$GT$5chars17hbaf4cad00ce48caaE+0x4c>
   11c30: 04 00 9d e5  	ldr	r0, [sp, #4]
   11c34: 00 10 9d e5  	ldr	r1, [sp]
   11c38: 10 10 8d e5  	str	r1, [sp, #16]
   11c3c: 14 00 8d e5  	str	r0, [sp, #20]
   11c40: 10 00 9d e5  	ldr	r0, [sp, #16]
   11c44: 14 10 9d e5  	ldr	r1, [sp, #20]
   11c48: 30 d0 8d e2  	add	sp, sp, #48
   11c4c: 00 88 bd e8  	pop	{r11, pc}

00011c50 <_ZN4core3str21_$LT$impl$u20$str$GT$12char_indices17hd69404982939c15bE>:
   11c50: 00 48 2d e9  	push	{r11, lr}
   11c54: 20 d0 4d e2  	sub	sp, sp, #32
   11c58: 04 20 8d e5  	str	r2, [sp, #4]
   11c5c: 01 20 a0 e1  	mov	r2, r1
   11c60: 04 10 9d e5  	ldr	r1, [sp, #4]
   11c64: 08 20 8d e5  	str	r2, [sp, #8]
   11c68: 00 20 a0 e1  	mov	r2, r0
   11c6c: 08 00 9d e5  	ldr	r0, [sp, #8]
   11c70: 0c 20 8d e5  	str	r2, [sp, #12]
   11c74: 18 00 8d e5  	str	r0, [sp, #24]
   11c78: 1c 10 8d e5  	str	r1, [sp, #28]
   11c7c: d8 ff ff eb  	bl	#-160 <_ZN4core3str21_$LT$impl$u20$str$GT$5chars17hbaf4cad00ce48caaE>
   11c80: 10 00 8d e5  	str	r0, [sp, #16]
   11c84: 14 10 8d e5  	str	r1, [sp, #20]
   11c88: ff ff ff ea  	b	#-4 <_ZN4core3str21_$LT$impl$u20$str$GT$12char_indices17hd69404982939c15bE+0x3c>
   11c8c: 14 00 9d e5  	ldr	r0, [sp, #20]
   11c90: 0c 10 9d e5  	ldr	r1, [sp, #12]
   11c94: 10 20 9d e5  	ldr	r2, [sp, #16]
   11c98: 00 30 a0 e3  	mov	r3, #0
   11c9c: 00 30 81 e5  	str	r3, [r1]
   11ca0: 04 20 81 e5  	str	r2, [r1, #4]
   11ca4: 08 00 81 e5  	str	r0, [r1, #8]
   11ca8: 20 d0 8d e2  	add	sp, sp, #32
   11cac: 00 88 bd e8  	pop	{r11, pc}

00011cb0 <_ZN4core3num23_$LT$impl$u20$usize$GT$11checked_mul17hb7ff3cbd0d4cc03cE>:
   11cb0: 44 d0 4d e2  	sub	sp, sp, #68
   11cb4: 14 00 8d e5  	str	r0, [sp, #20]
   11cb8: 18 10 8d e5  	str	r1, [sp, #24]
   11cbc: 2c 00 8d e5  	str	r0, [sp, #44]
   11cc0: 30 10 8d e5  	str	r1, [sp, #48]
   11cc4: 90 11 80 e0  	umull	r1, r0, r0, r1
   11cc8: 00 00 50 e3  	cmp	r0, #0
   11ccc: 01 00 a0 13  	movne	r0, #1
   11cd0: 34 10 8d e5  	str	r1, [sp, #52]
   11cd4: 38 00 cd e5  	strb	r0, [sp, #56]
   11cd8: 34 10 9d e5  	ldr	r1, [sp, #52]
   11cdc: 38 00 dd e5  	ldrb	r0, [sp, #56]
   11ce0: 3c 10 8d e5  	str	r1, [sp, #60]
   11ce4: 43 00 cd e5  	strb	r0, [sp, #67]
   11ce8: 24 10 8d e5  	str	r1, [sp, #36]
   11cec: 28 00 cd e5  	strb	r0, [sp, #40]
   11cf0: 24 00 9d e5  	ldr	r0, [sp, #36]
   11cf4: 04 00 8d e5  	str	r0, [sp, #4]
   11cf8: 28 00 dd e5  	ldrb	r0, [sp, #40]
   11cfc: 08 00 8d e5  	str	r0, [sp, #8]
   11d00: ff ff ff ea  	b	#-4 <_ZN4core3num23_$LT$impl$u20$usize$GT$11checked_mul17hb7ff3cbd0d4cc03cE+0x54>
   11d04: 08 00 9d e5  	ldr	r0, [sp, #8]
   11d08: 04 10 9d e5  	ldr	r1, [sp, #4]
   11d0c: 1c 10 8d e5  	str	r1, [sp, #28]
   11d10: 01 00 00 e2  	and	r0, r0, #1
   11d14: 22 00 cd e5  	strb	r0, [sp, #34]
   11d18: 23 00 cd e5  	strb	r0, [sp, #35]
   11d1c: 23 00 dd e5  	ldrb	r0, [sp, #35]
   11d20: 00 00 8d e5  	str	r0, [sp]
   11d24: ff ff ff ea  	b	#-4 <_ZN4core3num23_$LT$impl$u20$usize$GT$11checked_mul17hb7ff3cbd0d4cc03cE+0x78>
   11d28: 00 00 9d e5  	ldr	r0, [sp]
   11d2c: 01 00 10 e3  	tst	r0, #1
   11d30: 05 00 00 1a  	bne	#20 <_ZN4core3num23_$LT$impl$u20$usize$GT$11checked_mul17hb7ff3cbd0d4cc03cE+0x9c>
   11d34: ff ff ff ea  	b	#-4 <_ZN4core3num23_$LT$impl$u20$usize$GT$11checked_mul17hb7ff3cbd0d4cc03cE+0x88>
   11d38: 04 00 9d e5  	ldr	r0, [sp, #4]
   11d3c: 10 00 8d e5  	str	r0, [sp, #16]
   11d40: 01 00 a0 e3  	mov	r0, #1
   11d44: 0c 00 8d e5  	str	r0, [sp, #12]
   11d48: 02 00 00 ea  	b	#8 <_ZN4core3num23_$LT$impl$u20$usize$GT$11checked_mul17hb7ff3cbd0d4cc03cE+0xa8>
   11d4c: 00 00 a0 e3  	mov	r0, #0
   11d50: 0c 00 8d e5  	str	r0, [sp, #12]
   11d54: ff ff ff ea  	b	#-4 <_ZN4core3num23_$LT$impl$u20$usize$GT$11checked_mul17hb7ff3cbd0d4cc03cE+0xa8>
   11d58: 0c 00 9d e5  	ldr	r0, [sp, #12]
   11d5c: 10 10 9d e5  	ldr	r1, [sp, #16]
   11d60: 44 d0 8d e2  	add	sp, sp, #68
   11d64: 1e ff 2f e1  	bx	lr

00011d68 <_ZN4core3num23_$LT$impl$u20$usize$GT$14saturating_mul17he0e56fdf767fb9b6E>:
   11d68: 00 48 2d e9  	push	{r11, lr}
   11d6c: 18 d0 4d e2  	sub	sp, sp, #24
   11d70: 0c 00 8d e5  	str	r0, [sp, #12]
   11d74: 10 10 8d e5  	str	r1, [sp, #16]
   11d78: cc ff ff eb  	bl	#-208 <_ZN4core3num23_$LT$impl$u20$usize$GT$11checked_mul17hb7ff3cbd0d4cc03cE>
   11d7c: 08 10 8d e5  	str	r1, [sp, #8]
   11d80: 04 00 8d e5  	str	r0, [sp, #4]
   11d84: ff ff ff ea  	b	#-4 <_ZN4core3num23_$LT$impl$u20$usize$GT$14saturating_mul17he0e56fdf767fb9b6E+0x20>
   11d88: 04 00 9d e5  	ldr	r0, [sp, #4]
   11d8c: 00 00 50 e3  	cmp	r0, #0
   11d90: 02 00 00 0a  	beq	#8 <_ZN4core3num23_$LT$impl$u20$usize$GT$14saturating_mul17he0e56fdf767fb9b6E+0x38>
   11d94: ff ff ff ea  	b	#-4 <_ZN4core3num23_$LT$impl$u20$usize$GT$14saturating_mul17he0e56fdf767fb9b6E+0x30>
   11d98: 03 00 00 ea  	b	#12 <_ZN4core3num23_$LT$impl$u20$usize$GT$14saturating_mul17he0e56fdf767fb9b6E+0x44>
   11d9c: fe de ff e7  	trap
   11da0: 00 00 e0 e3  	mvn	r0, #0
   11da4: 00 00 8d e5  	str	r0, [sp]
   11da8: 03 00 00 ea  	b	#12 <_ZN4core3num23_$LT$impl$u20$usize$GT$14saturating_mul17he0e56fdf767fb9b6E+0x54>
   11dac: 08 00 9d e5  	ldr	r0, [sp, #8]
   11db0: 14 00 8d e5  	str	r0, [sp, #20]
   11db4: 00 00 8d e5  	str	r0, [sp]
   11db8: ff ff ff ea  	b	#-4 <_ZN4core3num23_$LT$impl$u20$usize$GT$14saturating_mul17he0e56fdf767fb9b6E+0x54>
   11dbc: 00 00 9d e5  	ldr	r0, [sp]
   11dc0: 18 d0 8d e2  	add	sp, sp, #24
   11dc4: 00 88 bd e8  	pop	{r11, pc}

00011dc8 <_ZN4core5clone5impls54_$LT$impl$u20$core..clone..Clone$u20$for$u20$usize$GT$5clone17hd939152c9612436bE>:
   11dc8: 04 d0 4d e2  	sub	sp, sp, #4
   11dcc: 00 00 8d e5  	str	r0, [sp]
   11dd0: 00 00 90 e5  	ldr	r0, [r0]
   11dd4: 04 d0 8d e2  	add	sp, sp, #4
   11dd8: 1e ff 2f e1  	bx	lr

00011ddc <_ZN4core3cmp5impls56_$LT$impl$u20$core..cmp..PartialEq$u20$for$u20$usize$GT$2eq17h72e042646ebe0583E>:
   11ddc: 08 d0 4d e2  	sub	sp, sp, #8
   11de0: 00 00 8d e5  	str	r0, [sp]
   11de4: 04 10 8d e5  	str	r1, [sp, #4]
   11de8: 00 00 90 e5  	ldr	r0, [r0]
   11dec: 00 10 91 e5  	ldr	r1, [r1]
   11df0: 01 00 40 e0  	sub	r0, r0, r1
   11df4: 10 0f 6f e1  	clz	r0, r0
   11df8: a0 02 a0 e1  	lsr	r0, r0, #5
   11dfc: 08 d0 8d e2  	add	sp, sp, #8
   11e00: 1e ff 2f e1  	bx	lr

00011e04 <_ZN4core3cmp5impls57_$LT$impl$u20$core..cmp..PartialOrd$u20$for$u20$usize$GT$2lt17h50e18a8ad36b70d1E>:
   11e04: 0c d0 4d e2  	sub	sp, sp, #12
   11e08: 00 10 8d e5  	str	r1, [sp]
   11e0c: 00 10 a0 e1  	mov	r1, r0
   11e10: 00 00 9d e5  	ldr	r0, [sp]
   11e14: 04 10 8d e5  	str	r1, [sp, #4]
   11e18: 08 00 8d e5  	str	r0, [sp, #8]
   11e1c: 00 10 91 e5  	ldr	r1, [r1]
   11e20: 00 20 90 e5  	ldr	r2, [r0]
   11e24: 00 00 a0 e3  	mov	r0, #0
   11e28: 02 00 51 e1  	cmp	r1, r2
   11e2c: 01 00 a0 33  	movlo	r0, #1
   11e30: 0c d0 8d e2  	add	sp, sp, #12
   11e34: 1e ff 2f e1  	bx	lr

00011e38 <_ZN4core3cmp5impls57_$LT$impl$u20$core..cmp..PartialOrd$u20$for$u20$usize$GT$2ge17h3b07ee89d904bc72E>:
   11e38: 0c d0 4d e2  	sub	sp, sp, #12
   11e3c: 00 10 8d e5  	str	r1, [sp]
   11e40: 00 10 a0 e1  	mov	r1, r0
   11e44: 00 00 9d e5  	ldr	r0, [sp]
   11e48: 04 10 8d e5  	str	r1, [sp, #4]
   11e4c: 08 00 8d e5  	str	r0, [sp, #8]
   11e50: 00 10 91 e5  	ldr	r1, [r1]
   11e54: 00 20 90 e5  	ldr	r2, [r0]
   11e58: 00 00 a0 e3  	mov	r0, #0
   11e5c: 02 00 51 e1  	cmp	r1, r2
   11e60: 01 00 a0 23  	movhs	r0, #1
   11e64: 0c d0 8d e2  	add	sp, sp, #12
   11e68: 1e ff 2f e1  	bx	lr

00011e6c <_ZN4core3cmp5impls50_$LT$impl$u20$core..cmp..Ord$u20$for$u20$usize$GT$3cmp17h3d79425c57ffc708E>:
   11e6c: 14 d0 4d e2  	sub	sp, sp, #20
   11e70: 00 10 8d e5  	str	r1, [sp]
   11e74: 04 00 8d e5  	str	r0, [sp, #4]
   11e78: 0c 00 8d e5  	str	r0, [sp, #12]
   11e7c: 10 10 8d e5  	str	r1, [sp, #16]
   11e80: 00 00 90 e5  	ldr	r0, [r0]
   11e84: 00 10 91 e5  	ldr	r1, [r1]
   11e88: 01 00 50 e1  	cmp	r0, r1
   11e8c: 07 00 00 3a  	blo	#28 <_ZN4core3cmp5impls50_$LT$impl$u20$core..cmp..Ord$u20$for$u20$usize$GT$3cmp17h3d79425c57ffc708E+0x44>
   11e90: ff ff ff ea  	b	#-4 <_ZN4core3cmp5impls50_$LT$impl$u20$core..cmp..Ord$u20$for$u20$usize$GT$3cmp17h3d79425c57ffc708E+0x28>
   11e94: 00 10 9d e5  	ldr	r1, [sp]
   11e98: 04 00 9d e5  	ldr	r0, [sp, #4]
   11e9c: 00 00 90 e5  	ldr	r0, [r0]
   11ea0: 00 10 91 e5  	ldr	r1, [r1]
   11ea4: 01 00 50 e1  	cmp	r0, r1
   11ea8: 09 00 00 0a  	beq	#36 <_ZN4core3cmp5impls50_$LT$impl$u20$core..cmp..Ord$u20$for$u20$usize$GT$3cmp17h3d79425c57ffc708E+0x68>
   11eac: 05 00 00 ea  	b	#20 <_ZN4core3cmp5impls50_$LT$impl$u20$core..cmp..Ord$u20$for$u20$usize$GT$3cmp17h3d79425c57ffc708E+0x5c>
   11eb0: ff 00 a0 e3  	mov	r0, #255
   11eb4: 0b 00 cd e5  	strb	r0, [sp, #11]
   11eb8: ff ff ff ea  	b	#-4 <_ZN4core3cmp5impls50_$LT$impl$u20$core..cmp..Ord$u20$for$u20$usize$GT$3cmp17h3d79425c57ffc708E+0x50>
   11ebc: 0b 00 dd e5  	ldrb	r0, [sp, #11]
   11ec0: 14 d0 8d e2  	add	sp, sp, #20
   11ec4: 1e ff 2f e1  	bx	lr
   11ec8: 01 00 a0 e3  	mov	r0, #1
   11ecc: 0b 00 cd e5  	strb	r0, [sp, #11]
   11ed0: f9 ff ff ea  	b	#-28 <_ZN4core3cmp5impls50_$LT$impl$u20$core..cmp..Ord$u20$for$u20$usize$GT$3cmp17h3d79425c57ffc708E+0x50>
   11ed4: 00 00 a0 e3  	mov	r0, #0
   11ed8: 0b 00 cd e5  	strb	r0, [sp, #11]
   11edc: f6 ff ff ea  	b	#-40 <_ZN4core3cmp5impls50_$LT$impl$u20$core..cmp..Ord$u20$for$u20$usize$GT$3cmp17h3d79425c57ffc708E+0x50>

00011ee0 <_ZN47_$LT$usize$u20$as$u20$core..ops..arith..Sub$GT$3sub17h64ad1807df18bbb0E>:
   11ee0: 10 d0 4d e2  	sub	sp, sp, #16
   11ee4: 08 00 8d e5  	str	r0, [sp, #8]
   11ee8: 0c 10 8d e5  	str	r1, [sp, #12]
   11eec: 01 20 40 e0  	sub	r2, r0, r1
   11ef0: 04 20 8d e5  	str	r2, [sp, #4]
   11ef4: 01 00 50 e1  	cmp	r0, r1
   11ef8: 03 00 00 3a  	blo	#12 <_ZN47_$LT$usize$u20$as$u20$core..ops..arith..Sub$GT$3sub17h64ad1807df18bbb0E+0x2c>
   11efc: ff ff ff ea  	b	#-4 <_ZN47_$LT$usize$u20$as$u20$core..ops..arith..Sub$GT$3sub17h64ad1807df18bbb0E+0x20>
   11f00: 04 00 9d e5  	ldr	r0, [sp, #4]
   11f04: 10 d0 8d e2  	add	sp, sp, #16
   11f08: 1e ff 2f e1  	bx	lr
   11f0c: 0c 00 9f e5  	ldr	r0, [pc, #12]
   11f10: 0c 20 9f e5  	ldr	r2, [pc, #12]
   11f14: 21 10 a0 e3  	mov	r1, #33
   11f18: e5 e7 ff eb  	bl	#-24684 <_ZN4core9panicking5panic17h70f755644c6683e5E>
   11f1c: fe de ff e7  	trap

00011f20 <$d.2338>:
   11f20:	d0 51 01 00	.word	0x000151d0
   11f24:	48 65 01 00	.word	0x00016548

00011f28 <_ZN47_$LT$usize$u20$as$u20$core..ops..arith..Div$GT$3div17h2df646bc9efd9019E>:
   11f28: 10 d0 4d e2  	sub	sp, sp, #16
   11f2c: 00 10 8d e5  	str	r1, [sp]
   11f30: 04 00 8d e5  	str	r0, [sp, #4]
   11f34: 08 00 8d e5  	str	r0, [sp, #8]
   11f38: 0c 10 8d e5  	str	r1, [sp, #12]
   11f3c: 00 00 51 e3  	cmp	r1, #0
   11f40: 04 00 00 0a  	beq	#16 <_ZN47_$LT$usize$u20$as$u20$core..ops..arith..Div$GT$3div17h2df646bc9efd9019E+0x30>
   11f44: ff ff ff ea  	b	#-4 <_ZN47_$LT$usize$u20$as$u20$core..ops..arith..Div$GT$3div17h2df646bc9efd9019E+0x20>
   11f48: 00 10 9d e5  	ldr	r1, [sp]
   11f4c: 04 00 9d e5  	ldr	r0, [sp, #4]
   11f50: 10 d0 8d e2  	add	sp, sp, #16
   11f54: ae 09 00 ea  	b	#9912 <__aeabi_uidiv>
   11f58: 0c 00 9f e5  	ldr	r0, [pc, #12]
   11f5c: 0c 20 9f e5  	ldr	r2, [pc, #12]
   11f60: 19 10 a0 e3  	mov	r1, #25
   11f64: d2 e7 ff eb  	bl	#-24760 <_ZN4core9panicking5panic17h70f755644c6683e5E>
   11f68: fe de ff e7  	trap

00011f6c <$d.2350>:
   11f6c:	50 54 01 00	.word	0x00015450
   11f70:	58 65 01 00	.word	0x00016558

00011f74 <_ZN47_$LT$usize$u20$as$u20$core..ops..arith..Rem$GT$3rem17hed0e05905b88c63fE>:
   11f74: 00 48 2d e9  	push	{r11, lr}
   11f78: 10 d0 4d e2  	sub	sp, sp, #16
   11f7c: 00 10 8d e5  	str	r1, [sp]
   11f80: 04 00 8d e5  	str	r0, [sp, #4]
   11f84: 08 00 8d e5  	str	r0, [sp, #8]
   11f88: 0c 10 8d e5  	str	r1, [sp, #12]
   11f8c: 00 00 51 e3  	cmp	r1, #0
   11f90: 06 00 00 0a  	beq	#24 <_ZN47_$LT$usize$u20$as$u20$core..ops..arith..Rem$GT$3rem17hed0e05905b88c63fE+0x3c>
   11f94: ff ff ff ea  	b	#-4 <_ZN47_$LT$usize$u20$as$u20$core..ops..arith..Rem$GT$3rem17hed0e05905b88c63fE+0x24>
   11f98: 00 10 9d e5  	ldr	r1, [sp]
   11f9c: 04 00 9d e5  	ldr	r0, [sp, #4]
   11fa0: d7 07 00 eb  	bl	#8028 <__aeabi_uidivmod>
   11fa4: 01 00 a0 e1  	mov	r0, r1
   11fa8: 10 d0 8d e2  	add	sp, sp, #16
   11fac: 00 88 bd e8  	pop	{r11, pc}
   11fb0: 0c 00 9f e5  	ldr	r0, [pc, #12]
   11fb4: 0c 20 9f e5  	ldr	r2, [pc, #12]
   11fb8: 39 10 a0 e3  	mov	r1, #57
   11fbc: bc e7 ff eb  	bl	#-24848 <_ZN4core9panicking5panic17h70f755644c6683e5E>
   11fc0: fe de ff e7  	trap

00011fc4 <$d.2362>:
   11fc4:	70 54 01 00	.word	0x00015470
   11fc8:	68 65 01 00	.word	0x00016568

00011fcc <_ZN49_$LT$usize$u20$as$u20$core..iter..range..Step$GT$17forward_unchecked17hc9da2c4e7235d338E>:
   11fcc: 18 d0 4d e2  	sub	sp, sp, #24
   11fd0: 04 00 8d e5  	str	r0, [sp, #4]
   11fd4: 08 10 8d e5  	str	r1, [sp, #8]
   11fd8: 0c 00 8d e5  	str	r0, [sp, #12]
   11fdc: 10 10 8d e5  	str	r1, [sp, #16]
   11fe0: 01 00 80 e0  	add	r0, r0, r1
   11fe4: 14 00 8d e5  	str	r0, [sp, #20]
   11fe8: 14 00 9d e5  	ldr	r0, [sp, #20]
   11fec: 00 00 8d e5  	str	r0, [sp]
   11ff0: ff ff ff ea  	b	#-4 <_ZN49_$LT$usize$u20$as$u20$core..iter..range..Step$GT$17forward_unchecked17hc9da2c4e7235d338E+0x28>
   11ff4: 00 00 9d e5  	ldr	r0, [sp]
   11ff8: 18 d0 8d e2  	add	sp, sp, #24
   11ffc: 1e ff 2f e1  	bx	lr

00012000 <_ZN56_$LT$usize$u20$as$u20$core..iter..traits..accum..Sum$GT$3sum17h175bd0e46bcbfc09E>:
   12000: 00 48 2d e9  	push	{r11, lr}
   12004: 10 d0 4d e2  	sub	sp, sp, #16
   12008: 08 00 8d e5  	str	r0, [sp, #8]
   1200c: 0c 10 8d e5  	str	r1, [sp, #12]
   12010: 00 20 a0 e3  	mov	r2, #0
   12014: de e4 ff eb  	bl	#-27784 <_ZN102_$LT$core..iter..adapters..map..Map$LT$I$C$F$GT$$u20$as$u20$core..iter..traits..iterator..Iterator$GT$4fold17h1864fdb0ab936070E>
   12018: 04 00 8d e5  	str	r0, [sp, #4]
   1201c: ff ff ff ea  	b	#-4 <_ZN56_$LT$usize$u20$as$u20$core..iter..traits..accum..Sum$GT$3sum17h175bd0e46bcbfc09E+0x20>
   12020: 04 00 9d e5  	ldr	r0, [sp, #4]
   12024: 10 d0 8d e2  	add	sp, sp, #16
   12028: 00 88 bd e8  	pop	{r11, pc}

0001202c <_ZN56_$LT$usize$u20$as$u20$core..iter..traits..accum..Sum$GT$3sum28_$u7b$$u7b$closure$u7d$$u7d$17h354570db4f1bd5a0E>:
   1202c: 10 d0 4d e2  	sub	sp, sp, #16
   12030: 04 00 8d e5  	str	r0, [sp, #4]
   12034: 08 10 8d e5  	str	r1, [sp, #8]
   12038: 0c 20 8d e5  	str	r2, [sp, #12]
   1203c: 02 00 81 e0  	add	r0, r1, r2
   12040: 00 00 8d e5  	str	r0, [sp]
   12044: 01 00 50 e1  	cmp	r0, r1
   12048: 03 00 00 3a  	blo	#12 <_ZN56_$LT$usize$u20$as$u20$core..iter..traits..accum..Sum$GT$3sum28_$u7b$$u7b$closure$u7d$$u7d$17h354570db4f1bd5a0E+0x30>
   1204c: ff ff ff ea  	b	#-4 <_ZN56_$LT$usize$u20$as$u20$core..iter..traits..accum..Sum$GT$3sum28_$u7b$$u7b$closure$u7d$$u7d$17h354570db4f1bd5a0E+0x24>
   12050: 00 00 9d e5  	ldr	r0, [sp]
   12054: 10 d0 8d e2  	add	sp, sp, #16
   12058: 1e ff 2f e1  	bx	lr
   1205c: 0c 00 9f e5  	ldr	r0, [pc, #12]
   12060: 0c 20 9f e5  	ldr	r2, [pc, #12]
   12064: 1c 10 a0 e3  	mov	r1, #28
   12068: 91 e7 ff eb  	bl	#-25020 <_ZN4core9panicking5panic17h70f755644c6683e5E>
   1206c: fe de ff e7  	trap

00012070 <$d.2469>:
   12070:	00 52 01 00	.word	0x00015200
   12074:	f8 65 01 00	.word	0x000165f8

00012078 <_ZN49_$LT$u8$u20$as$u20$core..fmt..num..DisplayInt$GT$6to_u3217h4b043bbad09ceab7E>:
   12078: 04 d0 4d e2  	sub	sp, sp, #4
   1207c: 00 00 8d e5  	str	r0, [sp]
   12080: 00 00 d0 e5  	ldrb	r0, [r0]
   12084: 04 d0 8d e2  	add	sp, sp, #4
   12088: 1e ff 2f e1  	bx	lr

0001208c <_ZN52_$LT$usize$u20$as$u20$core..fmt..num..DisplayInt$GT$4zero17h71a2b1b2c5062d51E>:
   1208c: 00 00 a0 e3  	mov	r0, #0
   12090: 1e ff 2f e1  	bx	lr

00012094 <_ZN52_$LT$usize$u20$as$u20$core..fmt..num..DisplayInt$GT$7from_u817h534d523d1617fc6eE>:
   12094: 04 d0 4d e2  	sub	sp, sp, #4
   12098: 03 00 cd e5  	strb	r0, [sp, #3]
   1209c: 70 00 ef e6  	uxtb	r0, r0
   120a0: 04 d0 8d e2  	add	sp, sp, #4
   120a4: 1e ff 2f e1  	bx	lr

000120a8 <_ZN52_$LT$usize$u20$as$u20$core..fmt..num..DisplayInt$GT$5to_u817hc1b2240e79eebfa1E>:
   120a8: 04 d0 4d e2  	sub	sp, sp, #4
   120ac: 00 00 8d e5  	str	r0, [sp]
   120b0: 00 00 90 e5  	ldr	r0, [r0]
   120b4: 04 d0 8d e2  	add	sp, sp, #4
   120b8: 1e ff 2f e1  	bx	lr

000120bc <_ZN52_$LT$usize$u20$as$u20$core..fmt..num..DisplayInt$GT$6to_u3217hfd0c5150a38d32f4E>:
   120bc: 04 d0 4d e2  	sub	sp, sp, #4
   120c0: 00 00 8d e5  	str	r0, [sp]
   120c4: 00 00 90 e5  	ldr	r0, [r0]
   120c8: 04 d0 8d e2  	add	sp, sp, #4
   120cc: 1e ff 2f e1  	bx	lr

000120d0 <_ZN73_$LT$core..fmt..num..LowerHex$u20$as$u20$core..fmt..num..GenericRadix$GT$5digit17hb059fe59c40e6289E>:
   120d0: 00 48 2d e9  	push	{r11, lr}
   120d4: 58 d0 4d e2  	sub	sp, sp, #88
   120d8: 00 10 a0 e1  	mov	r1, r0
   120dc: 24 10 8d e5  	str	r1, [sp, #36]
   120e0: 55 00 cd e5  	strb	r0, [sp, #85]
   120e4: 01 00 a0 e3  	mov	r0, #1
   120e8: 00 00 50 e3  	cmp	r0, #0
   120ec: 05 00 00 1a  	bne	#20 <_ZN73_$LT$core..fmt..num..LowerHex$u20$as$u20$core..fmt..num..GenericRadix$GT$5digit17hb059fe59c40e6289E+0x38>
   120f0: ff ff ff ea  	b	#-4 <_ZN73_$LT$core..fmt..num..LowerHex$u20$as$u20$core..fmt..num..GenericRadix$GT$5digit17hb059fe59c40e6289E+0x24>
   120f4: 24 00 9d e5  	ldr	r0, [sp, #36]
   120f8: 70 00 ef e6  	uxtb	r0, r0
   120fc: 09 00 50 e3  	cmp	r0, #9
   12100: 21 00 00 8a  	bhi	#132 <_ZN73_$LT$core..fmt..num..LowerHex$u20$as$u20$core..fmt..num..GenericRadix$GT$5digit17hb059fe59c40e6289E+0xbc>
   12104: 19 00 00 ea  	b	#100 <_ZN73_$LT$core..fmt..num..LowerHex$u20$as$u20$core..fmt..num..GenericRadix$GT$5digit17hb059fe59c40e6289E+0xa0>
   12108: 24 00 9d e5  	ldr	r0, [sp, #36]
   1210c: 70 00 ef e6  	uxtb	r0, r0
   12110: 09 00 50 e3  	cmp	r0, #9
   12114: f6 ff ff 8a  	bhi	#-40 <_ZN73_$LT$core..fmt..num..LowerHex$u20$as$u20$core..fmt..num..GenericRadix$GT$5digit17hb059fe59c40e6289E+0x24>
   12118: ff ff ff ea  	b	#-4 <_ZN73_$LT$core..fmt..num..LowerHex$u20$as$u20$core..fmt..num..GenericRadix$GT$5digit17hb059fe59c40e6289E+0x4c>
   1211c: 24 10 9d e5  	ldr	r1, [sp, #36]
   12120: 56 10 cd e5  	strb	r1, [sp, #86]
   12124: 30 00 a0 e3  	mov	r0, #48
   12128: 71 10 e0 e6  	uxtab	r1, r0, r1
   1212c: 71 00 ef e6  	uxtb	r0, r1
   12130: 01 20 a0 e1  	mov	r2, r1
   12134: 20 20 8d e5  	str	r2, [sp, #32]
   12138: 01 00 50 e1  	cmp	r0, r1
   1213c: 03 00 00 1a  	bne	#12 <_ZN73_$LT$core..fmt..num..LowerHex$u20$as$u20$core..fmt..num..GenericRadix$GT$5digit17hb059fe59c40e6289E+0x80>
   12140: ff ff ff ea  	b	#-4 <_ZN73_$LT$core..fmt..num..LowerHex$u20$as$u20$core..fmt..num..GenericRadix$GT$5digit17hb059fe59c40e6289E+0x74>
   12144: 20 00 9d e5  	ldr	r0, [sp, #32]
   12148: 2a 00 cd e5  	strb	r0, [sp, #42]
   1214c: 04 00 00 ea  	b	#16 <_ZN73_$LT$core..fmt..num..LowerHex$u20$as$u20$core..fmt..num..GenericRadix$GT$5digit17hb059fe59c40e6289E+0x94>
   12150: 38 01 9f e5  	ldr	r0, [pc, #312]
   12154: 44 21 9f e5  	ldr	r2, [pc, #324]
   12158: 1c 10 a0 e3  	mov	r1, #28
   1215c: 54 e7 ff eb  	bl	#-25264 <_ZN4core9panicking5panic17h70f755644c6683e5E>
   12160: fe de ff e7  	trap
   12164: 2a 00 dd e5  	ldrb	r0, [sp, #42]
   12168: 58 d0 8d e2  	add	sp, sp, #88
   1216c: 00 88 bd e8  	pop	{r11, pc}
   12170: 24 00 9d e5  	ldr	r0, [sp, #36]
   12174: 2b 00 cd e5  	strb	r0, [sp, #43]
   12178: 04 01 9f e5  	ldr	r0, [pc, #260]
   1217c: 03 03 00 eb  	bl	#3084 <_ZN4core3fmt10ArgumentV111new_display17h667da9250b75896aE>
   12180: 18 00 8d e5  	str	r0, [sp, #24]
   12184: 1c 10 8d e5  	str	r1, [sp, #28]
   12188: 24 00 00 ea  	b	#144 <_ZN73_$LT$core..fmt..num..LowerHex$u20$as$u20$core..fmt..num..GenericRadix$GT$5digit17hb059fe59c40e6289E+0x150>
   1218c: 24 00 9d e5  	ldr	r0, [sp, #36]
   12190: 70 00 ef e6  	uxtb	r0, r0
   12194: 0f 00 50 e3  	cmp	r0, #15
   12198: f4 ff ff 8a  	bhi	#-48 <_ZN73_$LT$core..fmt..num..LowerHex$u20$as$u20$core..fmt..num..GenericRadix$GT$5digit17hb059fe59c40e6289E+0xa0>
   1219c: ff ff ff ea  	b	#-4 <_ZN73_$LT$core..fmt..num..LowerHex$u20$as$u20$core..fmt..num..GenericRadix$GT$5digit17hb059fe59c40e6289E+0xd0>
   121a0: 24 10 9d e5  	ldr	r1, [sp, #36]
   121a4: 57 10 cd e5  	strb	r1, [sp, #87]
   121a8: 09 00 e0 e3  	mvn	r0, #9
   121ac: 71 10 e0 e6  	uxtab	r1, r0, r1
   121b0: 71 00 ef e6  	uxtb	r0, r1
   121b4: 01 20 a0 e1  	mov	r2, r1
   121b8: 14 20 8d e5  	str	r2, [sp, #20]
   121bc: 01 00 50 e1  	cmp	r0, r1
   121c0: 09 00 00 1a  	bne	#36 <_ZN73_$LT$core..fmt..num..LowerHex$u20$as$u20$core..fmt..num..GenericRadix$GT$5digit17hb059fe59c40e6289E+0x11c>
   121c4: ff ff ff ea  	b	#-4 <_ZN73_$LT$core..fmt..num..LowerHex$u20$as$u20$core..fmt..num..GenericRadix$GT$5digit17hb059fe59c40e6289E+0xf8>
   121c8: 14 10 9d e5  	ldr	r1, [sp, #20]
   121cc: 61 00 a0 e3  	mov	r0, #97
   121d0: 71 10 e0 e6  	uxtab	r1, r0, r1
   121d4: 71 00 ef e6  	uxtb	r0, r1
   121d8: 01 20 a0 e1  	mov	r2, r1
   121dc: 10 20 8d e5  	str	r2, [sp, #16]
   121e0: 01 00 50 e1  	cmp	r0, r1
   121e4: 08 00 00 1a  	bne	#32 <_ZN73_$LT$core..fmt..num..LowerHex$u20$as$u20$core..fmt..num..GenericRadix$GT$5digit17hb059fe59c40e6289E+0x13c>
   121e8: 04 00 00 ea  	b	#16 <_ZN73_$LT$core..fmt..num..LowerHex$u20$as$u20$core..fmt..num..GenericRadix$GT$5digit17hb059fe59c40e6289E+0x130>
   121ec: a4 00 9f e5  	ldr	r0, [pc, #164]
   121f0: a4 20 9f e5  	ldr	r2, [pc, #164]
   121f4: 21 10 a0 e3  	mov	r1, #33
   121f8: 2d e7 ff eb  	bl	#-25420 <_ZN4core9panicking5panic17h70f755644c6683e5E>
   121fc: fe de ff e7  	trap
   12200: 10 00 9d e5  	ldr	r0, [sp, #16]
   12204: 2a 00 cd e5  	strb	r0, [sp, #42]
   12208: d5 ff ff ea  	b	#-172 <_ZN73_$LT$core..fmt..num..LowerHex$u20$as$u20$core..fmt..num..GenericRadix$GT$5digit17hb059fe59c40e6289E+0x94>
   1220c: 7c 00 9f e5  	ldr	r0, [pc, #124]
   12210: 7c 20 9f e5  	ldr	r2, [pc, #124]
   12214: 1c 10 a0 e3  	mov	r1, #28
   12218: 25 e7 ff eb  	bl	#-25452 <_ZN4core9panicking5panic17h70f755644c6683e5E>
   1221c: fe de ff e7  	trap
   12220: 2b 00 8d e2  	add	r0, sp, #43
   12224: d9 02 00 eb  	bl	#2916 <_ZN4core3fmt10ArgumentV111new_display17h667da9250b75896aE>
   12228: 08 00 8d e5  	str	r0, [sp, #8]
   1222c: 0c 10 8d e5  	str	r1, [sp, #12]
   12230: ff ff ff ea  	b	#-4 <_ZN73_$LT$core..fmt..num..LowerHex$u20$as$u20$core..fmt..num..GenericRadix$GT$5digit17hb059fe59c40e6289E+0x164>
   12234: 0c 00 9d e5  	ldr	r0, [sp, #12]
   12238: 08 10 9d e5  	ldr	r1, [sp, #8]
   1223c: 1c 20 9d e5  	ldr	r2, [sp, #28]
   12240: 18 30 9d e5  	ldr	r3, [sp, #24]
   12244: 44 30 8d e5  	str	r3, [sp, #68]
   12248: 48 20 8d e5  	str	r2, [sp, #72]
   1224c: 4c 10 8d e5  	str	r1, [sp, #76]
   12250: 50 00 8d e5  	str	r0, [sp, #80]
   12254: 0d 00 a0 e1  	mov	r0, sp
   12258: 02 20 a0 e3  	mov	r2, #2
   1225c: 00 20 80 e5  	str	r2, [r0]
   12260: 20 10 9f e5  	ldr	r1, [pc, #32]
   12264: 2c 00 8d e2  	add	r0, sp, #44
   12268: 44 30 8d e2  	add	r3, sp, #68
   1226c: 72 eb ff eb  	bl	#-21048 <_ZN4core3fmt9Arguments6new_v117hd47ebd6f67dc7416E>
   12270: ff ff ff ea  	b	#-4 <_ZN73_$LT$core..fmt..num..LowerHex$u20$as$u20$core..fmt..num..GenericRadix$GT$5digit17hb059fe59c40e6289E+0x1a4>
   12274: 10 10 9f e5  	ldr	r1, [pc, #16]
   12278: 2c 00 8d e2  	add	r0, sp, #44
   1227c: 43 e7 ff eb  	bl	#-25332 <_ZN4core9panicking9panic_fmt17h22cd6c9efa5fe474E>
   12280: fe de ff e7  	trap

00012284 <$d.2629>:
   12284:	64 66 01 00	.word	0x00016664
   12288:	24 66 01 00	.word	0x00016624
   1228c:	68 66 01 00	.word	0x00016668
   12290:	00 52 01 00	.word	0x00015200
   12294:	54 66 01 00	.word	0x00016654
   12298:	d0 51 01 00	.word	0x000151d0
   1229c:	44 66 01 00	.word	0x00016644
   122a0:	34 66 01 00	.word	0x00016634

000122a4 <_ZN73_$LT$core..fmt..num..UpperHex$u20$as$u20$core..fmt..num..GenericRadix$GT$5digit17heaf3f1595d42a858E>:
   122a4: 00 48 2d e9  	push	{r11, lr}
   122a8: 58 d0 4d e2  	sub	sp, sp, #88
   122ac: 00 10 a0 e1  	mov	r1, r0
   122b0: 24 10 8d e5  	str	r1, [sp, #36]
   122b4: 55 00 cd e5  	strb	r0, [sp, #85]
   122b8: 01 00 a0 e3  	mov	r0, #1
   122bc: 00 00 50 e3  	cmp	r0, #0
   122c0: 05 00 00 1a  	bne	#20 <_ZN73_$LT$core..fmt..num..UpperHex$u20$as$u20$core..fmt..num..GenericRadix$GT$5digit17heaf3f1595d42a858E+0x38>
   122c4: ff ff ff ea  	b	#-4 <_ZN73_$LT$core..fmt..num..UpperHex$u20$as$u20$core..fmt..num..GenericRadix$GT$5digit17heaf3f1595d42a858E+0x24>
   122c8: 24 00 9d e5  	ldr	r0, [sp, #36]
   122cc: 70 00 ef e6  	uxtb	r0, r0
   122d0: 09 00 50 e3  	cmp	r0, #9
   122d4: 21 00 00 8a  	bhi	#132 <_ZN73_$LT$core..fmt..num..UpperHex$u20$as$u20$core..fmt..num..GenericRadix$GT$5digit17heaf3f1595d42a858E+0xbc>
   122d8: 19 00 00 ea  	b	#100 <_ZN73_$LT$core..fmt..num..UpperHex$u20$as$u20$core..fmt..num..GenericRadix$GT$5digit17heaf3f1595d42a858E+0xa0>
   122dc: 24 00 9d e5  	ldr	r0, [sp, #36]
   122e0: 70 00 ef e6  	uxtb	r0, r0
   122e4: 09 00 50 e3  	cmp	r0, #9
   122e8: f6 ff ff 8a  	bhi	#-40 <_ZN73_$LT$core..fmt..num..UpperHex$u20$as$u20$core..fmt..num..GenericRadix$GT$5digit17heaf3f1595d42a858E+0x24>
   122ec: ff ff ff ea  	b	#-4 <_ZN73_$LT$core..fmt..num..UpperHex$u20$as$u20$core..fmt..num..GenericRadix$GT$5digit17heaf3f1595d42a858E+0x4c>
   122f0: 24 10 9d e5  	ldr	r1, [sp, #36]
   122f4: 56 10 cd e5  	strb	r1, [sp, #86]
   122f8: 30 00 a0 e3  	mov	r0, #48
   122fc: 71 10 e0 e6  	uxtab	r1, r0, r1
   12300: 71 00 ef e6  	uxtb	r0, r1
   12304: 01 20 a0 e1  	mov	r2, r1
   12308: 20 20 8d e5  	str	r2, [sp, #32]
   1230c: 01 00 50 e1  	cmp	r0, r1
   12310: 03 00 00 1a  	bne	#12 <_ZN73_$LT$core..fmt..num..UpperHex$u20$as$u20$core..fmt..num..GenericRadix$GT$5digit17heaf3f1595d42a858E+0x80>
   12314: ff ff ff ea  	b	#-4 <_ZN73_$LT$core..fmt..num..UpperHex$u20$as$u20$core..fmt..num..GenericRadix$GT$5digit17heaf3f1595d42a858E+0x74>
   12318: 20 00 9d e5  	ldr	r0, [sp, #32]
   1231c: 2a 00 cd e5  	strb	r0, [sp, #42]
   12320: 04 00 00 ea  	b	#16 <_ZN73_$LT$core..fmt..num..UpperHex$u20$as$u20$core..fmt..num..GenericRadix$GT$5digit17heaf3f1595d42a858E+0x94>
   12324: 38 01 9f e5  	ldr	r0, [pc, #312]
   12328: 44 21 9f e5  	ldr	r2, [pc, #324]
   1232c: 1c 10 a0 e3  	mov	r1, #28
   12330: df e6 ff eb  	bl	#-25732 <_ZN4core9panicking5panic17h70f755644c6683e5E>
   12334: fe de ff e7  	trap
   12338: 2a 00 dd e5  	ldrb	r0, [sp, #42]
   1233c: 58 d0 8d e2  	add	sp, sp, #88
   12340: 00 88 bd e8  	pop	{r11, pc}
   12344: 24 00 9d e5  	ldr	r0, [sp, #36]
   12348: 2b 00 cd e5  	strb	r0, [sp, #43]
   1234c: 04 01 9f e5  	ldr	r0, [pc, #260]
   12350: 8e 02 00 eb  	bl	#2616 <_ZN4core3fmt10ArgumentV111new_display17h667da9250b75896aE>
   12354: 18 00 8d e5  	str	r0, [sp, #24]
   12358: 1c 10 8d e5  	str	r1, [sp, #28]
   1235c: 24 00 00 ea  	b	#144 <_ZN73_$LT$core..fmt..num..UpperHex$u20$as$u20$core..fmt..num..GenericRadix$GT$5digit17heaf3f1595d42a858E+0x150>
   12360: 24 00 9d e5  	ldr	r0, [sp, #36]
   12364: 70 00 ef e6  	uxtb	r0, r0
   12368: 0f 00 50 e3  	cmp	r0, #15
   1236c: f4 ff ff 8a  	bhi	#-48 <_ZN73_$LT$core..fmt..num..UpperHex$u20$as$u20$core..fmt..num..GenericRadix$GT$5digit17heaf3f1595d42a858E+0xa0>
   12370: ff ff ff ea  	b	#-4 <_ZN73_$LT$core..fmt..num..UpperHex$u20$as$u20$core..fmt..num..GenericRadix$GT$5digit17heaf3f1595d42a858E+0xd0>
   12374: 24 10 9d e5  	ldr	r1, [sp, #36]
   12378: 57 10 cd e5  	strb	r1, [sp, #87]
   1237c: 09 00 e0 e3  	mvn	r0, #9
   12380: 71 10 e0 e6  	uxtab	r1, r0, r1
   12384: 71 00 ef e6  	uxtb	r0, r1
   12388: 01 20 a0 e1  	mov	r2, r1
   1238c: 14 20 8d e5  	str	r2, [sp, #20]
   12390: 01 00 50 e1  	cmp	r0, r1
   12394: 09 00 00 1a  	bne	#36 <_ZN73_$LT$core..fmt..num..UpperHex$u20$as$u20$core..fmt..num..GenericRadix$GT$5digit17heaf3f1595d42a858E+0x11c>
   12398: ff ff ff ea  	b	#-4 <_ZN73_$LT$core..fmt..num..UpperHex$u20$as$u20$core..fmt..num..GenericRadix$GT$5digit17heaf3f1595d42a858E+0xf8>
   1239c: 14 10 9d e5  	ldr	r1, [sp, #20]
   123a0: 41 00 a0 e3  	mov	r0, #65
   123a4: 71 10 e0 e6  	uxtab	r1, r0, r1
   123a8: 71 00 ef e6  	uxtb	r0, r1
   123ac: 01 20 a0 e1  	mov	r2, r1
   123b0: 10 20 8d e5  	str	r2, [sp, #16]
   123b4: 01 00 50 e1  	cmp	r0, r1
   123b8: 08 00 00 1a  	bne	#32 <_ZN73_$LT$core..fmt..num..UpperHex$u20$as$u20$core..fmt..num..GenericRadix$GT$5digit17heaf3f1595d42a858E+0x13c>
   123bc: 04 00 00 ea  	b	#16 <_ZN73_$LT$core..fmt..num..UpperHex$u20$as$u20$core..fmt..num..GenericRadix$GT$5digit17heaf3f1595d42a858E+0x130>
   123c0: a4 00 9f e5  	ldr	r0, [pc, #164]
   123c4: a4 20 9f e5  	ldr	r2, [pc, #164]
   123c8: 21 10 a0 e3  	mov	r1, #33
   123cc: b8 e6 ff eb  	bl	#-25888 <_ZN4core9panicking5panic17h70f755644c6683e5E>
   123d0: fe de ff e7  	trap
   123d4: 10 00 9d e5  	ldr	r0, [sp, #16]
   123d8: 2a 00 cd e5  	strb	r0, [sp, #42]
   123dc: d5 ff ff ea  	b	#-172 <_ZN73_$LT$core..fmt..num..UpperHex$u20$as$u20$core..fmt..num..GenericRadix$GT$5digit17heaf3f1595d42a858E+0x94>
   123e0: 7c 00 9f e5  	ldr	r0, [pc, #124]
   123e4: 7c 20 9f e5  	ldr	r2, [pc, #124]
   123e8: 1c 10 a0 e3  	mov	r1, #28
   123ec: b0 e6 ff eb  	bl	#-25920 <_ZN4core9panicking5panic17h70f755644c6683e5E>
   123f0: fe de ff e7  	trap
   123f4: 2b 00 8d e2  	add	r0, sp, #43
   123f8: 64 02 00 eb  	bl	#2448 <_ZN4core3fmt10ArgumentV111new_display17h667da9250b75896aE>
   123fc: 08 00 8d e5  	str	r0, [sp, #8]
   12400: 0c 10 8d e5  	str	r1, [sp, #12]
   12404: ff ff ff ea  	b	#-4 <_ZN73_$LT$core..fmt..num..UpperHex$u20$as$u20$core..fmt..num..GenericRadix$GT$5digit17heaf3f1595d42a858E+0x164>
   12408: 0c 00 9d e5  	ldr	r0, [sp, #12]
   1240c: 08 10 9d e5  	ldr	r1, [sp, #8]
   12410: 1c 20 9d e5  	ldr	r2, [sp, #28]
   12414: 18 30 9d e5  	ldr	r3, [sp, #24]
   12418: 44 30 8d e5  	str	r3, [sp, #68]
   1241c: 48 20 8d e5  	str	r2, [sp, #72]
   12420: 4c 10 8d e5  	str	r1, [sp, #76]
   12424: 50 00 8d e5  	str	r0, [sp, #80]
   12428: 0d 00 a0 e1  	mov	r0, sp
   1242c: 02 20 a0 e3  	mov	r2, #2
   12430: 00 20 80 e5  	str	r2, [r0]
   12434: 20 10 9f e5  	ldr	r1, [pc, #32]
   12438: 2c 00 8d e2  	add	r0, sp, #44
   1243c: 44 30 8d e2  	add	r3, sp, #68
   12440: fd ea ff eb  	bl	#-21516 <_ZN4core3fmt9Arguments6new_v117hd47ebd6f67dc7416E>
   12444: ff ff ff ea  	b	#-4 <_ZN73_$LT$core..fmt..num..UpperHex$u20$as$u20$core..fmt..num..GenericRadix$GT$5digit17heaf3f1595d42a858E+0x1a4>
   12448: 10 10 9f e5  	ldr	r1, [pc, #16]
   1244c: 2c 00 8d e2  	add	r0, sp, #44
   12450: ce e6 ff eb  	bl	#-25800 <_ZN4core9panicking9panic_fmt17h22cd6c9efa5fe474E>
   12454: fe de ff e7  	trap

00012458 <$d.2631>:
   12458:	64 66 01 00	.word	0x00016664
   1245c:	24 66 01 00	.word	0x00016624
   12460:	a8 66 01 00	.word	0x000166a8
   12464:	00 52 01 00	.word	0x00015200
   12468:	98 66 01 00	.word	0x00016698
   1246c:	d0 51 01 00	.word	0x000151d0
   12470:	88 66 01 00	.word	0x00016688
   12474:	78 66 01 00	.word	0x00016678

00012478 <_ZN4core3fmt3num55_$LT$impl$u20$core..fmt..LowerHex$u20$for$u20$usize$GT$3fmt17h82b1da44512da453E>:
   12478: 00 48 2d e9  	push	{r11, lr}
   1247c: 10 d0 4d e2  	sub	sp, sp, #16
   12480: 01 20 a0 e1  	mov	r2, r1
   12484: 08 00 8d e5  	str	r0, [sp, #8]
   12488: 0c 20 8d e5  	str	r2, [sp, #12]
   1248c: 00 10 90 e5  	ldr	r1, [r0]
   12490: 18 00 9f e5  	ldr	r0, [pc, #24]
   12494: 22 e9 ff eb  	bl	#-23416 <_ZN4core3fmt3num12GenericRadix7fmt_int17h51ec0ad097deb597E>
   12498: 04 00 8d e5  	str	r0, [sp, #4]
   1249c: ff ff ff ea  	b	#-4 <_ZN4core3fmt3num55_$LT$impl$u20$core..fmt..LowerHex$u20$for$u20$usize$GT$3fmt17h82b1da44512da453E+0x28>
   124a0: 04 00 9d e5  	ldr	r0, [sp, #4]
   124a4: 01 00 00 e2  	and	r0, r0, #1
   124a8: 10 d0 8d e2  	add	sp, sp, #16
   124ac: 00 88 bd e8  	pop	{r11, pc}

000124b0 <$d.2645>:
   124b0:	38 55 01 00	.word	0x00015538

000124b4 <_ZN4core3fmt3num55_$LT$impl$u20$core..fmt..UpperHex$u20$for$u20$usize$GT$3fmt17h1d5a8f33dd1750ccE>:
   124b4: 00 48 2d e9  	push	{r11, lr}
   124b8: 10 d0 4d e2  	sub	sp, sp, #16
   124bc: 01 20 a0 e1  	mov	r2, r1
   124c0: 08 00 8d e5  	str	r0, [sp, #8]
   124c4: 0c 20 8d e5  	str	r2, [sp, #12]
   124c8: 00 10 90 e5  	ldr	r1, [r0]
   124cc: 18 00 9f e5  	ldr	r0, [pc, #24]
   124d0: f1 e7 ff eb  	bl	#-24636 <_ZN4core3fmt3num12GenericRadix7fmt_int17h3d51f26de88d8bbeE>
   124d4: 04 00 8d e5  	str	r0, [sp, #4]
   124d8: ff ff ff ea  	b	#-4 <_ZN4core3fmt3num55_$LT$impl$u20$core..fmt..UpperHex$u20$for$u20$usize$GT$3fmt17h1d5a8f33dd1750ccE+0x28>
   124dc: 04 00 9d e5  	ldr	r0, [sp, #4]
   124e0: 01 00 00 e2  	and	r0, r0, #1
   124e4: 10 d0 8d e2  	add	sp, sp, #16
   124e8: 00 88 bd e8  	pop	{r11, pc}

000124ec <$d.2647>:
   124ec:	38 55 01 00	.word	0x00015538

000124f0 <_ZN4core3fmt3num52_$LT$impl$u20$core..fmt..Debug$u20$for$u20$usize$GT$3fmt17h8f80d87d397c4613E>:
   124f0: 00 48 2d e9  	push	{r11, lr}
   124f4: 20 d0 4d e2  	sub	sp, sp, #32
   124f8: 08 10 8d e5  	str	r1, [sp, #8]
   124fc: 00 10 a0 e1  	mov	r1, r0
   12500: 08 00 9d e5  	ldr	r0, [sp, #8]
   12504: 0c 10 8d e5  	str	r1, [sp, #12]
   12508: 18 10 8d e5  	str	r1, [sp, #24]
   1250c: 1c 00 8d e5  	str	r0, [sp, #28]
   12510: b6 f0 ff eb  	bl	#-15656 <_ZN4core3fmt9Formatter15debug_lower_hex17hc7b3d5e43f482770E>
   12514: 10 00 8d e5  	str	r0, [sp, #16]
   12518: ff ff ff ea  	b	#-4 <_ZN4core3fmt3num52_$LT$impl$u20$core..fmt..Debug$u20$for$u20$usize$GT$3fmt17h8f80d87d397c4613E+0x2c>
   1251c: 10 00 9d e5  	ldr	r0, [sp, #16]
   12520: 01 00 10 e3  	tst	r0, #1
   12524: 04 00 00 1a  	bne	#16 <_ZN4core3fmt3num52_$LT$impl$u20$core..fmt..Debug$u20$for$u20$usize$GT$3fmt17h8f80d87d397c4613E+0x4c>
   12528: ff ff ff ea  	b	#-4 <_ZN4core3fmt3num52_$LT$impl$u20$core..fmt..Debug$u20$for$u20$usize$GT$3fmt17h8f80d87d397c4613E+0x3c>
   1252c: 08 00 9d e5  	ldr	r0, [sp, #8]
   12530: b5 f0 ff eb  	bl	#-15660 <_ZN4core3fmt9Formatter15debug_upper_hex17hda32311426943d1cE>
   12534: 04 00 8d e5  	str	r0, [sp, #4]
   12538: 07 00 00 ea  	b	#28 <_ZN4core3fmt3num52_$LT$impl$u20$core..fmt..Debug$u20$for$u20$usize$GT$3fmt17h8f80d87d397c4613E+0x6c>
   1253c: 08 10 9d e5  	ldr	r1, [sp, #8]
   12540: 0c 00 9d e5  	ldr	r0, [sp, #12]
   12544: cb ff ff eb  	bl	#-212 <_ZN4core3fmt3num55_$LT$impl$u20$core..fmt..LowerHex$u20$for$u20$usize$GT$3fmt17h82b1da44512da453E>
   12548: 17 00 cd e5  	strb	r0, [sp, #23]
   1254c: ff ff ff ea  	b	#-4 <_ZN4core3fmt3num52_$LT$impl$u20$core..fmt..Debug$u20$for$u20$usize$GT$3fmt17h8f80d87d397c4613E+0x60>
   12550: 17 00 dd e5  	ldrb	r0, [sp, #23]
   12554: 20 d0 8d e2  	add	sp, sp, #32
   12558: 00 88 bd e8  	pop	{r11, pc}
   1255c: 04 00 9d e5  	ldr	r0, [sp, #4]
   12560: 01 00 10 e3  	tst	r0, #1
   12564: 05 00 00 1a  	bne	#20 <_ZN4core3fmt3num52_$LT$impl$u20$core..fmt..Debug$u20$for$u20$usize$GT$3fmt17h8f80d87d397c4613E+0x90>
   12568: ff ff ff ea  	b	#-4 <_ZN4core3fmt3num52_$LT$impl$u20$core..fmt..Debug$u20$for$u20$usize$GT$3fmt17h8f80d87d397c4613E+0x7c>
   1256c: 08 10 9d e5  	ldr	r1, [sp, #8]
   12570: 0c 00 9d e5  	ldr	r0, [sp, #12]
   12574: c3 01 00 eb  	bl	#1804 <_ZN4core3fmt3num3imp54_$LT$impl$u20$core..fmt..Display$u20$for$u20$usize$GT$3fmt17he15d94aa45306f36E>
   12578: 17 00 cd e5  	strb	r0, [sp, #23]
   1257c: f3 ff ff ea  	b	#-52 <_ZN4core3fmt3num52_$LT$impl$u20$core..fmt..Debug$u20$for$u20$usize$GT$3fmt17h8f80d87d397c4613E+0x60>
   12580: 08 10 9d e5  	ldr	r1, [sp, #8]
   12584: 0c 00 9d e5  	ldr	r0, [sp, #12]
   12588: c9 ff ff eb  	bl	#-220 <_ZN4core3fmt3num55_$LT$impl$u20$core..fmt..UpperHex$u20$for$u20$usize$GT$3fmt17h1d5a8f33dd1750ccE>
   1258c: 17 00 cd e5  	strb	r0, [sp, #23]
   12590: ee ff ff ea  	b	#-72 <_ZN4core3fmt3num52_$LT$impl$u20$core..fmt..Debug$u20$for$u20$usize$GT$3fmt17h8f80d87d397c4613E+0x60>

00012594 <_ZN4core3fmt3num3imp7fmt_u3217h9e0b25e1b2d1183fE>:
   12594: 00 48 2d e9  	push	{r11, lr}
   12598: 5e df 4d e2  	sub	sp, sp, #376
   1259c: 88 20 8d e5  	str	r2, [sp, #136]
   125a0: 01 30 a0 e1  	mov	r3, r1
   125a4: 8c 30 8d e5  	str	r3, [sp, #140]
   125a8: 94 00 8d e5  	str	r0, [sp, #148]
   125ac: cb 10 cd e5  	strb	r1, [sp, #203]
   125b0: cc 20 8d e5  	str	r2, [sp, #204]
   125b4: f7 00 dd e5  	ldrb	r0, [sp, #247]
   125b8: 90 00 8d e5  	str	r0, [sp, #144]
   125bc: ff ff ff ea  	b	#-4 <_ZN4core3fmt3num3imp7fmt_u3217h9e0b25e1b2d1183fE+0x2c>
   125c0: 90 00 9d e5  	ldr	r0, [sp, #144]
   125c4: 70 20 ef e6  	uxtb	r2, r0
   125c8: 99 00 8d e2  	add	r0, sp, #153
   125cc: 7c 00 8d e5  	str	r0, [sp, #124]
   125d0: 27 10 a0 e3  	mov	r1, #39
   125d4: 80 10 8d e5  	str	r1, [sp, #128]
   125d8: 97 06 00 eb  	bl	#6748 <__aeabi_memset>
   125dc: 7c 00 9d e5  	ldr	r0, [sp, #124]
   125e0: 80 10 9d e5  	ldr	r1, [sp, #128]
   125e4: c0 10 8d e5  	str	r1, [sp, #192]
   125e8: f8 00 8d e5  	str	r0, [sp, #248]
   125ec: fc 10 8d e5  	str	r1, [sp, #252]
   125f0: 07 f6 ff eb  	bl	#-10212 <_ZN4core5slice29_$LT$impl$u20$$u5b$T$u5d$$GT$10as_mut_ptr17h0d88c70547a3eecaE>
   125f4: 00 10 a0 e1  	mov	r1, r0
   125f8: 84 10 8d e5  	str	r1, [sp, #132]
   125fc: d0 00 8d e5  	str	r0, [sp, #208]
   12600: ff ff ff ea  	b	#-4 <_ZN4core3fmt3num3imp7fmt_u3217h9e0b25e1b2d1183fE+0x70>
   12604: b8 05 9f e5  	ldr	r0, [pc, #1464]
   12608: 00 00 90 e5  	ldr	r0, [r0]
   1260c: c8 10 a0 e3  	mov	r1, #200
   12610: fa f5 ff eb  	bl	#-10264 <_ZN4core5slice29_$LT$impl$u20$$u5b$T$u5d$$GT$6as_ptr17he76bcbec392c544eE>
   12614: 00 10 a0 e1  	mov	r1, r0
   12618: 78 10 8d e5  	str	r1, [sp, #120]
   1261c: d4 00 8d e5  	str	r0, [sp, #212]
   12620: ff ff ff ea  	b	#-4 <_ZN4core3fmt3num3imp7fmt_u3217h9e0b25e1b2d1183fE+0x90>
   12624: ff ff ff ea  	b	#-4 <_ZN4core3fmt3num3imp7fmt_u3217h9e0b25e1b2d1183fE+0x94>
   12628: 00 00 a0 e3  	mov	r0, #0
   1262c: 00 00 50 e3  	cmp	r0, #0
   12630: 06 00 00 1a  	bne	#24 <_ZN4core3fmt3num3imp7fmt_u3217h9e0b25e1b2d1183fE+0xbc>
   12634: ff ff ff ea  	b	#-4 <_ZN4core3fmt3num3imp7fmt_u3217h9e0b25e1b2d1183fE+0xa4>
   12638: 94 00 9d e5  	ldr	r0, [sp, #148]
   1263c: 0f 10 a0 e3  	mov	r1, #15
   12640: 27 1c 81 e3  	orr	r1, r1, #9984
   12644: 01 00 50 e1  	cmp	r0, r1
   12648: 0b 00 00 8a  	bhi	#44 <_ZN4core3fmt3num3imp7fmt_u3217h9e0b25e1b2d1183fE+0xe8>
   1264c: 04 00 00 ea  	b	#16 <_ZN4core3fmt3num3imp7fmt_u3217h9e0b25e1b2d1183fE+0xd0>
   12650: 90 05 9f e5  	ldr	r0, [pc, #1424]
   12654: 74 25 9f e5  	ldr	r2, [pc, #1396]
   12658: 33 10 a0 e3  	mov	r1, #51
   1265c: 14 e6 ff eb  	bl	#-26544 <_ZN4core9panicking5panic17h70f755644c6683e5E>
   12660: fe de ff e7  	trap
   12664: 94 00 9d e5  	ldr	r0, [sp, #148]
   12668: c4 00 8d e5  	str	r0, [sp, #196]
   1266c: c4 00 9d e5  	ldr	r0, [sp, #196]
   12670: 63 00 50 e3  	cmp	r0, #99
   12674: 81 00 00 ca  	bgt	#516 <_ZN4core3fmt3num3imp7fmt_u3217h9e0b25e1b2d1183fE+0x2ec>
   12678: 7c 00 00 ea  	b	#496 <_ZN4core3fmt3num3imp7fmt_u3217h9e0b25e1b2d1183fE+0x2dc>
   1267c: 94 00 9d e5  	ldr	r0, [sp, #148]
   12680: 5c 15 9f e5  	ldr	r1, [pc, #1372]
   12684: 90 31 82 e0  	umull	r3, r2, r0, r1
   12688: a2 26 a0 e1  	lsr	r2, r2, #13
   1268c: 71 3e a0 e3  	mov	r3, #1808
   12690: 02 3a 83 e3  	orr	r3, r3, #8192
   12694: 92 03 02 e0  	mul	r2, r2, r3
   12698: 02 00 40 e0  	sub	r0, r0, r2
   1269c: 74 00 8d e5  	str	r0, [sp, #116]
   126a0: d8 00 8d e5  	str	r0, [sp, #216]
   126a4: 94 00 9d e5  	ldr	r0, [sp, #148]
   126a8: 90 11 80 e0  	umull	r1, r0, r0, r1
   126ac: a0 06 a0 e1  	lsr	r0, r0, #13
   126b0: 94 00 8d e5  	str	r0, [sp, #148]
   126b4: 00 00 a0 e3  	mov	r0, #0
   126b8: 00 00 50 e3  	cmp	r0, #0
   126bc: 08 00 00 1a  	bne	#32 <_ZN4core3fmt3num3imp7fmt_u3217h9e0b25e1b2d1183fE+0x150>
   126c0: ff ff ff ea  	b	#-4 <_ZN4core3fmt3num3imp7fmt_u3217h9e0b25e1b2d1183fE+0x130>
   126c4: 74 00 9d e5  	ldr	r0, [sp, #116]
   126c8: f8 14 9f e5  	ldr	r1, [pc, #1272]
   126cc: 10 f1 51 e7  	smmul	r1, r0, r1
   126d0: c1 02 a0 e1  	asr	r0, r1, #5
   126d4: a1 0f 80 e0  	add	r0, r0, r1, lsr #31
   126d8: 80 00 a0 e1  	lsl	r0, r0, #1
   126dc: 70 00 8d e5  	str	r0, [sp, #112]
   126e0: 04 00 00 ea  	b	#16 <_ZN4core3fmt3num3imp7fmt_u3217h9e0b25e1b2d1183fE+0x164>
   126e4: f0 04 9f e5  	ldr	r0, [pc, #1264]
   126e8: e0 24 9f e5  	ldr	r2, [pc, #1248]
   126ec: 1f 10 a0 e3  	mov	r1, #31
   126f0: ef e5 ff eb  	bl	#-26692 <_ZN4core9panicking5panic17h70f755644c6683e5E>
   126f4: fe de ff e7  	trap
   126f8: 70 00 9d e5  	ldr	r0, [sp, #112]
   126fc: dc 00 8d e5  	str	r0, [sp, #220]
   12700: 00 00 a0 e3  	mov	r0, #0
   12704: 00 00 50 e3  	cmp	r0, #0
   12708: 0b 00 00 1a  	bne	#44 <_ZN4core3fmt3num3imp7fmt_u3217h9e0b25e1b2d1183fE+0x1a8>
   1270c: ff ff ff ea  	b	#-4 <_ZN4core3fmt3num3imp7fmt_u3217h9e0b25e1b2d1183fE+0x17c>
   12710: 74 00 9d e5  	ldr	r0, [sp, #116]
   12714: ac 14 9f e5  	ldr	r1, [pc, #1196]
   12718: 10 f1 52 e7  	smmul	r2, r0, r1
   1271c: c2 12 a0 e1  	asr	r1, r2, #5
   12720: a2 1f 81 e0  	add	r1, r1, r2, lsr #31
   12724: 64 20 a0 e3  	mov	r2, #100
   12728: 91 02 01 e0  	mul	r1, r1, r2
   1272c: 01 00 40 e0  	sub	r0, r0, r1
   12730: 80 00 a0 e1  	lsl	r0, r0, #1
   12734: 6c 00 8d e5  	str	r0, [sp, #108]
   12738: 04 00 00 ea  	b	#16 <_ZN4core3fmt3num3imp7fmt_u3217h9e0b25e1b2d1183fE+0x1bc>
   1273c: 9c 04 9f e5  	ldr	r0, [pc, #1180]
   12740: 88 24 9f e5  	ldr	r2, [pc, #1160]
   12744: 30 10 a0 e3  	mov	r1, #48
   12748: d9 e5 ff eb  	bl	#-26780 <_ZN4core9panicking5panic17h70f755644c6683e5E>
   1274c: fe de ff e7  	trap
   12750: 6c 00 9d e5  	ldr	r0, [sp, #108]
   12754: e0 00 8d e5  	str	r0, [sp, #224]
   12758: c0 10 9d e5  	ldr	r1, [sp, #192]
   1275c: 04 00 41 e2  	sub	r0, r1, #4
   12760: 68 00 8d e5  	str	r0, [sp, #104]
   12764: 01 00 50 e1  	cmp	r0, r1
   12768: 0b 00 00 6a  	bvs	#44 <_ZN4core3fmt3num3imp7fmt_u3217h9e0b25e1b2d1183fE+0x208>
   1276c: ff ff ff ea  	b	#-4 <_ZN4core3fmt3num3imp7fmt_u3217h9e0b25e1b2d1183fE+0x1dc>
   12770: 78 00 9d e5  	ldr	r0, [sp, #120]
   12774: 70 10 9d e5  	ldr	r1, [sp, #112]
   12778: 68 20 9d e5  	ldr	r2, [sp, #104]
   1277c: c0 20 8d e5  	str	r2, [sp, #192]
   12780: 24 01 8d e5  	str	r0, [sp, #292]
   12784: 28 11 8d e5  	str	r1, [sp, #296]
   12788: 01 00 80 e0  	add	r0, r0, r1
   1278c: 2c 01 8d e5  	str	r0, [sp, #300]
   12790: 2c 01 9d e5  	ldr	r0, [sp, #300]
   12794: 64 00 8d e5  	str	r0, [sp, #100]
   12798: 04 00 00 ea  	b	#16 <_ZN4core3fmt3num3imp7fmt_u3217h9e0b25e1b2d1183fE+0x21c>
   1279c: 28 04 9f e5  	ldr	r0, [pc, #1064]
   127a0: 28 24 9f e5  	ldr	r2, [pc, #1064]
   127a4: 21 10 a0 e3  	mov	r1, #33
   127a8: c1 e5 ff eb  	bl	#-26876 <_ZN4core9panicking5panic17h70f755644c6683e5E>
   127ac: fe de ff e7  	trap
   127b0: 84 00 9d e5  	ldr	r0, [sp, #132]
   127b4: c0 10 9d e5  	ldr	r1, [sp, #192]
   127b8: 6c 01 8d e5  	str	r0, [sp, #364]
   127bc: 70 11 8d e5  	str	r1, [sp, #368]
   127c0: 01 00 80 e0  	add	r0, r0, r1
   127c4: 74 01 8d e5  	str	r0, [sp, #372]
   127c8: 74 01 9d e5  	ldr	r0, [sp, #372]
   127cc: 60 00 8d e5  	str	r0, [sp, #96]
   127d0: ff ff ff ea  	b	#-4 <_ZN4core3fmt3num3imp7fmt_u3217h9e0b25e1b2d1183fE+0x240>
   127d4: 60 10 9d e5  	ldr	r1, [sp, #96]
   127d8: 64 00 9d e5  	ldr	r0, [sp, #100]
   127dc: 02 20 a0 e3  	mov	r2, #2
   127e0: ce db ff eb  	bl	#-37064 <_ZN4core10intrinsics19copy_nonoverlapping17hb935fbdf8fc9b991E>
   127e4: ff ff ff ea  	b	#-4 <_ZN4core3fmt3num3imp7fmt_u3217h9e0b25e1b2d1183fE+0x254>
   127e8: 78 00 9d e5  	ldr	r0, [sp, #120]
   127ec: 6c 10 9d e5  	ldr	r1, [sp, #108]
   127f0: 18 01 8d e5  	str	r0, [sp, #280]
   127f4: 1c 11 8d e5  	str	r1, [sp, #284]
   127f8: 01 00 80 e0  	add	r0, r0, r1
   127fc: 20 01 8d e5  	str	r0, [sp, #288]
   12800: 20 01 9d e5  	ldr	r0, [sp, #288]
   12804: 5c 00 8d e5  	str	r0, [sp, #92]
   12808: ff ff ff ea  	b	#-4 <_ZN4core3fmt3num3imp7fmt_u3217h9e0b25e1b2d1183fE+0x278>
   1280c: c0 10 9d e5  	ldr	r1, [sp, #192]
   12810: 02 00 81 e2  	add	r0, r1, #2
   12814: 58 00 8d e5  	str	r0, [sp, #88]
   12818: 01 00 50 e1  	cmp	r0, r1
   1281c: 09 00 00 6a  	bvs	#36 <_ZN4core3fmt3num3imp7fmt_u3217h9e0b25e1b2d1183fE+0x2b4>
   12820: ff ff ff ea  	b	#-4 <_ZN4core3fmt3num3imp7fmt_u3217h9e0b25e1b2d1183fE+0x290>
   12824: 84 00 9d e5  	ldr	r0, [sp, #132]
   12828: 58 10 9d e5  	ldr	r1, [sp, #88]
   1282c: 60 01 8d e5  	str	r0, [sp, #352]
   12830: 64 11 8d e5  	str	r1, [sp, #356]
   12834: 01 00 80 e0  	add	r0, r0, r1
   12838: 68 01 8d e5  	str	r0, [sp, #360]
   1283c: 68 01 9d e5  	ldr	r0, [sp, #360]
   12840: 54 00 8d e5  	str	r0, [sp, #84]
   12844: 04 00 00 ea  	b	#16 <_ZN4core3fmt3num3imp7fmt_u3217h9e0b25e1b2d1183fE+0x2c8>
   12848: 88 03 9f e5  	ldr	r0, [pc, #904]
   1284c: 7c 23 9f e5  	ldr	r2, [pc, #892]
   12850: 1c 10 a0 e3  	mov	r1, #28
   12854: 96 e5 ff eb  	bl	#-27048 <_ZN4core9panicking5panic17h70f755644c6683e5E>
   12858: fe de ff e7  	trap
   1285c: 54 10 9d e5  	ldr	r1, [sp, #84]
   12860: 5c 00 9d e5  	ldr	r0, [sp, #92]
   12864: 02 20 a0 e3  	mov	r2, #2
   12868: ac db ff eb  	bl	#-37200 <_ZN4core10intrinsics19copy_nonoverlapping17hb935fbdf8fc9b991E>
   1286c: 71 ff ff ea  	b	#-572 <_ZN4core3fmt3num3imp7fmt_u3217h9e0b25e1b2d1183fE+0xa4>
   12870: c4 00 9d e5  	ldr	r0, [sp, #196]
   12874: 0a 00 50 e3  	cmp	r0, #10
   12878: 4f 00 00 ba  	blt	#316 <_ZN4core3fmt3num3imp7fmt_u3217h9e0b25e1b2d1183fE+0x428>
   1287c: 4a 00 00 ea  	b	#296 <_ZN4core3fmt3num3imp7fmt_u3217h9e0b25e1b2d1183fE+0x418>
   12880: c4 00 9d e5  	ldr	r0, [sp, #196]
   12884: 50 00 8d e5  	str	r0, [sp, #80]
   12888: 00 00 a0 e3  	mov	r0, #0
   1288c: 00 00 50 e3  	cmp	r0, #0
   12890: 0b 00 00 1a  	bne	#44 <_ZN4core3fmt3num3imp7fmt_u3217h9e0b25e1b2d1183fE+0x330>
   12894: ff ff ff ea  	b	#-4 <_ZN4core3fmt3num3imp7fmt_u3217h9e0b25e1b2d1183fE+0x304>
   12898: 50 00 9d e5  	ldr	r0, [sp, #80]
   1289c: 24 13 9f e5  	ldr	r1, [pc, #804]
   128a0: 10 f1 52 e7  	smmul	r2, r0, r1
   128a4: c2 12 a0 e1  	asr	r1, r2, #5
   128a8: a2 1f 81 e0  	add	r1, r1, r2, lsr #31
   128ac: 64 20 a0 e3  	mov	r2, #100
   128b0: 91 02 01 e0  	mul	r1, r1, r2
   128b4: 01 00 40 e0  	sub	r0, r0, r1
   128b8: 80 00 a0 e1  	lsl	r0, r0, #1
   128bc: 4c 00 8d e5  	str	r0, [sp, #76]
   128c0: 04 00 00 ea  	b	#16 <_ZN4core3fmt3num3imp7fmt_u3217h9e0b25e1b2d1183fE+0x344>
   128c4: 14 03 9f e5  	ldr	r0, [pc, #788]
   128c8: 00 23 9f e5  	ldr	r2, [pc, #768]
   128cc: 30 10 a0 e3  	mov	r1, #48
   128d0: 77 e5 ff eb  	bl	#-27172 <_ZN4core9panicking5panic17h70f755644c6683e5E>
   128d4: fe de ff e7  	trap
   128d8: 4c 00 9d e5  	ldr	r0, [sp, #76]
   128dc: e4 00 8d e5  	str	r0, [sp, #228]
   128e0: 00 00 a0 e3  	mov	r0, #0
   128e4: 00 00 50 e3  	cmp	r0, #0
   128e8: 0c 00 00 1a  	bne	#48 <_ZN4core3fmt3num3imp7fmt_u3217h9e0b25e1b2d1183fE+0x38c>
   128ec: ff ff ff ea  	b	#-4 <_ZN4core3fmt3num3imp7fmt_u3217h9e0b25e1b2d1183fE+0x35c>
   128f0: c4 00 9d e5  	ldr	r0, [sp, #196]
   128f4: cc 12 9f e5  	ldr	r1, [pc, #716]
   128f8: 10 f1 51 e7  	smmul	r1, r0, r1
   128fc: c1 02 a0 e1  	asr	r0, r1, #5
   12900: a1 0f 80 e0  	add	r0, r0, r1, lsr #31
   12904: c4 00 8d e5  	str	r0, [sp, #196]
   12908: c0 10 9d e5  	ldr	r1, [sp, #192]
   1290c: 02 00 41 e2  	sub	r0, r1, #2
   12910: 48 00 8d e5  	str	r0, [sp, #72]
   12914: 01 00 50 e1  	cmp	r0, r1
   12918: 10 00 00 6a  	bvs	#64 <_ZN4core3fmt3num3imp7fmt_u3217h9e0b25e1b2d1183fE+0x3cc>
   1291c: 04 00 00 ea  	b	#16 <_ZN4core3fmt3num3imp7fmt_u3217h9e0b25e1b2d1183fE+0x3a0>
   12920: b4 02 9f e5  	ldr	r0, [pc, #692]
   12924: a4 22 9f e5  	ldr	r2, [pc, #676]
   12928: 1f 10 a0 e3  	mov	r1, #31
   1292c: 60 e5 ff eb  	bl	#-27264 <_ZN4core9panicking5panic17h70f755644c6683e5E>
   12930: fe de ff e7  	trap
   12934: 78 00 9d e5  	ldr	r0, [sp, #120]
   12938: 4c 10 9d e5  	ldr	r1, [sp, #76]
   1293c: 48 20 9d e5  	ldr	r2, [sp, #72]
   12940: c0 20 8d e5  	str	r2, [sp, #192]
   12944: 0c 01 8d e5  	str	r0, [sp, #268]
   12948: 10 11 8d e5  	str	r1, [sp, #272]
   1294c: 01 00 80 e0  	add	r0, r0, r1
   12950: 14 01 8d e5  	str	r0, [sp, #276]
   12954: 14 01 9d e5  	ldr	r0, [sp, #276]
   12958: 44 00 8d e5  	str	r0, [sp, #68]
   1295c: 04 00 00 ea  	b	#16 <_ZN4core3fmt3num3imp7fmt_u3217h9e0b25e1b2d1183fE+0x3e0>
   12960: 64 02 9f e5  	ldr	r0, [pc, #612]
   12964: 64 22 9f e5  	ldr	r2, [pc, #612]
   12968: 21 10 a0 e3  	mov	r1, #33
   1296c: 50 e5 ff eb  	bl	#-27328 <_ZN4core9panicking5panic17h70f755644c6683e5E>
   12970: fe de ff e7  	trap
   12974: 84 00 9d e5  	ldr	r0, [sp, #132]
   12978: c0 10 9d e5  	ldr	r1, [sp, #192]
   1297c: 54 01 8d e5  	str	r0, [sp, #340]
   12980: 58 11 8d e5  	str	r1, [sp, #344]
   12984: 01 00 80 e0  	add	r0, r0, r1
   12988: 5c 01 8d e5  	str	r0, [sp, #348]
   1298c: 5c 01 9d e5  	ldr	r0, [sp, #348]
   12990: 40 00 8d e5  	str	r0, [sp, #64]
   12994: ff ff ff ea  	b	#-4 <_ZN4core3fmt3num3imp7fmt_u3217h9e0b25e1b2d1183fE+0x404>
   12998: 40 10 9d e5  	ldr	r1, [sp, #64]
   1299c: 44 00 9d e5  	ldr	r0, [sp, #68]
   129a0: 02 20 a0 e3  	mov	r2, #2
   129a4: 5d db ff eb  	bl	#-37516 <_ZN4core10intrinsics19copy_nonoverlapping17hb935fbdf8fc9b991E>
   129a8: b0 ff ff ea  	b	#-320 <_ZN4core3fmt3num3imp7fmt_u3217h9e0b25e1b2d1183fE+0x2dc>
   129ac: c4 00 9d e5  	ldr	r0, [sp, #196]
   129b0: 80 00 a0 e1  	lsl	r0, r0, #1
   129b4: 3c 00 8d e5  	str	r0, [sp, #60]
   129b8: 2e 00 00 ea  	b	#184 <_ZN4core3fmt3num3imp7fmt_u3217h9e0b25e1b2d1183fE+0x4e4>
   129bc: c0 10 9d e5  	ldr	r1, [sp, #192]
   129c0: 01 00 41 e2  	sub	r0, r1, #1
   129c4: 38 00 8d e5  	str	r0, [sp, #56]
   129c8: 01 00 50 e1  	cmp	r0, r1
   129cc: 09 00 00 6a  	bvs	#36 <_ZN4core3fmt3num3imp7fmt_u3217h9e0b25e1b2d1183fE+0x464>
   129d0: ff ff ff ea  	b	#-4 <_ZN4core3fmt3num3imp7fmt_u3217h9e0b25e1b2d1183fE+0x440>
   129d4: 38 00 9d e5  	ldr	r0, [sp, #56]
   129d8: c0 00 8d e5  	str	r0, [sp, #192]
   129dc: c4 00 dd e5  	ldrb	r0, [sp, #196]
   129e0: 30 10 80 e2  	add	r1, r0, #48
   129e4: 34 10 8d e5  	str	r1, [sp, #52]
   129e8: 71 00 ef e6  	uxtb	r0, r1
   129ec: 01 00 50 e1  	cmp	r0, r1
   129f0: 0e 00 00 1a  	bne	#56 <_ZN4core3fmt3num3imp7fmt_u3217h9e0b25e1b2d1183fE+0x49c>
   129f4: 04 00 00 ea  	b	#16 <_ZN4core3fmt3num3imp7fmt_u3217h9e0b25e1b2d1183fE+0x478>
   129f8: cc 01 9f e5  	ldr	r0, [pc, #460]
   129fc: cc 21 9f e5  	ldr	r2, [pc, #460]
   12a00: 21 10 a0 e3  	mov	r1, #33
   12a04: 2a e5 ff eb  	bl	#-27480 <_ZN4core9panicking5panic17h70f755644c6683e5E>
   12a08: fe de ff e7  	trap
   12a0c: 84 00 9d e5  	ldr	r0, [sp, #132]
   12a10: c0 10 9d e5  	ldr	r1, [sp, #192]
   12a14: 48 01 8d e5  	str	r0, [sp, #328]
   12a18: 4c 11 8d e5  	str	r1, [sp, #332]
   12a1c: 01 00 80 e0  	add	r0, r0, r1
   12a20: 50 01 8d e5  	str	r0, [sp, #336]
   12a24: 50 01 9d e5  	ldr	r0, [sp, #336]
   12a28: 30 00 8d e5  	str	r0, [sp, #48]
   12a2c: 04 00 00 ea  	b	#16 <_ZN4core3fmt3num3imp7fmt_u3217h9e0b25e1b2d1183fE+0x4b0>
   12a30: a0 01 9f e5  	ldr	r0, [pc, #416]
   12a34: 94 21 9f e5  	ldr	r2, [pc, #404]
   12a38: 1c 10 a0 e3  	mov	r1, #28
   12a3c: 1c e5 ff eb  	bl	#-27536 <_ZN4core9panicking5panic17h70f755644c6683e5E>
   12a40: fe de ff e7  	trap
   12a44: 34 00 9d e5  	ldr	r0, [sp, #52]
   12a48: 30 10 9d e5  	ldr	r1, [sp, #48]
   12a4c: 00 00 c1 e5  	strb	r0, [r1]
   12a50: ff ff ff ea  	b	#-4 <_ZN4core3fmt3num3imp7fmt_u3217h9e0b25e1b2d1183fE+0x4c0>
   12a54: 84 00 9d e5  	ldr	r0, [sp, #132]
   12a58: c0 10 9d e5  	ldr	r1, [sp, #192]
   12a5c: 30 01 8d e5  	str	r0, [sp, #304]
   12a60: 34 11 8d e5  	str	r1, [sp, #308]
   12a64: 01 00 80 e0  	add	r0, r0, r1
   12a68: 38 01 8d e5  	str	r0, [sp, #312]
   12a6c: 38 01 9d e5  	ldr	r0, [sp, #312]
   12a70: 2c 00 8d e5  	str	r0, [sp, #44]
   12a74: 25 00 00 ea  	b	#148 <_ZN4core3fmt3num3imp7fmt_u3217h9e0b25e1b2d1183fE+0x57c>
   12a78: 3c 00 9d e5  	ldr	r0, [sp, #60]
   12a7c: e8 00 8d e5  	str	r0, [sp, #232]
   12a80: c0 10 9d e5  	ldr	r1, [sp, #192]
   12a84: 02 00 41 e2  	sub	r0, r1, #2
   12a88: 28 00 8d e5  	str	r0, [sp, #40]
   12a8c: 01 00 50 e1  	cmp	r0, r1
   12a90: 0b 00 00 6a  	bvs	#44 <_ZN4core3fmt3num3imp7fmt_u3217h9e0b25e1b2d1183fE+0x530>
   12a94: ff ff ff ea  	b	#-4 <_ZN4core3fmt3num3imp7fmt_u3217h9e0b25e1b2d1183fE+0x504>
   12a98: 78 00 9d e5  	ldr	r0, [sp, #120]
   12a9c: 3c 10 9d e5  	ldr	r1, [sp, #60]
   12aa0: 28 20 9d e5  	ldr	r2, [sp, #40]
   12aa4: c0 20 8d e5  	str	r2, [sp, #192]
   12aa8: 00 01 8d e5  	str	r0, [sp, #256]
   12aac: 04 11 8d e5  	str	r1, [sp, #260]
   12ab0: 01 00 80 e0  	add	r0, r0, r1
   12ab4: 08 01 8d e5  	str	r0, [sp, #264]
   12ab8: 08 01 9d e5  	ldr	r0, [sp, #264]
   12abc: 24 00 8d e5  	str	r0, [sp, #36]
   12ac0: 04 00 00 ea  	b	#16 <_ZN4core3fmt3num3imp7fmt_u3217h9e0b25e1b2d1183fE+0x544>
   12ac4: 00 01 9f e5  	ldr	r0, [pc, #256]
   12ac8: 00 21 9f e5  	ldr	r2, [pc, #256]
   12acc: 21 10 a0 e3  	mov	r1, #33
   12ad0: f7 e4 ff eb  	bl	#-27684 <_ZN4core9panicking5panic17h70f755644c6683e5E>
   12ad4: fe de ff e7  	trap
   12ad8: 84 00 9d e5  	ldr	r0, [sp, #132]
   12adc: c0 10 9d e5  	ldr	r1, [sp, #192]
   12ae0: 3c 01 8d e5  	str	r0, [sp, #316]
   12ae4: 40 11 8d e5  	str	r1, [sp, #320]
   12ae8: 01 00 80 e0  	add	r0, r0, r1
   12aec: 44 01 8d e5  	str	r0, [sp, #324]
   12af0: 44 01 9d e5  	ldr	r0, [sp, #324]
   12af4: 20 00 8d e5  	str	r0, [sp, #32]
   12af8: ff ff ff ea  	b	#-4 <_ZN4core3fmt3num3imp7fmt_u3217h9e0b25e1b2d1183fE+0x568>
   12afc: 20 10 9d e5  	ldr	r1, [sp, #32]
   12b00: 24 00 9d e5  	ldr	r0, [sp, #36]
   12b04: 02 20 a0 e3  	mov	r2, #2
   12b08: 04 db ff eb  	bl	#-37872 <_ZN4core10intrinsics19copy_nonoverlapping17hb935fbdf8fc9b991E>
   12b0c: d0 ff ff ea  	b	#-192 <_ZN4core3fmt3num3imp7fmt_u3217h9e0b25e1b2d1183fE+0x4c0>
   12b10: c0 10 9d e5  	ldr	r1, [sp, #192]
   12b14: 27 00 61 e2  	rsb	r0, r1, #39
   12b18: 1c 00 8d e5  	str	r0, [sp, #28]
   12b1c: 27 00 a0 e3  	mov	r0, #39
   12b20: 01 00 50 e1  	cmp	r0, r1
   12b24: 06 00 00 3a  	blo	#24 <_ZN4core3fmt3num3imp7fmt_u3217h9e0b25e1b2d1183fE+0x5b0>
   12b28: ff ff ff ea  	b	#-4 <_ZN4core3fmt3num3imp7fmt_u3217h9e0b25e1b2d1183fE+0x598>
   12b2c: 1c 10 9d e5  	ldr	r1, [sp, #28]
   12b30: 2c 00 9d e5  	ldr	r0, [sp, #44]
   12b34: 2a f3 ff eb  	bl	#-13144 <_ZN4core5slice3raw14from_raw_parts17h2c7aceaf3e66256fE>
   12b38: 14 00 8d e5  	str	r0, [sp, #20]
   12b3c: 18 10 8d e5  	str	r1, [sp, #24]
   12b40: 04 00 00 ea  	b	#16 <_ZN4core3fmt3num3imp7fmt_u3217h9e0b25e1b2d1183fE+0x5c4>
   12b44: 80 00 9f e5  	ldr	r0, [pc, #128]
   12b48: 80 20 9f e5  	ldr	r2, [pc, #128]
   12b4c: 21 10 a0 e3  	mov	r1, #33
   12b50: d7 e4 ff eb  	bl	#-27812 <_ZN4core9panicking5panic17h70f755644c6683e5E>
   12b54: fe de ff e7  	trap
   12b58: 18 10 9d e5  	ldr	r1, [sp, #24]
   12b5c: 14 00 9d e5  	ldr	r0, [sp, #20]
   12b60: 1a f8 ff eb  	bl	#-8088 <_ZN4core3str8converts19from_utf8_unchecked17h52dbaed8b9b07d57E>
   12b64: 00 20 a0 e1  	mov	r2, r0
   12b68: 0c 20 8d e5  	str	r2, [sp, #12]
   12b6c: 01 20 a0 e1  	mov	r2, r1
   12b70: 10 20 8d e5  	str	r2, [sp, #16]
   12b74: ec 00 8d e5  	str	r0, [sp, #236]
   12b78: f0 10 8d e5  	str	r1, [sp, #240]
   12b7c: ff ff ff ea  	b	#-4 <_ZN4core3fmt3num3imp7fmt_u3217h9e0b25e1b2d1183fE+0x5ec>
   12b80: 88 00 9d e5  	ldr	r0, [sp, #136]
   12b84: 8c 10 9d e5  	ldr	r1, [sp, #140]
   12b88: 0c 20 9d e5  	ldr	r2, [sp, #12]
   12b8c: 10 c0 9d e5  	ldr	r12, [sp, #16]
   12b90: 0d 30 a0 e1  	mov	r3, sp
   12b94: 04 c0 83 e5  	str	r12, [r3, #4]
   12b98: 00 20 83 e5  	str	r2, [r3]
   12b9c: 01 10 01 e2  	and	r1, r1, #1
   12ba0: 2c 20 9f e5  	ldr	r2, [pc, #44]
   12ba4: 00 30 a0 e3  	mov	r3, #0
   12ba8: 8b eb ff eb  	bl	#-20948 <_ZN4core3fmt9Formatter12pad_integral17h6338b9e6c1af941fE>
   12bac: 08 00 8d e5  	str	r0, [sp, #8]
   12bb0: ff ff ff ea  	b	#-4 <_ZN4core3fmt3num3imp7fmt_u3217h9e0b25e1b2d1183fE+0x620>
   12bb4: 08 00 9d e5  	ldr	r0, [sp, #8]
   12bb8: 01 00 00 e2  	and	r0, r0, #1
   12bbc: 5e df 8d e2  	add	sp, sp, #376
   12bc0: 00 88 bd e8  	pop	{r11, pc}

00012bc4 <$d.2739>:
   12bc4:	d8 5b 01 00	.word	0x00015bd8
   12bc8:	1f 85 eb 51	.word	0x51eb851f
   12bcc:	d0 51 01 00	.word	0x000151d0
   12bd0:	ec 66 01 00	.word	0x000166ec
   12bd4:	38 55 01 00	.word	0x00015538
   12bd8:	00 52 01 00	.word	0x00015200
   12bdc:	30 54 01 00	.word	0x00015430
   12be0:	00 67 01 00	.word	0x00016700
   12be4:	59 17 b7 d1	.word	0xd1b71759
   12be8:	b8 66 01 00	.word	0x000166b8

00012bec <_ZN4core3fmt3num3imp51_$LT$impl$u20$core..fmt..Display$u20$for$u20$u8$GT$3fmt17h1daad30d62911f99E>:
   12bec: 00 48 2d e9  	push	{r11, lr}
   12bf0: 30 d0 4d e2  	sub	sp, sp, #48
   12bf4: 0c 10 8d e5  	str	r1, [sp, #12]
   12bf8: 10 00 8d e5  	str	r0, [sp, #16]
   12bfc: 1c 00 8d e5  	str	r0, [sp, #28]
   12c00: 20 10 8d e5  	str	r1, [sp, #32]
   12c04: 01 00 a0 e3  	mov	r0, #1
   12c08: 14 00 8d e5  	str	r0, [sp, #20]
   12c0c: 27 00 cd e5  	strb	r0, [sp, #39]
   12c10: 00 00 50 e3  	cmp	r0, #0
   12c14: 04 00 00 1a  	bne	#16 <_ZN4core3fmt3num3imp51_$LT$impl$u20$core..fmt..Display$u20$for$u20$u8$GT$3fmt17h1daad30d62911f99E+0x40>
   12c18: ff ff ff ea  	b	#-4 <_ZN4core3fmt3num3imp51_$LT$impl$u20$core..fmt..Display$u20$for$u20$u8$GT$3fmt17h1daad30d62911f99E+0x30>
   12c1c: 10 00 9d e5  	ldr	r0, [sp, #16]
   12c20: 14 fd ff eb  	bl	#-2992 <_ZN49_$LT$u8$u20$as$u20$core..fmt..num..DisplayInt$GT$6to_u3217h4b043bbad09ceab7E>
   12c24: 08 00 8d e5  	str	r0, [sp, #8]
   12c28: 0a 00 00 ea  	b	#40 <_ZN4core3fmt3num3imp51_$LT$impl$u20$core..fmt..Display$u20$for$u20$u8$GT$3fmt17h1daad30d62911f99E+0x6c>
   12c2c: 10 00 9d e5  	ldr	r0, [sp, #16]
   12c30: 10 fd ff eb  	bl	#-3008 <_ZN49_$LT$u8$u20$as$u20$core..fmt..num..DisplayInt$GT$6to_u3217h4b043bbad09ceab7E>
   12c34: 18 00 8d e5  	str	r0, [sp, #24]
   12c38: ff ff ff ea  	b	#-4 <_ZN4core3fmt3num3imp51_$LT$impl$u20$core..fmt..Display$u20$for$u20$u8$GT$3fmt17h1daad30d62911f99E+0x50>
   12c3c: 0c 20 9d e5  	ldr	r2, [sp, #12]
   12c40: 14 10 9d e5  	ldr	r1, [sp, #20]
   12c44: 18 00 9d e5  	ldr	r0, [sp, #24]
   12c48: 01 10 01 e2  	and	r1, r1, #1
   12c4c: 50 fe ff eb  	bl	#-1728 <_ZN4core3fmt3num3imp7fmt_u3217h9e0b25e1b2d1183fE>
   12c50: 04 00 8d e5  	str	r0, [sp, #4]
   12c54: 07 00 00 ea  	b	#28 <_ZN4core3fmt3num3imp51_$LT$impl$u20$core..fmt..Display$u20$for$u20$u8$GT$3fmt17h1daad30d62911f99E+0x8c>
   12c58: 08 00 9d e5  	ldr	r0, [sp, #8]
   12c5c: 00 10 e0 e1  	mvn	r1, r0
   12c60: 28 10 8d e5  	str	r1, [sp, #40]
   12c64: 01 10 a0 e3  	mov	r1, #1
   12c68: 2c 10 8d e5  	str	r1, [sp, #44]
   12c6c: 00 00 60 e2  	rsb	r0, r0, #0
   12c70: 18 00 8d e5  	str	r0, [sp, #24]
   12c74: f0 ff ff ea  	b	#-64 <_ZN4core3fmt3num3imp51_$LT$impl$u20$core..fmt..Display$u20$for$u20$u8$GT$3fmt17h1daad30d62911f99E+0x50>
   12c78: 04 00 9d e5  	ldr	r0, [sp, #4]
   12c7c: 01 00 00 e2  	and	r0, r0, #1
   12c80: 30 d0 8d e2  	add	sp, sp, #48
   12c84: 00 88 bd e8  	pop	{r11, pc}

00012c88 <_ZN4core3fmt3num3imp54_$LT$impl$u20$core..fmt..Display$u20$for$u20$usize$GT$3fmt17he15d94aa45306f36E>:
   12c88: 00 48 2d e9  	push	{r11, lr}
   12c8c: 30 d0 4d e2  	sub	sp, sp, #48
   12c90: 0c 10 8d e5  	str	r1, [sp, #12]
   12c94: 10 00 8d e5  	str	r0, [sp, #16]
   12c98: 1c 00 8d e5  	str	r0, [sp, #28]
   12c9c: 20 10 8d e5  	str	r1, [sp, #32]
   12ca0: 00 00 90 e5  	ldr	r0, [r0]
   12ca4: 01 10 a0 e3  	mov	r1, #1
   12ca8: 14 10 8d e5  	str	r1, [sp, #20]
   12cac: 27 10 cd e5  	strb	r1, [sp, #39]
   12cb0: 00 00 50 e3  	cmp	r0, #0
   12cb4: 04 00 00 2a  	bhs	#16 <_ZN4core3fmt3num3imp54_$LT$impl$u20$core..fmt..Display$u20$for$u20$usize$GT$3fmt17he15d94aa45306f36E+0x44>
   12cb8: ff ff ff ea  	b	#-4 <_ZN4core3fmt3num3imp54_$LT$impl$u20$core..fmt..Display$u20$for$u20$usize$GT$3fmt17he15d94aa45306f36E+0x34>
   12cbc: 10 00 9d e5  	ldr	r0, [sp, #16]
   12cc0: fd fc ff eb  	bl	#-3084 <_ZN52_$LT$usize$u20$as$u20$core..fmt..num..DisplayInt$GT$6to_u3217hfd0c5150a38d32f4E>
   12cc4: 08 00 8d e5  	str	r0, [sp, #8]
   12cc8: 0a 00 00 ea  	b	#40 <_ZN4core3fmt3num3imp54_$LT$impl$u20$core..fmt..Display$u20$for$u20$usize$GT$3fmt17he15d94aa45306f36E+0x70>
   12ccc: 10 00 9d e5  	ldr	r0, [sp, #16]
   12cd0: f9 fc ff eb  	bl	#-3100 <_ZN52_$LT$usize$u20$as$u20$core..fmt..num..DisplayInt$GT$6to_u3217hfd0c5150a38d32f4E>
   12cd4: 18 00 8d e5  	str	r0, [sp, #24]
   12cd8: ff ff ff ea  	b	#-4 <_ZN4core3fmt3num3imp54_$LT$impl$u20$core..fmt..Display$u20$for$u20$usize$GT$3fmt17he15d94aa45306f36E+0x54>
   12cdc: 0c 20 9d e5  	ldr	r2, [sp, #12]
   12ce0: 14 10 9d e5  	ldr	r1, [sp, #20]
   12ce4: 18 00 9d e5  	ldr	r0, [sp, #24]
   12ce8: 01 10 01 e2  	and	r1, r1, #1
   12cec: 28 fe ff eb  	bl	#-1888 <_ZN4core3fmt3num3imp7fmt_u3217h9e0b25e1b2d1183fE>
   12cf0: 04 00 8d e5  	str	r0, [sp, #4]
   12cf4: 07 00 00 ea  	b	#28 <_ZN4core3fmt3num3imp54_$LT$impl$u20$core..fmt..Display$u20$for$u20$usize$GT$3fmt17he15d94aa45306f36E+0x90>
   12cf8: 08 00 9d e5  	ldr	r0, [sp, #8]
   12cfc: 00 10 e0 e1  	mvn	r1, r0
   12d00: 28 10 8d e5  	str	r1, [sp, #40]
   12d04: 01 10 a0 e3  	mov	r1, #1
   12d08: 2c 10 8d e5  	str	r1, [sp, #44]
   12d0c: 00 00 60 e2  	rsb	r0, r0, #0
   12d10: 18 00 8d e5  	str	r0, [sp, #24]
   12d14: f0 ff ff ea  	b	#-64 <_ZN4core3fmt3num3imp54_$LT$impl$u20$core..fmt..Display$u20$for$u20$usize$GT$3fmt17he15d94aa45306f36E+0x54>
   12d18: 04 00 9d e5  	ldr	r0, [sp, #4]
   12d1c: 01 00 00 e2  	and	r0, r0, #1
   12d20: 30 d0 8d e2  	add	sp, sp, #48
   12d24: 00 88 bd e8  	pop	{r11, pc}

00012d28 <_ZN4core3fmt10ArgumentV111new_display17h5becac182c5242eeE>:
   12d28: 00 48 2d e9  	push	{r11, lr}
   12d2c: 10 d0 4d e2  	sub	sp, sp, #16
   12d30: 0c 00 8d e5  	str	r0, [sp, #12]
   12d34: 1c 10 9f e5  	ldr	r1, [pc, #28]
   12d38: 92 e8 ff eb  	bl	#-23992 <_ZN4core3fmt10ArgumentV13new17hf34e7092f2803bf0E>
   12d3c: 04 00 8d e5  	str	r0, [sp, #4]
   12d40: 08 10 8d e5  	str	r1, [sp, #8]
   12d44: ff ff ff ea  	b	#-4 <_ZN4core3fmt10ArgumentV111new_display17h5becac182c5242eeE+0x20>
   12d48: 08 10 9d e5  	ldr	r1, [sp, #8]
   12d4c: 04 00 9d e5  	ldr	r0, [sp, #4]
   12d50: 10 d0 8d e2  	add	sp, sp, #16
   12d54: 00 88 bd e8  	pop	{r11, pc}

00012d58 <$d.2791>:
   12d58:	98 2e 01 00	.word	0x00012e98

00012d5c <_ZN4core3fmt10ArgumentV111new_display17h62eda62979a94284E>:
   12d5c: 00 48 2d e9  	push	{r11, lr}
   12d60: 10 d0 4d e2  	sub	sp, sp, #16
   12d64: 0c 00 8d e5  	str	r0, [sp, #12]
   12d68: 1c 10 9f e5  	ldr	r1, [pc, #28]
   12d6c: 5b e8 ff eb  	bl	#-24212 <_ZN4core3fmt10ArgumentV13new17ha876e96e5dc117f4E>
   12d70: 04 00 8d e5  	str	r0, [sp, #4]
   12d74: 08 10 8d e5  	str	r1, [sp, #8]
   12d78: ff ff ff ea  	b	#-4 <_ZN4core3fmt10ArgumentV111new_display17h62eda62979a94284E+0x20>
   12d7c: 08 10 9d e5  	ldr	r1, [sp, #8]
   12d80: 04 00 9d e5  	ldr	r0, [sp, #4]
   12d84: 10 d0 8d e2  	add	sp, sp, #16
   12d88: 00 88 bd e8  	pop	{r11, pc}

00012d8c <$d.2793>:
   12d8c:	88 2c 01 00	.word	0x00012c88

00012d90 <_ZN4core3fmt10ArgumentV111new_display17h667da9250b75896aE>:
   12d90: 00 48 2d e9  	push	{r11, lr}
   12d94: 10 d0 4d e2  	sub	sp, sp, #16
   12d98: 0c 00 8d e5  	str	r0, [sp, #12]
   12d9c: 1c 10 9f e5  	ldr	r1, [pc, #28]
   12da0: 24 e8 ff eb  	bl	#-24432 <_ZN4core3fmt10ArgumentV13new17h37f891f565a643d9E>
   12da4: 04 00 8d e5  	str	r0, [sp, #4]
   12da8: 08 10 8d e5  	str	r1, [sp, #8]
   12dac: ff ff ff ea  	b	#-4 <_ZN4core3fmt10ArgumentV111new_display17h667da9250b75896aE+0x20>
   12db0: 08 10 9d e5  	ldr	r1, [sp, #8]
   12db4: 04 00 9d e5  	ldr	r0, [sp, #4]
   12db8: 10 d0 8d e2  	add	sp, sp, #16
   12dbc: 00 88 bd e8  	pop	{r11, pc}

00012dc0 <$d.2795>:
   12dc0:	ec 2b 01 00	.word	0x00012bec

00012dc4 <_ZN4core3fmt10ArgumentV111new_display17h70b2dfacf2c69a11E>:
   12dc4: 00 48 2d e9  	push	{r11, lr}
   12dc8: 10 d0 4d e2  	sub	sp, sp, #16
   12dcc: 0c 00 8d e5  	str	r0, [sp, #12]
   12dd0: 1c 10 9f e5  	ldr	r1, [pc, #28]
   12dd4: 2c e8 ff eb  	bl	#-24400 <_ZN4core3fmt10ArgumentV13new17h4c844c993ed35af8E>
   12dd8: 04 00 8d e5  	str	r0, [sp, #4]
   12ddc: 08 10 8d e5  	str	r1, [sp, #8]
   12de0: ff ff ff ea  	b	#-4 <_ZN4core3fmt10ArgumentV111new_display17h70b2dfacf2c69a11E+0x20>
   12de4: 08 10 9d e5  	ldr	r1, [sp, #8]
   12de8: 04 00 9d e5  	ldr	r0, [sp, #4]
   12dec: 10 d0 8d e2  	add	sp, sp, #16
   12df0: 00 88 bd e8  	pop	{r11, pc}

00012df4 <$d.2797>:
   12df4:	70 d1 00 00	.word	0x0000d170

00012df8 <_ZN4core3fmt10ArgumentV19new_debug17h8fa7896cd18c0858E>:
   12df8: 00 48 2d e9  	push	{r11, lr}
   12dfc: 10 d0 4d e2  	sub	sp, sp, #16
   12e00: 0c 00 8d e5  	str	r0, [sp, #12]
   12e04: 1c 10 9f e5  	ldr	r1, [pc, #28]
   12e08: 49 e8 ff eb  	bl	#-24284 <_ZN4core3fmt10ArgumentV13new17hbd460d47a42de93cE>
   12e0c: 04 00 8d e5  	str	r0, [sp, #4]
   12e10: 08 10 8d e5  	str	r1, [sp, #8]
   12e14: ff ff ff ea  	b	#-4 <_ZN4core3fmt10ArgumentV19new_debug17h8fa7896cd18c0858E+0x20>
   12e18: 08 10 9d e5  	ldr	r1, [sp, #8]
   12e1c: 04 00 9d e5  	ldr	r0, [sp, #4]
   12e20: 10 d0 8d e2  	add	sp, sp, #16
   12e24: 00 88 bd e8  	pop	{r11, pc}

00012e28 <$d.2803>:
   12e28:	2c 2e 01 00	.word	0x00012e2c

00012e2c <_ZN42_$LT$$RF$T$u20$as$u20$core..fmt..Debug$GT$3fmt17ha166fa1a8c15bd6cE>:
   12e2c: 00 48 2d e9  	push	{r11, lr}
   12e30: 10 d0 4d e2  	sub	sp, sp, #16
   12e34: 00 20 a0 e1  	mov	r2, r0
   12e38: 08 20 8d e5  	str	r2, [sp, #8]
   12e3c: 0c 10 8d e5  	str	r1, [sp, #12]
   12e40: 00 00 92 e5  	ldr	r0, [r2]
   12e44: 04 20 92 e5  	ldr	r2, [r2, #4]
   12e48: 0c 20 92 e5  	ldr	r2, [r2, #12]
   12e4c: 32 ff 2f e1  	blx	r2
   12e50: 04 00 8d e5  	str	r0, [sp, #4]
   12e54: ff ff ff ea  	b	#-4 <_ZN42_$LT$$RF$T$u20$as$u20$core..fmt..Debug$GT$3fmt17ha166fa1a8c15bd6cE+0x2c>
   12e58: 04 00 9d e5  	ldr	r0, [sp, #4]
   12e5c: 01 00 00 e2  	and	r0, r0, #1
   12e60: 10 d0 8d e2  	add	sp, sp, #16
   12e64: 00 88 bd e8  	pop	{r11, pc}

00012e68 <_ZN42_$LT$$RF$T$u20$as$u20$core..fmt..Debug$GT$3fmt17hcd3d43c7379a307dE>:
   12e68: 00 48 2d e9  	push	{r11, lr}
   12e6c: 10 d0 4d e2  	sub	sp, sp, #16
   12e70: 08 00 8d e5  	str	r0, [sp, #8]
   12e74: 0c 10 8d e5  	str	r1, [sp, #12]
   12e78: 00 00 90 e5  	ldr	r0, [r0]
   12e7c: 9b fd ff eb  	bl	#-2452 <_ZN4core3fmt3num52_$LT$impl$u20$core..fmt..Debug$u20$for$u20$usize$GT$3fmt17h8f80d87d397c4613E>
   12e80: 04 00 8d e5  	str	r0, [sp, #4]
   12e84: ff ff ff ea  	b	#-4 <_ZN42_$LT$$RF$T$u20$as$u20$core..fmt..Debug$GT$3fmt17hcd3d43c7379a307dE+0x20>
   12e88: 04 00 9d e5  	ldr	r0, [sp, #4]
   12e8c: 01 00 00 e2  	and	r0, r0, #1
   12e90: 10 d0 8d e2  	add	sp, sp, #16
   12e94: 00 88 bd e8  	pop	{r11, pc}

00012e98 <_ZN44_$LT$$RF$T$u20$as$u20$core..fmt..Display$GT$3fmt17h328b3198ae6deeeeE>:
   12e98: 00 48 2d e9  	push	{r11, lr}
   12e9c: 10 d0 4d e2  	sub	sp, sp, #16
   12ea0: 01 20 a0 e1  	mov	r2, r1
   12ea4: 00 10 a0 e1  	mov	r1, r0
   12ea8: 08 10 8d e5  	str	r1, [sp, #8]
   12eac: 0c 20 8d e5  	str	r2, [sp, #12]
   12eb0: 00 00 91 e5  	ldr	r0, [r1]
   12eb4: 04 10 91 e5  	ldr	r1, [r1, #4]
   12eb8: 5a ee ff eb  	bl	#-18072 <_ZN42_$LT$str$u20$as$u20$core..fmt..Display$GT$3fmt17h85349bd7c20fb183E>
   12ebc: 04 00 8d e5  	str	r0, [sp, #4]
   12ec0: ff ff ff ea  	b	#-4 <_ZN44_$LT$$RF$T$u20$as$u20$core..fmt..Display$GT$3fmt17h328b3198ae6deeeeE+0x2c>
   12ec4: 04 00 9d e5  	ldr	r0, [sp, #4]
   12ec8: 01 00 00 e2  	and	r0, r0, #1
   12ecc: 10 d0 8d e2  	add	sp, sp, #16
   12ed0: 00 88 bd e8  	pop	{r11, pc}

00012ed4 <_ZN91_$LT$core..slice..iter..Iter$LT$T$GT$$u20$as$u20$core..iter..traits..iterator..Iterator$GT$4next17h09592dbd374f3d62E>:
   12ed4: 00 48 2d e9  	push	{r11, lr}
   12ed8: 40 d0 4d e2  	sub	sp, sp, #64
   12edc: 14 00 8d e5  	str	r0, [sp, #20]
   12ee0: 20 00 8d e5  	str	r0, [sp, #32]
   12ee4: 00 00 90 e5  	ldr	r0, [r0]
   12ee8: b1 db ff eb  	bl	#-37180 <_ZN4core3ptr8non_null16NonNull$LT$T$GT$6as_ptr17h761e972d0d67cfa0E>
   12eec: 18 00 8d e5  	str	r0, [sp, #24]
   12ef0: ff ff ff ea  	b	#-4 <_ZN91_$LT$core..slice..iter..Iter$LT$T$GT$$u20$as$u20$core..iter..traits..iterator..Iterator$GT$4next17h09592dbd374f3d62E+0x20>
   12ef4: 18 00 9d e5  	ldr	r0, [sp, #24]
   12ef8: 8a dc ff eb  	bl	#-36312 <_ZN4core3ptr7mut_ptr31_$LT$impl$u20$$BP$mut$u20$T$GT$7is_null17hdc47570171e130c6E>
   12efc: ff ff ff ea  	b	#-4 <_ZN91_$LT$core..slice..iter..Iter$LT$T$GT$$u20$as$u20$core..iter..traits..iterator..Iterator$GT$4next17h09592dbd374f3d62E+0x2c>
   12f00: ff ff ff ea  	b	#-4 <_ZN91_$LT$core..slice..iter..Iter$LT$T$GT$$u20$as$u20$core..iter..traits..iterator..Iterator$GT$4next17h09592dbd374f3d62E+0x30>
   12f04: ff ff ff ea  	b	#-4 <_ZN91_$LT$core..slice..iter..Iter$LT$T$GT$$u20$as$u20$core..iter..traits..iterator..Iterator$GT$4next17h09592dbd374f3d62E+0x34>
   12f08: 01 00 a0 e3  	mov	r0, #1
   12f0c: 00 00 50 e3  	cmp	r0, #0
   12f10: 05 00 00 1a  	bne	#20 <_ZN91_$LT$core..slice..iter..Iter$LT$T$GT$$u20$as$u20$core..iter..traits..iterator..Iterator$GT$4next17h09592dbd374f3d62E+0x58>
   12f14: ff ff ff ea  	b	#-4 <_ZN91_$LT$core..slice..iter..Iter$LT$T$GT$$u20$as$u20$core..iter..traits..iterator..Iterator$GT$4next17h09592dbd374f3d62E+0x44>
   12f18: 14 00 9d e5  	ldr	r0, [sp, #20]
   12f1c: 00 00 90 e5  	ldr	r0, [r0]
   12f20: a3 db ff eb  	bl	#-37236 <_ZN4core3ptr8non_null16NonNull$LT$T$GT$6as_ptr17h761e972d0d67cfa0E>
   12f24: 10 00 8d e5  	str	r0, [sp, #16]
   12f28: 04 00 00 ea  	b	#16 <_ZN91_$LT$core..slice..iter..Iter$LT$T$GT$$u20$as$u20$core..iter..traits..iterator..Iterator$GT$4next17h09592dbd374f3d62E+0x6c>
   12f2c: 14 00 9d e5  	ldr	r0, [sp, #20]
   12f30: 04 00 90 e5  	ldr	r0, [r0, #4]
   12f34: ce db ff eb  	bl	#-37064 <_ZN4core3ptr9const_ptr33_$LT$impl$u20$$BP$const$u20$T$GT$7is_null17h8bf2c1c38017a24bE>
   12f38: ff ff ff ea  	b	#-4 <_ZN91_$LT$core..slice..iter..Iter$LT$T$GT$$u20$as$u20$core..iter..traits..iterator..Iterator$GT$4next17h09592dbd374f3d62E+0x68>
   12f3c: f5 ff ff ea  	b	#-44 <_ZN91_$LT$core..slice..iter..Iter$LT$T$GT$$u20$as$u20$core..iter..traits..iterator..Iterator$GT$4next17h09592dbd374f3d62E+0x44>
   12f40: 10 00 9d e5  	ldr	r0, [sp, #16]
   12f44: 14 10 9d e5  	ldr	r1, [sp, #20]
   12f48: 04 10 91 e5  	ldr	r1, [r1, #4]
   12f4c: 01 00 50 e1  	cmp	r0, r1
   12f50: 1c 00 00 0a  	beq	#112 <_ZN91_$LT$core..slice..iter..Iter$LT$T$GT$$u20$as$u20$core..iter..traits..iterator..Iterator$GT$4next17h09592dbd374f3d62E+0xf4>
   12f54: ff ff ff ea  	b	#-4 <_ZN91_$LT$core..slice..iter..Iter$LT$T$GT$$u20$as$u20$core..iter..traits..iterator..Iterator$GT$4next17h09592dbd374f3d62E+0x84>
   12f58: 14 00 9d e5  	ldr	r0, [sp, #20]
   12f5c: 28 00 8d e5  	str	r0, [sp, #40]
   12f60: 01 10 a0 e3  	mov	r1, #1
   12f64: 04 10 8d e5  	str	r1, [sp, #4]
   12f68: 2c 10 8d e5  	str	r1, [sp, #44]
   12f6c: 00 00 90 e5  	ldr	r0, [r0]
   12f70: 8f db ff eb  	bl	#-37316 <_ZN4core3ptr8non_null16NonNull$LT$T$GT$6as_ptr17h761e972d0d67cfa0E>
   12f74: 00 10 a0 e1  	mov	r1, r0
   12f78: 14 00 9d e5  	ldr	r0, [sp, #20]
   12f7c: 08 10 8d e5  	str	r1, [sp, #8]
   12f80: 30 10 8d e5  	str	r1, [sp, #48]
   12f84: 00 00 90 e5  	ldr	r0, [r0]
   12f88: 89 db ff eb  	bl	#-37340 <_ZN4core3ptr8non_null16NonNull$LT$T$GT$6as_ptr17h761e972d0d67cfa0E>
   12f8c: 04 10 9d e5  	ldr	r1, [sp, #4]
   12f90: 34 00 8d e5  	str	r0, [sp, #52]
   12f94: 38 10 8d e5  	str	r1, [sp, #56]
   12f98: 01 00 80 e2  	add	r0, r0, #1
   12f9c: 3c 00 8d e5  	str	r0, [sp, #60]
   12fa0: 3c 00 9d e5  	ldr	r0, [sp, #60]
   12fa4: 72 db ff eb  	bl	#-37432 <_ZN4core3ptr8non_null16NonNull$LT$T$GT$13new_unchecked17ha617d323a7fc3e1eE>
   12fa8: 14 20 9d e5  	ldr	r2, [sp, #20]
   12fac: 00 10 a0 e1  	mov	r1, r0
   12fb0: 08 00 9d e5  	ldr	r0, [sp, #8]
   12fb4: 00 10 82 e5  	str	r1, [r2]
   12fb8: 24 00 8d e5  	str	r0, [sp, #36]
   12fbc: 24 00 9d e5  	ldr	r0, [sp, #36]
   12fc0: 0c 00 8d e5  	str	r0, [sp, #12]
   12fc4: 05 00 00 ea  	b	#20 <_ZN91_$LT$core..slice..iter..Iter$LT$T$GT$$u20$as$u20$core..iter..traits..iterator..Iterator$GT$4next17h09592dbd374f3d62E+0x10c>
   12fc8: 00 00 a0 e3  	mov	r0, #0
   12fcc: 1c 00 8d e5  	str	r0, [sp, #28]
   12fd0: ff ff ff ea  	b	#-4 <_ZN91_$LT$core..slice..iter..Iter$LT$T$GT$$u20$as$u20$core..iter..traits..iterator..Iterator$GT$4next17h09592dbd374f3d62E+0x100>
   12fd4: 1c 00 9d e5  	ldr	r0, [sp, #28]
   12fd8: 40 d0 8d e2  	add	sp, sp, #64
   12fdc: 00 88 bd e8  	pop	{r11, pc}
   12fe0: 0c 00 9d e5  	ldr	r0, [sp, #12]
   12fe4: 1c 00 8d e5  	str	r0, [sp, #28]
   12fe8: f9 ff ff ea  	b	#-28 <_ZN91_$LT$core..slice..iter..Iter$LT$T$GT$$u20$as$u20$core..iter..traits..iterator..Iterator$GT$4next17h09592dbd374f3d62E+0x100>

00012fec <_ZN91_$LT$core..slice..iter..Iter$LT$T$GT$$u20$as$u20$core..iter..traits..iterator..Iterator$GT$4next17h385cdd3a3cf20cddE>:
   12fec: 00 48 2d e9  	push	{r11, lr}
   12ff0: 40 d0 4d e2  	sub	sp, sp, #64
   12ff4: 14 00 8d e5  	str	r0, [sp, #20]
   12ff8: 20 00 8d e5  	str	r0, [sp, #32]
   12ffc: 00 00 90 e5  	ldr	r0, [r0]
   13000: 73 db ff eb  	bl	#-37428 <_ZN4core3ptr8non_null16NonNull$LT$T$GT$6as_ptr17he636665efe449a92E>
   13004: 18 00 8d e5  	str	r0, [sp, #24]
   13008: ff ff ff ea  	b	#-4 <_ZN91_$LT$core..slice..iter..Iter$LT$T$GT$$u20$as$u20$core..iter..traits..iterator..Iterator$GT$4next17h385cdd3a3cf20cddE+0x20>
   1300c: 18 00 9d e5  	ldr	r0, [sp, #24]
   13010: 52 dc ff eb  	bl	#-36536 <_ZN4core3ptr7mut_ptr31_$LT$impl$u20$$BP$mut$u20$T$GT$7is_null17hdfc7f1fcc93be4b4E>
   13014: ff ff ff ea  	b	#-4 <_ZN91_$LT$core..slice..iter..Iter$LT$T$GT$$u20$as$u20$core..iter..traits..iterator..Iterator$GT$4next17h385cdd3a3cf20cddE+0x2c>
   13018: ff ff ff ea  	b	#-4 <_ZN91_$LT$core..slice..iter..Iter$LT$T$GT$$u20$as$u20$core..iter..traits..iterator..Iterator$GT$4next17h385cdd3a3cf20cddE+0x30>
   1301c: ff ff ff ea  	b	#-4 <_ZN91_$LT$core..slice..iter..Iter$LT$T$GT$$u20$as$u20$core..iter..traits..iterator..Iterator$GT$4next17h385cdd3a3cf20cddE+0x34>
   13020: 01 00 a0 e3  	mov	r0, #1
   13024: 00 00 50 e3  	cmp	r0, #0
   13028: 05 00 00 1a  	bne	#20 <_ZN91_$LT$core..slice..iter..Iter$LT$T$GT$$u20$as$u20$core..iter..traits..iterator..Iterator$GT$4next17h385cdd3a3cf20cddE+0x58>
   1302c: ff ff ff ea  	b	#-4 <_ZN91_$LT$core..slice..iter..Iter$LT$T$GT$$u20$as$u20$core..iter..traits..iterator..Iterator$GT$4next17h385cdd3a3cf20cddE+0x44>
   13030: 14 00 9d e5  	ldr	r0, [sp, #20]
   13034: 00 00 90 e5  	ldr	r0, [r0]
   13038: 65 db ff eb  	bl	#-37484 <_ZN4core3ptr8non_null16NonNull$LT$T$GT$6as_ptr17he636665efe449a92E>
   1303c: 10 00 8d e5  	str	r0, [sp, #16]
   13040: 04 00 00 ea  	b	#16 <_ZN91_$LT$core..slice..iter..Iter$LT$T$GT$$u20$as$u20$core..iter..traits..iterator..Iterator$GT$4next17h385cdd3a3cf20cddE+0x6c>
   13044: 14 00 9d e5  	ldr	r0, [sp, #20]
   13048: 04 00 90 e5  	ldr	r0, [r0, #4]
   1304c: a4 db ff eb  	bl	#-37232 <_ZN4core3ptr9const_ptr33_$LT$impl$u20$$BP$const$u20$T$GT$7is_null17ha3dab16996a599e5E>
   13050: ff ff ff ea  	b	#-4 <_ZN91_$LT$core..slice..iter..Iter$LT$T$GT$$u20$as$u20$core..iter..traits..iterator..Iterator$GT$4next17h385cdd3a3cf20cddE+0x68>
   13054: f5 ff ff ea  	b	#-44 <_ZN91_$LT$core..slice..iter..Iter$LT$T$GT$$u20$as$u20$core..iter..traits..iterator..Iterator$GT$4next17h385cdd3a3cf20cddE+0x44>
   13058: 10 00 9d e5  	ldr	r0, [sp, #16]
   1305c: 14 10 9d e5  	ldr	r1, [sp, #20]
   13060: 04 10 91 e5  	ldr	r1, [r1, #4]
   13064: 01 00 50 e1  	cmp	r0, r1
   13068: 1c 00 00 0a  	beq	#112 <_ZN91_$LT$core..slice..iter..Iter$LT$T$GT$$u20$as$u20$core..iter..traits..iterator..Iterator$GT$4next17h385cdd3a3cf20cddE+0xf4>
   1306c: ff ff ff ea  	b	#-4 <_ZN91_$LT$core..slice..iter..Iter$LT$T$GT$$u20$as$u20$core..iter..traits..iterator..Iterator$GT$4next17h385cdd3a3cf20cddE+0x84>
   13070: 14 00 9d e5  	ldr	r0, [sp, #20]
   13074: 28 00 8d e5  	str	r0, [sp, #40]
   13078: 01 10 a0 e3  	mov	r1, #1
   1307c: 04 10 8d e5  	str	r1, [sp, #4]
   13080: 2c 10 8d e5  	str	r1, [sp, #44]
   13084: 00 00 90 e5  	ldr	r0, [r0]
   13088: 51 db ff eb  	bl	#-37564 <_ZN4core3ptr8non_null16NonNull$LT$T$GT$6as_ptr17he636665efe449a92E>
   1308c: 00 10 a0 e1  	mov	r1, r0
   13090: 14 00 9d e5  	ldr	r0, [sp, #20]
   13094: 08 10 8d e5  	str	r1, [sp, #8]
   13098: 30 10 8d e5  	str	r1, [sp, #48]
   1309c: 00 00 90 e5  	ldr	r0, [r0]
   130a0: 4b db ff eb  	bl	#-37588 <_ZN4core3ptr8non_null16NonNull$LT$T$GT$6as_ptr17he636665efe449a92E>
   130a4: 04 10 9d e5  	ldr	r1, [sp, #4]
   130a8: 34 00 8d e5  	str	r0, [sp, #52]
   130ac: 38 10 8d e5  	str	r1, [sp, #56]
   130b0: 10 00 80 e2  	add	r0, r0, #16
   130b4: 3c 00 8d e5  	str	r0, [sp, #60]
   130b8: 3c 00 9d e5  	ldr	r0, [sp, #60]
   130bc: 26 db ff eb  	bl	#-37736 <_ZN4core3ptr8non_null16NonNull$LT$T$GT$13new_unchecked17h9fac1d850925ce4dE>
   130c0: 14 20 9d e5  	ldr	r2, [sp, #20]
   130c4: 00 10 a0 e1  	mov	r1, r0
   130c8: 08 00 9d e5  	ldr	r0, [sp, #8]
   130cc: 00 10 82 e5  	str	r1, [r2]
   130d0: 24 00 8d e5  	str	r0, [sp, #36]
   130d4: 24 00 9d e5  	ldr	r0, [sp, #36]
   130d8: 0c 00 8d e5  	str	r0, [sp, #12]
   130dc: 05 00 00 ea  	b	#20 <_ZN91_$LT$core..slice..iter..Iter$LT$T$GT$$u20$as$u20$core..iter..traits..iterator..Iterator$GT$4next17h385cdd3a3cf20cddE+0x10c>
   130e0: 00 00 a0 e3  	mov	r0, #0
   130e4: 1c 00 8d e5  	str	r0, [sp, #28]
   130e8: ff ff ff ea  	b	#-4 <_ZN91_$LT$core..slice..iter..Iter$LT$T$GT$$u20$as$u20$core..iter..traits..iterator..Iterator$GT$4next17h385cdd3a3cf20cddE+0x100>
   130ec: 1c 00 9d e5  	ldr	r0, [sp, #28]
   130f0: 40 d0 8d e2  	add	sp, sp, #64
   130f4: 00 88 bd e8  	pop	{r11, pc}
   130f8: 0c 00 9d e5  	ldr	r0, [sp, #12]
   130fc: 1c 00 8d e5  	str	r0, [sp, #28]
   13100: f9 ff ff ea  	b	#-28 <_ZN91_$LT$core..slice..iter..Iter$LT$T$GT$$u20$as$u20$core..iter..traits..iterator..Iterator$GT$4next17h385cdd3a3cf20cddE+0x100>

00013104 <_ZN91_$LT$core..slice..iter..Iter$LT$T$GT$$u20$as$u20$core..iter..traits..iterator..Iterator$GT$4next17h42b8e2d1e4f97919E>:
   13104: 00 48 2d e9  	push	{r11, lr}
   13108: 40 d0 4d e2  	sub	sp, sp, #64
   1310c: 14 00 8d e5  	str	r0, [sp, #20]
   13110: 20 00 8d e5  	str	r0, [sp, #32]
   13114: 00 00 90 e5  	ldr	r0, [r0]
   13118: 35 db ff eb  	bl	#-37676 <_ZN4core3ptr8non_null16NonNull$LT$T$GT$6as_ptr17hf9d79c67c5818bafE>
   1311c: 18 00 8d e5  	str	r0, [sp, #24]
   13120: ff ff ff ea  	b	#-4 <_ZN91_$LT$core..slice..iter..Iter$LT$T$GT$$u20$as$u20$core..iter..traits..iterator..Iterator$GT$4next17h42b8e2d1e4f97919E+0x20>
   13124: 18 00 9d e5  	ldr	r0, [sp, #24]
   13128: d4 db ff eb  	bl	#-37040 <_ZN4core3ptr7mut_ptr31_$LT$impl$u20$$BP$mut$u20$T$GT$7is_null17h3b9b5ff4a0433e48E>
   1312c: ff ff ff ea  	b	#-4 <_ZN91_$LT$core..slice..iter..Iter$LT$T$GT$$u20$as$u20$core..iter..traits..iterator..Iterator$GT$4next17h42b8e2d1e4f97919E+0x2c>
   13130: ff ff ff ea  	b	#-4 <_ZN91_$LT$core..slice..iter..Iter$LT$T$GT$$u20$as$u20$core..iter..traits..iterator..Iterator$GT$4next17h42b8e2d1e4f97919E+0x30>
   13134: ff ff ff ea  	b	#-4 <_ZN91_$LT$core..slice..iter..Iter$LT$T$GT$$u20$as$u20$core..iter..traits..iterator..Iterator$GT$4next17h42b8e2d1e4f97919E+0x34>
   13138: 01 00 a0 e3  	mov	r0, #1
   1313c: 00 00 50 e3  	cmp	r0, #0
   13140: 05 00 00 1a  	bne	#20 <_ZN91_$LT$core..slice..iter..Iter$LT$T$GT$$u20$as$u20$core..iter..traits..iterator..Iterator$GT$4next17h42b8e2d1e4f97919E+0x58>
   13144: ff ff ff ea  	b	#-4 <_ZN91_$LT$core..slice..iter..Iter$LT$T$GT$$u20$as$u20$core..iter..traits..iterator..Iterator$GT$4next17h42b8e2d1e4f97919E+0x44>
   13148: 14 00 9d e5  	ldr	r0, [sp, #20]
   1314c: 00 00 90 e5  	ldr	r0, [r0]
   13150: 27 db ff eb  	bl	#-37732 <_ZN4core3ptr8non_null16NonNull$LT$T$GT$6as_ptr17hf9d79c67c5818bafE>
   13154: 10 00 8d e5  	str	r0, [sp, #16]
   13158: 04 00 00 ea  	b	#16 <_ZN91_$LT$core..slice..iter..Iter$LT$T$GT$$u20$as$u20$core..iter..traits..iterator..Iterator$GT$4next17h42b8e2d1e4f97919E+0x6c>
   1315c: 14 00 9d e5  	ldr	r0, [sp, #20]
   13160: 04 00 90 e5  	ldr	r0, [r0, #4]
   13164: 50 db ff eb  	bl	#-37568 <_ZN4core3ptr9const_ptr33_$LT$impl$u20$$BP$const$u20$T$GT$7is_null17ha263ef11114199f5E>
   13168: ff ff ff ea  	b	#-4 <_ZN91_$LT$core..slice..iter..Iter$LT$T$GT$$u20$as$u20$core..iter..traits..iterator..Iterator$GT$4next17h42b8e2d1e4f97919E+0x68>
   1316c: f5 ff ff ea  	b	#-44 <_ZN91_$LT$core..slice..iter..Iter$LT$T$GT$$u20$as$u20$core..iter..traits..iterator..Iterator$GT$4next17h42b8e2d1e4f97919E+0x44>
   13170: 10 00 9d e5  	ldr	r0, [sp, #16]
   13174: 14 10 9d e5  	ldr	r1, [sp, #20]
   13178: 04 10 91 e5  	ldr	r1, [r1, #4]
   1317c: 01 00 50 e1  	cmp	r0, r1
   13180: 1c 00 00 0a  	beq	#112 <_ZN91_$LT$core..slice..iter..Iter$LT$T$GT$$u20$as$u20$core..iter..traits..iterator..Iterator$GT$4next17h42b8e2d1e4f97919E+0xf4>
   13184: ff ff ff ea  	b	#-4 <_ZN91_$LT$core..slice..iter..Iter$LT$T$GT$$u20$as$u20$core..iter..traits..iterator..Iterator$GT$4next17h42b8e2d1e4f97919E+0x84>
   13188: 14 00 9d e5  	ldr	r0, [sp, #20]
   1318c: 28 00 8d e5  	str	r0, [sp, #40]
   13190: 01 10 a0 e3  	mov	r1, #1
   13194: 04 10 8d e5  	str	r1, [sp, #4]
   13198: 2c 10 8d e5  	str	r1, [sp, #44]
   1319c: 00 00 90 e5  	ldr	r0, [r0]
   131a0: 13 db ff eb  	bl	#-37812 <_ZN4core3ptr8non_null16NonNull$LT$T$GT$6as_ptr17hf9d79c67c5818bafE>
   131a4: 00 10 a0 e1  	mov	r1, r0
   131a8: 14 00 9d e5  	ldr	r0, [sp, #20]
   131ac: 08 10 8d e5  	str	r1, [sp, #8]
   131b0: 30 10 8d e5  	str	r1, [sp, #48]
   131b4: 00 00 90 e5  	ldr	r0, [r0]
   131b8: 0d db ff eb  	bl	#-37836 <_ZN4core3ptr8non_null16NonNull$LT$T$GT$6as_ptr17hf9d79c67c5818bafE>
   131bc: 04 10 9d e5  	ldr	r1, [sp, #4]
   131c0: 34 00 8d e5  	str	r0, [sp, #52]
   131c4: 38 10 8d e5  	str	r1, [sp, #56]
   131c8: 04 00 80 e2  	add	r0, r0, #4
   131cc: 3c 00 8d e5  	str	r0, [sp, #60]
   131d0: 3c 00 9d e5  	ldr	r0, [sp, #60]
   131d4: ce da ff eb  	bl	#-38088 <_ZN4core3ptr8non_null16NonNull$LT$T$GT$13new_unchecked17h0ee93a64da3b0115E>
   131d8: 14 20 9d e5  	ldr	r2, [sp, #20]
   131dc: 00 10 a0 e1  	mov	r1, r0
   131e0: 08 00 9d e5  	ldr	r0, [sp, #8]
   131e4: 00 10 82 e5  	str	r1, [r2]
   131e8: 24 00 8d e5  	str	r0, [sp, #36]
   131ec: 24 00 9d e5  	ldr	r0, [sp, #36]
   131f0: 0c 00 8d e5  	str	r0, [sp, #12]
   131f4: 05 00 00 ea  	b	#20 <_ZN91_$LT$core..slice..iter..Iter$LT$T$GT$$u20$as$u20$core..iter..traits..iterator..Iterator$GT$4next17h42b8e2d1e4f97919E+0x10c>
   131f8: 00 00 a0 e3  	mov	r0, #0
   131fc: 1c 00 8d e5  	str	r0, [sp, #28]
   13200: ff ff ff ea  	b	#-4 <_ZN91_$LT$core..slice..iter..Iter$LT$T$GT$$u20$as$u20$core..iter..traits..iterator..Iterator$GT$4next17h42b8e2d1e4f97919E+0x100>
   13204: 1c 00 9d e5  	ldr	r0, [sp, #28]
   13208: 40 d0 8d e2  	add	sp, sp, #64
   1320c: 00 88 bd e8  	pop	{r11, pc}
   13210: 0c 00 9d e5  	ldr	r0, [sp, #12]
   13214: 1c 00 8d e5  	str	r0, [sp, #28]
   13218: f9 ff ff ea  	b	#-28 <_ZN91_$LT$core..slice..iter..Iter$LT$T$GT$$u20$as$u20$core..iter..traits..iterator..Iterator$GT$4next17h42b8e2d1e4f97919E+0x100>

0001321c <_ZN91_$LT$core..slice..iter..Iter$LT$T$GT$$u20$as$u20$core..iter..traits..iterator..Iterator$GT$4next17h8b9620239a978897E>:
   1321c: 00 48 2d e9  	push	{r11, lr}
   13220: 40 d0 4d e2  	sub	sp, sp, #64
   13224: 14 00 8d e5  	str	r0, [sp, #20]
   13228: 20 00 8d e5  	str	r0, [sp, #32]
   1322c: 00 00 90 e5  	ldr	r0, [r0]
   13230: eb da ff eb  	bl	#-37972 <_ZN4core3ptr8non_null16NonNull$LT$T$GT$6as_ptr17he93dfc44e8018818E>
   13234: 18 00 8d e5  	str	r0, [sp, #24]
   13238: ff ff ff ea  	b	#-4 <_ZN91_$LT$core..slice..iter..Iter$LT$T$GT$$u20$as$u20$core..iter..traits..iterator..Iterator$GT$4next17h8b9620239a978897E+0x20>
   1323c: 18 00 9d e5  	ldr	r0, [sp, #24]
   13240: d4 db ff eb  	bl	#-37040 <_ZN4core3ptr7mut_ptr31_$LT$impl$u20$$BP$mut$u20$T$GT$7is_null17he2aafd5fc4a2f886E>
   13244: ff ff ff ea  	b	#-4 <_ZN91_$LT$core..slice..iter..Iter$LT$T$GT$$u20$as$u20$core..iter..traits..iterator..Iterator$GT$4next17h8b9620239a978897E+0x2c>
   13248: ff ff ff ea  	b	#-4 <_ZN91_$LT$core..slice..iter..Iter$LT$T$GT$$u20$as$u20$core..iter..traits..iterator..Iterator$GT$4next17h8b9620239a978897E+0x30>
   1324c: ff ff ff ea  	b	#-4 <_ZN91_$LT$core..slice..iter..Iter$LT$T$GT$$u20$as$u20$core..iter..traits..iterator..Iterator$GT$4next17h8b9620239a978897E+0x34>
   13250: 01 00 a0 e3  	mov	r0, #1
   13254: 00 00 50 e3  	cmp	r0, #0
   13258: 05 00 00 1a  	bne	#20 <_ZN91_$LT$core..slice..iter..Iter$LT$T$GT$$u20$as$u20$core..iter..traits..iterator..Iterator$GT$4next17h8b9620239a978897E+0x58>
   1325c: ff ff ff ea  	b	#-4 <_ZN91_$LT$core..slice..iter..Iter$LT$T$GT$$u20$as$u20$core..iter..traits..iterator..Iterator$GT$4next17h8b9620239a978897E+0x44>
   13260: 14 00 9d e5  	ldr	r0, [sp, #20]
   13264: 00 00 90 e5  	ldr	r0, [r0]
   13268: dd da ff eb  	bl	#-38028 <_ZN4core3ptr8non_null16NonNull$LT$T$GT$6as_ptr17he93dfc44e8018818E>
   1326c: 10 00 8d e5  	str	r0, [sp, #16]
   13270: 04 00 00 ea  	b	#16 <_ZN91_$LT$core..slice..iter..Iter$LT$T$GT$$u20$as$u20$core..iter..traits..iterator..Iterator$GT$4next17h8b9620239a978897E+0x6c>
   13274: 14 00 9d e5  	ldr	r0, [sp, #20]
   13278: 04 00 90 e5  	ldr	r0, [r0, #4]
   1327c: ee da ff eb  	bl	#-37960 <_ZN4core3ptr9const_ptr33_$LT$impl$u20$$BP$const$u20$T$GT$7is_null17h099dd4bded18252fE>
   13280: ff ff ff ea  	b	#-4 <_ZN91_$LT$core..slice..iter..Iter$LT$T$GT$$u20$as$u20$core..iter..traits..iterator..Iterator$GT$4next17h8b9620239a978897E+0x68>
   13284: f5 ff ff ea  	b	#-44 <_ZN91_$LT$core..slice..iter..Iter$LT$T$GT$$u20$as$u20$core..iter..traits..iterator..Iterator$GT$4next17h8b9620239a978897E+0x44>
   13288: 10 00 9d e5  	ldr	r0, [sp, #16]
   1328c: 14 10 9d e5  	ldr	r1, [sp, #20]
   13290: 04 10 91 e5  	ldr	r1, [r1, #4]
   13294: 01 00 50 e1  	cmp	r0, r1
   13298: 1c 00 00 0a  	beq	#112 <_ZN91_$LT$core..slice..iter..Iter$LT$T$GT$$u20$as$u20$core..iter..traits..iterator..Iterator$GT$4next17h8b9620239a978897E+0xf4>
   1329c: ff ff ff ea  	b	#-4 <_ZN91_$LT$core..slice..iter..Iter$LT$T$GT$$u20$as$u20$core..iter..traits..iterator..Iterator$GT$4next17h8b9620239a978897E+0x84>
   132a0: 14 00 9d e5  	ldr	r0, [sp, #20]
   132a4: 28 00 8d e5  	str	r0, [sp, #40]
   132a8: 01 10 a0 e3  	mov	r1, #1
   132ac: 04 10 8d e5  	str	r1, [sp, #4]
   132b0: 2c 10 8d e5  	str	r1, [sp, #44]
   132b4: 00 00 90 e5  	ldr	r0, [r0]
   132b8: c9 da ff eb  	bl	#-38108 <_ZN4core3ptr8non_null16NonNull$LT$T$GT$6as_ptr17he93dfc44e8018818E>
   132bc: 00 10 a0 e1  	mov	r1, r0
   132c0: 14 00 9d e5  	ldr	r0, [sp, #20]
   132c4: 08 10 8d e5  	str	r1, [sp, #8]
   132c8: 30 10 8d e5  	str	r1, [sp, #48]
   132cc: 00 00 90 e5  	ldr	r0, [r0]
   132d0: c3 da ff eb  	bl	#-38132 <_ZN4core3ptr8non_null16NonNull$LT$T$GT$6as_ptr17he93dfc44e8018818E>
   132d4: 04 10 9d e5  	ldr	r1, [sp, #4]
   132d8: 34 00 8d e5  	str	r0, [sp, #52]
   132dc: 38 10 8d e5  	str	r1, [sp, #56]
   132e0: 20 00 80 e2  	add	r0, r0, #32
   132e4: 3c 00 8d e5  	str	r0, [sp, #60]
   132e8: 3c 00 9d e5  	ldr	r0, [sp, #60]
   132ec: a6 da ff eb  	bl	#-38248 <_ZN4core3ptr8non_null16NonNull$LT$T$GT$13new_unchecked17he5acd71300b46a98E>
   132f0: 14 20 9d e5  	ldr	r2, [sp, #20]
   132f4: 00 10 a0 e1  	mov	r1, r0
   132f8: 08 00 9d e5  	ldr	r0, [sp, #8]
   132fc: 00 10 82 e5  	str	r1, [r2]
   13300: 24 00 8d e5  	str	r0, [sp, #36]
   13304: 24 00 9d e5  	ldr	r0, [sp, #36]
   13308: 0c 00 8d e5  	str	r0, [sp, #12]
   1330c: 05 00 00 ea  	b	#20 <_ZN91_$LT$core..slice..iter..Iter$LT$T$GT$$u20$as$u20$core..iter..traits..iterator..Iterator$GT$4next17h8b9620239a978897E+0x10c>
   13310: 00 00 a0 e3  	mov	r0, #0
   13314: 1c 00 8d e5  	str	r0, [sp, #28]
   13318: ff ff ff ea  	b	#-4 <_ZN91_$LT$core..slice..iter..Iter$LT$T$GT$$u20$as$u20$core..iter..traits..iterator..Iterator$GT$4next17h8b9620239a978897E+0x100>
   1331c: 1c 00 9d e5  	ldr	r0, [sp, #28]
   13320: 40 d0 8d e2  	add	sp, sp, #64
   13324: 00 88 bd e8  	pop	{r11, pc}
   13328: 0c 00 9d e5  	ldr	r0, [sp, #12]
   1332c: 1c 00 8d e5  	str	r0, [sp, #28]
   13330: f9 ff ff ea  	b	#-28 <_ZN91_$LT$core..slice..iter..Iter$LT$T$GT$$u20$as$u20$core..iter..traits..iterator..Iterator$GT$4next17h8b9620239a978897E+0x100>

00013334 <_ZN91_$LT$core..slice..iter..Iter$LT$T$GT$$u20$as$u20$core..iter..traits..iterator..Iterator$GT$4next17he4c19282d38a2c08E>:
   13334: 00 48 2d e9  	push	{r11, lr}
   13338: 40 d0 4d e2  	sub	sp, sp, #64
   1333c: 14 00 8d e5  	str	r0, [sp, #20]
   13340: 20 00 8d e5  	str	r0, [sp, #32]
   13344: 00 00 90 e5  	ldr	r0, [r0]
   13348: 95 da ff eb  	bl	#-38316 <_ZN4core3ptr8non_null16NonNull$LT$T$GT$6as_ptr17h3c04a1b813cf7ee8E>
   1334c: 18 00 8d e5  	str	r0, [sp, #24]
   13350: ff ff ff ea  	b	#-4 <_ZN91_$LT$core..slice..iter..Iter$LT$T$GT$$u20$as$u20$core..iter..traits..iterator..Iterator$GT$4next17he4c19282d38a2c08E+0x20>
   13354: 18 00 9d e5  	ldr	r0, [sp, #24]
   13358: 64 db ff eb  	bl	#-37488 <_ZN4core3ptr7mut_ptr31_$LT$impl$u20$$BP$mut$u20$T$GT$7is_null17hc32b3f5d78eeade4E>
   1335c: ff ff ff ea  	b	#-4 <_ZN91_$LT$core..slice..iter..Iter$LT$T$GT$$u20$as$u20$core..iter..traits..iterator..Iterator$GT$4next17he4c19282d38a2c08E+0x2c>
   13360: ff ff ff ea  	b	#-4 <_ZN91_$LT$core..slice..iter..Iter$LT$T$GT$$u20$as$u20$core..iter..traits..iterator..Iterator$GT$4next17he4c19282d38a2c08E+0x30>
   13364: ff ff ff ea  	b	#-4 <_ZN91_$LT$core..slice..iter..Iter$LT$T$GT$$u20$as$u20$core..iter..traits..iterator..Iterator$GT$4next17he4c19282d38a2c08E+0x34>
   13368: 01 00 a0 e3  	mov	r0, #1
   1336c: 00 00 50 e3  	cmp	r0, #0
   13370: 05 00 00 1a  	bne	#20 <_ZN91_$LT$core..slice..iter..Iter$LT$T$GT$$u20$as$u20$core..iter..traits..iterator..Iterator$GT$4next17he4c19282d38a2c08E+0x58>
   13374: ff ff ff ea  	b	#-4 <_ZN91_$LT$core..slice..iter..Iter$LT$T$GT$$u20$as$u20$core..iter..traits..iterator..Iterator$GT$4next17he4c19282d38a2c08E+0x44>
   13378: 14 00 9d e5  	ldr	r0, [sp, #20]
   1337c: 00 00 90 e5  	ldr	r0, [r0]
   13380: 87 da ff eb  	bl	#-38372 <_ZN4core3ptr8non_null16NonNull$LT$T$GT$6as_ptr17h3c04a1b813cf7ee8E>
   13384: 10 00 8d e5  	str	r0, [sp, #16]
   13388: 04 00 00 ea  	b	#16 <_ZN91_$LT$core..slice..iter..Iter$LT$T$GT$$u20$as$u20$core..iter..traits..iterator..Iterator$GT$4next17he4c19282d38a2c08E+0x6c>
   1338c: 14 00 9d e5  	ldr	r0, [sp, #20]
   13390: 04 00 90 e5  	ldr	r0, [r0, #4]
   13394: 9a da ff eb  	bl	#-38296 <_ZN4core3ptr9const_ptr33_$LT$impl$u20$$BP$const$u20$T$GT$7is_null17h01921eafcee4a16bE>
   13398: ff ff ff ea  	b	#-4 <_ZN91_$LT$core..slice..iter..Iter$LT$T$GT$$u20$as$u20$core..iter..traits..iterator..Iterator$GT$4next17he4c19282d38a2c08E+0x68>
   1339c: f5 ff ff ea  	b	#-44 <_ZN91_$LT$core..slice..iter..Iter$LT$T$GT$$u20$as$u20$core..iter..traits..iterator..Iterator$GT$4next17he4c19282d38a2c08E+0x44>
   133a0: 10 00 9d e5  	ldr	r0, [sp, #16]
   133a4: 14 10 9d e5  	ldr	r1, [sp, #20]
   133a8: 04 10 91 e5  	ldr	r1, [r1, #4]
   133ac: 01 00 50 e1  	cmp	r0, r1
   133b0: 1c 00 00 0a  	beq	#112 <_ZN91_$LT$core..slice..iter..Iter$LT$T$GT$$u20$as$u20$core..iter..traits..iterator..Iterator$GT$4next17he4c19282d38a2c08E+0xf4>
   133b4: ff ff ff ea  	b	#-4 <_ZN91_$LT$core..slice..iter..Iter$LT$T$GT$$u20$as$u20$core..iter..traits..iterator..Iterator$GT$4next17he4c19282d38a2c08E+0x84>
   133b8: 14 00 9d e5  	ldr	r0, [sp, #20]
   133bc: 28 00 8d e5  	str	r0, [sp, #40]
   133c0: 01 10 a0 e3  	mov	r1, #1
   133c4: 04 10 8d e5  	str	r1, [sp, #4]
   133c8: 2c 10 8d e5  	str	r1, [sp, #44]
   133cc: 00 00 90 e5  	ldr	r0, [r0]
   133d0: 73 da ff eb  	bl	#-38452 <_ZN4core3ptr8non_null16NonNull$LT$T$GT$6as_ptr17h3c04a1b813cf7ee8E>
   133d4: 00 10 a0 e1  	mov	r1, r0
   133d8: 14 00 9d e5  	ldr	r0, [sp, #20]
   133dc: 08 10 8d e5  	str	r1, [sp, #8]
   133e0: 30 10 8d e5  	str	r1, [sp, #48]
   133e4: 00 00 90 e5  	ldr	r0, [r0]
   133e8: 6d da ff eb  	bl	#-38476 <_ZN4core3ptr8non_null16NonNull$LT$T$GT$6as_ptr17h3c04a1b813cf7ee8E>
   133ec: 04 10 9d e5  	ldr	r1, [sp, #4]
   133f0: 34 00 8d e5  	str	r0, [sp, #52]
   133f4: 38 10 8d e5  	str	r1, [sp, #56]
   133f8: 08 00 80 e2  	add	r0, r0, #8
   133fc: 3c 00 8d e5  	str	r0, [sp, #60]
   13400: 3c 00 9d e5  	ldr	r0, [sp, #60]
   13404: 48 da ff eb  	bl	#-38624 <_ZN4core3ptr8non_null16NonNull$LT$T$GT$13new_unchecked17h311ebeac35d490ecE>
   13408: 14 20 9d e5  	ldr	r2, [sp, #20]
   1340c: 00 10 a0 e1  	mov	r1, r0
   13410: 08 00 9d e5  	ldr	r0, [sp, #8]
   13414: 00 10 82 e5  	str	r1, [r2]
   13418: 24 00 8d e5  	str	r0, [sp, #36]
   1341c: 24 00 9d e5  	ldr	r0, [sp, #36]
   13420: 0c 00 8d e5  	str	r0, [sp, #12]
   13424: 05 00 00 ea  	b	#20 <_ZN91_$LT$core..slice..iter..Iter$LT$T$GT$$u20$as$u20$core..iter..traits..iterator..Iterator$GT$4next17he4c19282d38a2c08E+0x10c>
   13428: 00 00 a0 e3  	mov	r0, #0
   1342c: 1c 00 8d e5  	str	r0, [sp, #28]
   13430: ff ff ff ea  	b	#-4 <_ZN91_$LT$core..slice..iter..Iter$LT$T$GT$$u20$as$u20$core..iter..traits..iterator..Iterator$GT$4next17he4c19282d38a2c08E+0x100>
   13434: 1c 00 9d e5  	ldr	r0, [sp, #28]
   13438: 40 d0 8d e2  	add	sp, sp, #64
   1343c: 00 88 bd e8  	pop	{r11, pc}
   13440: 0c 00 9d e5  	ldr	r0, [sp, #12]
   13444: 1c 00 8d e5  	str	r0, [sp, #28]
   13448: f9 ff ff ea  	b	#-28 <_ZN91_$LT$core..slice..iter..Iter$LT$T$GT$$u20$as$u20$core..iter..traits..iterator..Iterator$GT$4next17he4c19282d38a2c08E+0x100>

0001344c <_ZN109_$LT$core..slice..iter..IterMut$LT$T$GT$$u20$as$u20$core..iter..traits..double_ended..DoubleEndedIterator$GT$9next_back17h7431d0be338170dbE>:
   1344c: 00 48 2d e9  	push	{r11, lr}
   13450: 38 d0 4d e2  	sub	sp, sp, #56
   13454: 10 00 8d e5  	str	r0, [sp, #16]
   13458: 1c 00 8d e5  	str	r0, [sp, #28]
   1345c: 00 00 90 e5  	ldr	r0, [r0]
   13460: 57 da ff eb  	bl	#-38564 <_ZN4core3ptr8non_null16NonNull$LT$T$GT$6as_ptr17hd1053c8517587e17E>
   13464: 14 00 8d e5  	str	r0, [sp, #20]
   13468: ff ff ff ea  	b	#-4 <_ZN109_$LT$core..slice..iter..IterMut$LT$T$GT$$u20$as$u20$core..iter..traits..double_ended..DoubleEndedIterator$GT$9next_back17h7431d0be338170dbE+0x20>
   1346c: 14 00 9d e5  	ldr	r0, [sp, #20]
   13470: 10 db ff eb  	bl	#-37824 <_ZN4core3ptr7mut_ptr31_$LT$impl$u20$$BP$mut$u20$T$GT$7is_null17h90840b4ddc66cc04E>
   13474: ff ff ff ea  	b	#-4 <_ZN109_$LT$core..slice..iter..IterMut$LT$T$GT$$u20$as$u20$core..iter..traits..double_ended..DoubleEndedIterator$GT$9next_back17h7431d0be338170dbE+0x2c>
   13478: ff ff ff ea  	b	#-4 <_ZN109_$LT$core..slice..iter..IterMut$LT$T$GT$$u20$as$u20$core..iter..traits..double_ended..DoubleEndedIterator$GT$9next_back17h7431d0be338170dbE+0x30>
   1347c: ff ff ff ea  	b	#-4 <_ZN109_$LT$core..slice..iter..IterMut$LT$T$GT$$u20$as$u20$core..iter..traits..double_ended..DoubleEndedIterator$GT$9next_back17h7431d0be338170dbE+0x34>
   13480: 01 00 a0 e3  	mov	r0, #1
   13484: 00 00 50 e3  	cmp	r0, #0
   13488: 05 00 00 1a  	bne	#20 <_ZN109_$LT$core..slice..iter..IterMut$LT$T$GT$$u20$as$u20$core..iter..traits..double_ended..DoubleEndedIterator$GT$9next_back17h7431d0be338170dbE+0x58>
   1348c: ff ff ff ea  	b	#-4 <_ZN109_$LT$core..slice..iter..IterMut$LT$T$GT$$u20$as$u20$core..iter..traits..double_ended..DoubleEndedIterator$GT$9next_back17h7431d0be338170dbE+0x44>
   13490: 10 00 9d e5  	ldr	r0, [sp, #16]
   13494: 00 00 90 e5  	ldr	r0, [r0]
   13498: 49 da ff eb  	bl	#-38620 <_ZN4core3ptr8non_null16NonNull$LT$T$GT$6as_ptr17hd1053c8517587e17E>
   1349c: 0c 00 8d e5  	str	r0, [sp, #12]
   134a0: 04 00 00 ea  	b	#16 <_ZN109_$LT$core..slice..iter..IterMut$LT$T$GT$$u20$as$u20$core..iter..traits..double_ended..DoubleEndedIterator$GT$9next_back17h7431d0be338170dbE+0x6c>
   134a4: 10 00 9d e5  	ldr	r0, [sp, #16]
   134a8: 04 00 90 e5  	ldr	r0, [r0, #4]
   134ac: 01 db ff eb  	bl	#-37884 <_ZN4core3ptr7mut_ptr31_$LT$impl$u20$$BP$mut$u20$T$GT$7is_null17h90840b4ddc66cc04E>
   134b0: ff ff ff ea  	b	#-4 <_ZN109_$LT$core..slice..iter..IterMut$LT$T$GT$$u20$as$u20$core..iter..traits..double_ended..DoubleEndedIterator$GT$9next_back17h7431d0be338170dbE+0x68>
   134b4: f5 ff ff ea  	b	#-44 <_ZN109_$LT$core..slice..iter..IterMut$LT$T$GT$$u20$as$u20$core..iter..traits..double_ended..DoubleEndedIterator$GT$9next_back17h7431d0be338170dbE+0x44>
   134b8: 0c 00 9d e5  	ldr	r0, [sp, #12]
   134bc: 10 10 9d e5  	ldr	r1, [sp, #16]
   134c0: 04 10 91 e5  	ldr	r1, [r1, #4]
   134c4: 01 00 50 e1  	cmp	r0, r1
   134c8: 1c 00 00 0a  	beq	#112 <_ZN109_$LT$core..slice..iter..IterMut$LT$T$GT$$u20$as$u20$core..iter..traits..double_ended..DoubleEndedIterator$GT$9next_back17h7431d0be338170dbE+0xf4>
   134cc: ff ff ff ea  	b	#-4 <_ZN109_$LT$core..slice..iter..IterMut$LT$T$GT$$u20$as$u20$core..iter..traits..double_ended..DoubleEndedIterator$GT$9next_back17h7431d0be338170dbE+0x84>
   134d0: 10 10 9d e5  	ldr	r1, [sp, #16]
   134d4: 24 10 8d e5  	str	r1, [sp, #36]
   134d8: 01 00 a0 e3  	mov	r0, #1
   134dc: 28 00 8d e5  	str	r0, [sp, #40]
   134e0: 04 10 91 e5  	ldr	r1, [r1, #4]
   134e4: 08 10 8d e5  	str	r1, [sp, #8]
   134e8: 00 00 50 e3  	cmp	r0, #0
   134ec: 05 00 00 1a  	bne	#20 <_ZN109_$LT$core..slice..iter..IterMut$LT$T$GT$$u20$as$u20$core..iter..traits..double_ended..DoubleEndedIterator$GT$9next_back17h7431d0be338170dbE+0xbc>
   134f0: ff ff ff ea  	b	#-4 <_ZN109_$LT$core..slice..iter..IterMut$LT$T$GT$$u20$as$u20$core..iter..traits..double_ended..DoubleEndedIterator$GT$9next_back17h7431d0be338170dbE+0xa8>
   134f4: 68 00 9f e5  	ldr	r0, [pc, #104]
   134f8: 68 20 9f e5  	ldr	r2, [pc, #104]
   134fc: 1f 10 a0 e3  	mov	r1, #31
   13500: 6b e2 ff eb  	bl	#-30292 <_ZN4core9panicking5panic17h70f755644c6683e5E>
   13504: fe de ff e7  	trap
   13508: 10 00 9d e5  	ldr	r0, [sp, #16]
   1350c: 08 10 9d e5  	ldr	r1, [sp, #8]
   13510: 2c 10 8d e5  	str	r1, [sp, #44]
   13514: 00 20 e0 e3  	mvn	r2, #0
   13518: 30 20 8d e5  	str	r2, [sp, #48]
   1351c: 01 10 41 e2  	sub	r1, r1, #1
   13520: 34 10 8d e5  	str	r1, [sp, #52]
   13524: 34 10 9d e5  	ldr	r1, [sp, #52]
   13528: 04 10 80 e5  	str	r1, [r0, #4]
   1352c: 04 00 90 e5  	ldr	r0, [r0, #4]
   13530: 20 00 8d e5  	str	r0, [sp, #32]
   13534: 20 00 9d e5  	ldr	r0, [sp, #32]
   13538: 04 00 8d e5  	str	r0, [sp, #4]
   1353c: 05 00 00 ea  	b	#20 <_ZN109_$LT$core..slice..iter..IterMut$LT$T$GT$$u20$as$u20$core..iter..traits..double_ended..DoubleEndedIterator$GT$9next_back17h7431d0be338170dbE+0x10c>
   13540: 00 00 a0 e3  	mov	r0, #0
   13544: 18 00 8d e5  	str	r0, [sp, #24]
   13548: ff ff ff ea  	b	#-4 <_ZN109_$LT$core..slice..iter..IterMut$LT$T$GT$$u20$as$u20$core..iter..traits..double_ended..DoubleEndedIterator$GT$9next_back17h7431d0be338170dbE+0x100>
   1354c: 18 00 9d e5  	ldr	r0, [sp, #24]
   13550: 38 d0 8d e2  	add	sp, sp, #56
   13554: 00 88 bd e8  	pop	{r11, pc}
   13558: 04 00 9d e5  	ldr	r0, [sp, #4]
   1355c: 18 00 8d e5  	str	r0, [sp, #24]
   13560: f9 ff ff ea  	b	#-28 <_ZN109_$LT$core..slice..iter..IterMut$LT$T$GT$$u20$as$u20$core..iter..traits..double_ended..DoubleEndedIterator$GT$9next_back17h7431d0be338170dbE+0x100>

00013564 <$d.2987>:
   13564:	b0 52 01 00	.word	0x000152b0
   13568:	30 67 01 00	.word	0x00016730

0001356c <_ZN17compiler_builtins3int19specialized_div_rem11zero_div_fn17hf03c95b0b3dbbf31E>:
   1356c: 00 00 00 eb  	bl	#0 <_ZN4core4hint21unreachable_unchecked17hf4c0656ed966dd2fE>
   13570: fe de ff e7  	trap

00013574 <_ZN4core4hint21unreachable_unchecked17hf4c0656ed966dd2fE>:
   13574: fe de ff e7  	trap

00013578 <memcpy>:
   13578: 86 df 4d e2  	sub	sp, sp, #536
   1357c: 3c 00 8d e5  	str	r0, [sp, #60]
   13580: 40 00 8d e5  	str	r0, [sp, #64]
   13584: 44 10 8d e5  	str	r1, [sp, #68]
   13588: 48 20 8d e5  	str	r2, [sp, #72]
   1358c: 4c 00 8d e5  	str	r0, [sp, #76]
   13590: 50 10 8d e5  	str	r1, [sp, #80]
   13594: 54 20 8d e5  	str	r2, [sp, #84]
   13598: 54 00 9d e5  	ldr	r0, [sp, #84]
   1359c: 10 00 50 e3  	cmp	r0, #16
   135a0: 2b 01 00 3a  	blo	#1196 <memcpy+0x4dc>
   135a4: ff ff ff ea  	b	#-4 <memcpy+0x30>
   135a8: 4c 00 9d e5  	ldr	r0, [sp, #76]
   135ac: 0c 02 8d e5  	str	r0, [sp, #524]
   135b0: 00 10 a0 e3  	mov	r1, #0
   135b4: 10 12 8d e5  	str	r1, [sp, #528]
   135b8: 14 02 8d e5  	str	r0, [sp, #532]
   135bc: 00 00 60 e2  	rsb	r0, r0, #0
   135c0: 03 10 00 e2  	and	r1, r0, #3
   135c4: 34 10 8d e5  	str	r1, [sp, #52]
   135c8: 58 10 8d e5  	str	r1, [sp, #88]
   135cc: 4c 20 9d e5  	ldr	r2, [sp, #76]
   135d0: 50 00 9d e5  	ldr	r0, [sp, #80]
   135d4: 68 20 8d e5  	str	r2, [sp, #104]
   135d8: 6c 00 8d e5  	str	r0, [sp, #108]
   135dc: 70 10 8d e5  	str	r1, [sp, #112]
   135e0: 68 00 9d e5  	ldr	r0, [sp, #104]
   135e4: 80 01 8d e5  	str	r0, [sp, #384]
   135e8: 84 11 8d e5  	str	r1, [sp, #388]
   135ec: 88 01 8d e5  	str	r0, [sp, #392]
   135f0: 8c 11 8d e5  	str	r1, [sp, #396]
   135f4: 01 00 80 e0  	add	r0, r0, r1
   135f8: 90 01 8d e5  	str	r0, [sp, #400]
   135fc: 90 01 9d e5  	ldr	r0, [sp, #400]
   13600: 38 00 8d e5  	str	r0, [sp, #56]
   13604: 74 00 8d e5  	str	r0, [sp, #116]
   13608: ff ff ff ea  	b	#-4 <memcpy+0x94>
   1360c: 38 10 9d e5  	ldr	r1, [sp, #56]
   13610: 68 00 9d e5  	ldr	r0, [sp, #104]
   13614: 01 00 50 e1  	cmp	r0, r1
   13618: 18 00 00 2a  	bhs	#96 <memcpy+0x108>
   1361c: ff ff ff ea  	b	#-4 <memcpy+0xa8>
   13620: 6c 00 9d e5  	ldr	r0, [sp, #108]
   13624: 00 00 d0 e5  	ldrb	r0, [r0]
   13628: 68 10 9d e5  	ldr	r1, [sp, #104]
   1362c: 00 00 c1 e5  	strb	r0, [r1]
   13630: 68 00 9d e5  	ldr	r0, [sp, #104]
   13634: 6c 01 8d e5  	str	r0, [sp, #364]
   13638: 01 10 a0 e3  	mov	r1, #1
   1363c: 70 11 8d e5  	str	r1, [sp, #368]
   13640: 74 01 8d e5  	str	r0, [sp, #372]
   13644: 78 11 8d e5  	str	r1, [sp, #376]
   13648: 01 00 80 e2  	add	r0, r0, #1
   1364c: 7c 01 8d e5  	str	r0, [sp, #380]
   13650: 7c 01 9d e5  	ldr	r0, [sp, #380]
   13654: 68 00 8d e5  	str	r0, [sp, #104]
   13658: 6c 00 9d e5  	ldr	r0, [sp, #108]
   1365c: e0 00 8d e5  	str	r0, [sp, #224]
   13660: e4 10 8d e5  	str	r1, [sp, #228]
   13664: e8 00 8d e5  	str	r0, [sp, #232]
   13668: ec 10 8d e5  	str	r1, [sp, #236]
   1366c: 01 00 80 e2  	add	r0, r0, #1
   13670: f0 00 8d e5  	str	r0, [sp, #240]
   13674: f0 00 9d e5  	ldr	r0, [sp, #240]
   13678: 6c 00 8d e5  	str	r0, [sp, #108]
   1367c: e2 ff ff ea  	b	#-120 <memcpy+0x94>
   13680: 34 10 9d e5  	ldr	r1, [sp, #52]
   13684: 4c 00 9d e5  	ldr	r0, [sp, #76]
   13688: a8 01 8d e5  	str	r0, [sp, #424]
   1368c: ac 11 8d e5  	str	r1, [sp, #428]
   13690: b0 01 8d e5  	str	r0, [sp, #432]
   13694: b4 11 8d e5  	str	r1, [sp, #436]
   13698: 01 00 80 e0  	add	r0, r0, r1
   1369c: b8 01 8d e5  	str	r0, [sp, #440]
   136a0: b8 01 9d e5  	ldr	r0, [sp, #440]
   136a4: 4c 00 8d e5  	str	r0, [sp, #76]
   136a8: 50 00 9d e5  	ldr	r0, [sp, #80]
   136ac: 08 01 8d e5  	str	r0, [sp, #264]
   136b0: 0c 11 8d e5  	str	r1, [sp, #268]
   136b4: 10 01 8d e5  	str	r0, [sp, #272]
   136b8: 14 11 8d e5  	str	r1, [sp, #276]
   136bc: 01 00 80 e0  	add	r0, r0, r1
   136c0: 18 01 8d e5  	str	r0, [sp, #280]
   136c4: 18 01 9d e5  	ldr	r0, [sp, #280]
   136c8: 50 00 8d e5  	str	r0, [sp, #80]
   136cc: 54 00 9d e5  	ldr	r0, [sp, #84]
   136d0: 01 20 40 e0  	sub	r2, r0, r1
   136d4: 30 20 8d e5  	str	r2, [sp, #48]
   136d8: 01 00 50 e1  	cmp	r0, r1
   136dc: 10 00 00 3a  	blo	#64 <memcpy+0x1ac>
   136e0: ff ff ff ea  	b	#-4 <memcpy+0x16c>
   136e4: 30 00 9d e5  	ldr	r0, [sp, #48]
   136e8: 54 00 8d e5  	str	r0, [sp, #84]
   136ec: 54 00 9d e5  	ldr	r0, [sp, #84]
   136f0: 03 00 c0 e3  	bic	r0, r0, #3
   136f4: 2c 00 8d e5  	str	r0, [sp, #44]
   136f8: 5c 00 8d e5  	str	r0, [sp, #92]
   136fc: 50 00 9d e5  	ldr	r0, [sp, #80]
   13700: 03 00 00 e2  	and	r0, r0, #3
   13704: 60 00 8d e5  	str	r0, [sp, #96]
   13708: 10 0f 6f e1  	clz	r0, r0
   1370c: a0 02 a0 e1  	lsr	r0, r0, #5
   13710: 67 00 cd e5  	strb	r0, [sp, #103]
   13714: 67 00 dd e5  	ldrb	r0, [sp, #103]
   13718: 01 00 10 e3  	tst	r0, #1
   1371c: 7b 00 00 1a  	bne	#492 <memcpy+0x398>
   13720: 04 00 00 ea  	b	#16 <memcpy+0x1c0>
   13724: f8 03 9f e5  	ldr	r0, [pc, #1016]
   13728: 10 24 9f e5  	ldr	r2, [pc, #1040]
   1372c: 21 10 a0 e3  	mov	r1, #33
   13730: df e1 ff eb  	bl	#-30852 <_ZN4core9panicking5panic17h70f755644c6683e5E>
   13734: fe de ff e7  	trap
   13738: 2c 20 9d e5  	ldr	r2, [sp, #44]
   1373c: 4c 10 9d e5  	ldr	r1, [sp, #76]
   13740: 50 00 9d e5  	ldr	r0, [sp, #80]
   13744: 20 00 8d e5  	str	r0, [sp, #32]
   13748: ac 10 8d e5  	str	r1, [sp, #172]
   1374c: b0 00 8d e5  	str	r0, [sp, #176]
   13750: b4 20 8d e5  	str	r2, [sp, #180]
   13754: a0 10 8d e5  	str	r1, [sp, #160]
   13758: 1c 11 8d e5  	str	r1, [sp, #284]
   1375c: 20 21 8d e5  	str	r2, [sp, #288]
   13760: 24 11 8d e5  	str	r1, [sp, #292]
   13764: 28 21 8d e5  	str	r2, [sp, #296]
   13768: 02 10 81 e0  	add	r1, r1, r2
   1376c: 2c 11 8d e5  	str	r1, [sp, #300]
   13770: 2c 11 9d e5  	ldr	r1, [sp, #300]
   13774: 24 10 8d e5  	str	r1, [sp, #36]
   13778: b8 10 8d e5  	str	r1, [sp, #184]
   1377c: 03 00 00 e2  	and	r0, r0, #3
   13780: bc 00 8d e5  	str	r0, [sp, #188]
   13784: 80 01 a0 e1  	lsl	r0, r0, #3
   13788: 28 00 8d e5  	str	r0, [sp, #40]
   1378c: 00 00 a0 e3  	mov	r0, #0
   13790: 00 00 50 e3  	cmp	r0, #0
   13794: 09 00 00 1a  	bne	#36 <memcpy+0x248>
   13798: ff ff ff ea  	b	#-4 <memcpy+0x224>
   1379c: 20 00 9d e5  	ldr	r0, [sp, #32]
   137a0: 28 10 9d e5  	ldr	r1, [sp, #40]
   137a4: c0 10 8d e5  	str	r1, [sp, #192]
   137a8: 03 00 c0 e3  	bic	r0, r0, #3
   137ac: a4 00 8d e5  	str	r0, [sp, #164]
   137b0: a4 00 9d e5  	ldr	r0, [sp, #164]
   137b4: 00 00 90 e5  	ldr	r0, [r0]
   137b8: a8 00 8d e5  	str	r0, [sp, #168]
   137bc: 04 00 00 ea  	b	#16 <memcpy+0x25c>
   137c0: 6c 03 9f e5  	ldr	r0, [pc, #876]
   137c4: 6c 23 9f e5  	ldr	r2, [pc, #876]
   137c8: 21 10 a0 e3  	mov	r1, #33
   137cc: b8 e1 ff eb  	bl	#-31008 <_ZN4core9panicking5panic17h70f755644c6683e5E>
   137d0: fe de ff e7  	trap
   137d4: 24 10 9d e5  	ldr	r1, [sp, #36]
   137d8: a0 00 9d e5  	ldr	r0, [sp, #160]
   137dc: 01 00 50 e1  	cmp	r0, r1
   137e0: 49 00 00 2a  	bhs	#292 <memcpy+0x394>
   137e4: ff ff ff ea  	b	#-4 <memcpy+0x270>
   137e8: 28 00 9d e5  	ldr	r0, [sp, #40]
   137ec: a4 10 9d e5  	ldr	r1, [sp, #164]
   137f0: d0 11 8d e5  	str	r1, [sp, #464]
   137f4: 01 20 a0 e3  	mov	r2, #1
   137f8: d4 21 8d e5  	str	r2, [sp, #468]
   137fc: d8 11 8d e5  	str	r1, [sp, #472]
   13800: dc 21 8d e5  	str	r2, [sp, #476]
   13804: 04 10 81 e2  	add	r1, r1, #4
   13808: e0 11 8d e5  	str	r1, [sp, #480]
   1380c: e0 11 9d e5  	ldr	r1, [sp, #480]
   13810: a4 10 8d e5  	str	r1, [sp, #164]
   13814: a4 10 9d e5  	ldr	r1, [sp, #164]
   13818: 00 10 91 e5  	ldr	r1, [r1]
   1381c: 18 10 8d e5  	str	r1, [sp, #24]
   13820: c4 10 8d e5  	str	r1, [sp, #196]
   13824: a8 10 9d e5  	ldr	r1, [sp, #168]
   13828: 1f 20 00 e2  	and	r2, r0, #31
   1382c: 31 12 a0 e1  	lsr	r1, r1, r2
   13830: 1c 10 8d e5  	str	r1, [sp, #28]
   13834: 1f 10 e0 e3  	mvn	r1, #31
   13838: 01 00 10 e1  	tst	r0, r1
   1383c: 07 00 00 1a  	bne	#28 <memcpy+0x2e8>
   13840: ff ff ff ea  	b	#-4 <memcpy+0x2cc>
   13844: 28 10 9d e5  	ldr	r1, [sp, #40]
   13848: 20 00 61 e2  	rsb	r0, r1, #32
   1384c: 14 00 8d e5  	str	r0, [sp, #20]
   13850: 20 00 a0 e3  	mov	r0, #32
   13854: 01 00 50 e1  	cmp	r0, r1
   13858: 0e 00 00 3a  	blo	#56 <memcpy+0x320>
   1385c: 04 00 00 ea  	b	#16 <memcpy+0x2fc>
   13860: c4 02 9f e5  	ldr	r0, [pc, #708]
   13864: c4 22 9f e5  	ldr	r2, [pc, #708]
   13868: 24 10 a0 e3  	mov	r1, #36
   1386c: 90 e1 ff eb  	bl	#-31168 <_ZN4core9panicking5panic17h70f755644c6683e5E>
   13870: fe de ff e7  	trap
   13874: 14 00 9d e5  	ldr	r0, [sp, #20]
   13878: 18 10 9d e5  	ldr	r1, [sp, #24]
   1387c: 1f 20 00 e2  	and	r2, r0, #31
   13880: 11 12 a0 e1  	lsl	r1, r1, r2
   13884: 10 10 8d e5  	str	r1, [sp, #16]
   13888: 1f 10 e0 e3  	mvn	r1, #31
   1388c: 01 00 10 e1  	tst	r0, r1
   13890: 18 00 00 1a  	bne	#96 <memcpy+0x380>
   13894: 04 00 00 ea  	b	#16 <memcpy+0x334>
   13898: 84 02 9f e5  	ldr	r0, [pc, #644]
   1389c: 84 22 9f e5  	ldr	r2, [pc, #644]
   138a0: 21 10 a0 e3  	mov	r1, #33
   138a4: 82 e1 ff eb  	bl	#-31224 <_ZN4core9panicking5panic17h70f755644c6683e5E>
   138a8: fe de ff e7  	trap
   138ac: 18 10 9d e5  	ldr	r1, [sp, #24]
   138b0: 1c 00 9d e5  	ldr	r0, [sp, #28]
   138b4: 10 20 9d e5  	ldr	r2, [sp, #16]
   138b8: 02 00 80 e1  	orr	r0, r0, r2
   138bc: c8 00 8d e5  	str	r0, [sp, #200]
   138c0: a8 10 8d e5  	str	r1, [sp, #168]
   138c4: a0 10 9d e5  	ldr	r1, [sp, #160]
   138c8: 00 00 81 e5  	str	r0, [r1]
   138cc: a0 00 9d e5  	ldr	r0, [sp, #160]
   138d0: bc 01 8d e5  	str	r0, [sp, #444]
   138d4: 01 10 a0 e3  	mov	r1, #1
   138d8: c0 11 8d e5  	str	r1, [sp, #448]
   138dc: c4 01 8d e5  	str	r0, [sp, #452]
   138e0: c8 11 8d e5  	str	r1, [sp, #456]
   138e4: 04 00 80 e2  	add	r0, r0, #4
   138e8: cc 01 8d e5  	str	r0, [sp, #460]
   138ec: cc 01 9d e5  	ldr	r0, [sp, #460]
   138f0: a0 00 8d e5  	str	r0, [sp, #160]
   138f4: b6 ff ff ea  	b	#-296 <memcpy+0x25c>
   138f8: 1c 02 9f e5  	ldr	r0, [pc, #540]
   138fc: 1c 22 9f e5  	ldr	r2, [pc, #540]
   13900: 23 10 a0 e3  	mov	r1, #35
   13904: 6a e1 ff eb  	bl	#-31320 <_ZN4core9panicking5panic17h70f755644c6683e5E>
   13908: fe de ff e7  	trap
   1390c: 2f 00 00 ea  	b	#188 <memcpy+0x458>
   13910: 2c 10 9d e5  	ldr	r1, [sp, #44]
   13914: 4c 00 9d e5  	ldr	r0, [sp, #76]
   13918: 50 20 9d e5  	ldr	r2, [sp, #80]
   1391c: 90 00 8d e5  	str	r0, [sp, #144]
   13920: 94 20 8d e5  	str	r2, [sp, #148]
   13924: 98 10 8d e5  	str	r1, [sp, #152]
   13928: 88 00 8d e5  	str	r0, [sp, #136]
   1392c: 8c 20 8d e5  	str	r2, [sp, #140]
   13930: 30 01 8d e5  	str	r0, [sp, #304]
   13934: 34 11 8d e5  	str	r1, [sp, #308]
   13938: 38 01 8d e5  	str	r0, [sp, #312]
   1393c: 3c 11 8d e5  	str	r1, [sp, #316]
   13940: 01 00 80 e0  	add	r0, r0, r1
   13944: 40 01 8d e5  	str	r0, [sp, #320]
   13948: 40 01 9d e5  	ldr	r0, [sp, #320]
   1394c: 0c 00 8d e5  	str	r0, [sp, #12]
   13950: 9c 00 8d e5  	str	r0, [sp, #156]
   13954: ff ff ff ea  	b	#-4 <memcpy+0x3e0>
   13958: 0c 10 9d e5  	ldr	r1, [sp, #12]
   1395c: 88 00 9d e5  	ldr	r0, [sp, #136]
   13960: 01 00 50 e1  	cmp	r0, r1
   13964: 18 00 00 2a  	bhs	#96 <memcpy+0x454>
   13968: ff ff ff ea  	b	#-4 <memcpy+0x3f4>
   1396c: 8c 00 9d e5  	ldr	r0, [sp, #140]
   13970: 00 00 90 e5  	ldr	r0, [r0]
   13974: 88 10 9d e5  	ldr	r1, [sp, #136]
   13978: 00 00 81 e5  	str	r0, [r1]
   1397c: 88 00 9d e5  	ldr	r0, [sp, #136]
   13980: f8 01 8d e5  	str	r0, [sp, #504]
   13984: 01 10 a0 e3  	mov	r1, #1
   13988: fc 11 8d e5  	str	r1, [sp, #508]
   1398c: 00 02 8d e5  	str	r0, [sp, #512]
   13990: 04 12 8d e5  	str	r1, [sp, #516]
   13994: 04 00 80 e2  	add	r0, r0, #4
   13998: 08 02 8d e5  	str	r0, [sp, #520]
   1399c: 08 02 9d e5  	ldr	r0, [sp, #520]
   139a0: 88 00 8d e5  	str	r0, [sp, #136]
   139a4: 8c 00 9d e5  	ldr	r0, [sp, #140]
   139a8: e4 01 8d e5  	str	r0, [sp, #484]
   139ac: e8 11 8d e5  	str	r1, [sp, #488]
   139b0: ec 01 8d e5  	str	r0, [sp, #492]
   139b4: f0 11 8d e5  	str	r1, [sp, #496]
   139b8: 04 00 80 e2  	add	r0, r0, #4
   139bc: f4 01 8d e5  	str	r0, [sp, #500]
   139c0: f4 01 9d e5  	ldr	r0, [sp, #500]
   139c4: 8c 00 8d e5  	str	r0, [sp, #140]
   139c8: e2 ff ff ea  	b	#-120 <memcpy+0x3e0>
   139cc: ff ff ff ea  	b	#-4 <memcpy+0x458>
   139d0: 2c 10 9d e5  	ldr	r1, [sp, #44]
   139d4: 4c 00 9d e5  	ldr	r0, [sp, #76]
   139d8: 94 01 8d e5  	str	r0, [sp, #404]
   139dc: 98 11 8d e5  	str	r1, [sp, #408]
   139e0: 9c 01 8d e5  	str	r0, [sp, #412]
   139e4: a0 11 8d e5  	str	r1, [sp, #416]
   139e8: 01 00 80 e0  	add	r0, r0, r1
   139ec: a4 01 8d e5  	str	r0, [sp, #420]
   139f0: a4 01 9d e5  	ldr	r0, [sp, #420]
   139f4: 4c 00 8d e5  	str	r0, [sp, #76]
   139f8: 50 00 9d e5  	ldr	r0, [sp, #80]
   139fc: f4 00 8d e5  	str	r0, [sp, #244]
   13a00: f8 10 8d e5  	str	r1, [sp, #248]
   13a04: fc 00 8d e5  	str	r0, [sp, #252]
   13a08: 00 11 8d e5  	str	r1, [sp, #256]
   13a0c: 01 00 80 e0  	add	r0, r0, r1
   13a10: 04 01 8d e5  	str	r0, [sp, #260]
   13a14: 04 01 9d e5  	ldr	r0, [sp, #260]
   13a18: 50 00 8d e5  	str	r0, [sp, #80]
   13a1c: 54 00 9d e5  	ldr	r0, [sp, #84]
   13a20: 01 20 40 e0  	sub	r2, r0, r1
   13a24: 08 20 8d e5  	str	r2, [sp, #8]
   13a28: 01 00 50 e1  	cmp	r0, r1
   13a2c: 03 00 00 3a  	blo	#12 <memcpy+0x4c8>
   13a30: ff ff ff ea  	b	#-4 <memcpy+0x4bc>
   13a34: 08 00 9d e5  	ldr	r0, [sp, #8]
   13a38: 54 00 8d e5  	str	r0, [sp, #84]
   13a3c: 04 00 00 ea  	b	#16 <memcpy+0x4dc>
   13a40: dc 00 9f e5  	ldr	r0, [pc, #220]
   13a44: f0 20 9f e5  	ldr	r2, [pc, #240]
   13a48: 21 10 a0 e3  	mov	r1, #33
   13a4c: 18 e1 ff eb  	bl	#-31648 <_ZN4core9panicking5panic17h70f755644c6683e5E>
   13a50: fe de ff e7  	trap
   13a54: 4c 20 9d e5  	ldr	r2, [sp, #76]
   13a58: 50 00 9d e5  	ldr	r0, [sp, #80]
   13a5c: 54 10 9d e5  	ldr	r1, [sp, #84]
   13a60: 78 20 8d e5  	str	r2, [sp, #120]
   13a64: 7c 00 8d e5  	str	r0, [sp, #124]
   13a68: 80 10 8d e5  	str	r1, [sp, #128]
   13a6c: 78 00 9d e5  	ldr	r0, [sp, #120]
   13a70: 58 01 8d e5  	str	r0, [sp, #344]
   13a74: 5c 11 8d e5  	str	r1, [sp, #348]
   13a78: 60 01 8d e5  	str	r0, [sp, #352]
   13a7c: 64 11 8d e5  	str	r1, [sp, #356]
   13a80: 01 00 80 e0  	add	r0, r0, r1
   13a84: 68 01 8d e5  	str	r0, [sp, #360]
   13a88: 68 01 9d e5  	ldr	r0, [sp, #360]
   13a8c: 04 00 8d e5  	str	r0, [sp, #4]
   13a90: 84 00 8d e5  	str	r0, [sp, #132]
   13a94: ff ff ff ea  	b	#-4 <memcpy+0x520>
   13a98: 04 10 9d e5  	ldr	r1, [sp, #4]
   13a9c: 78 00 9d e5  	ldr	r0, [sp, #120]
   13aa0: 01 00 50 e1  	cmp	r0, r1
   13aa4: 18 00 00 2a  	bhs	#96 <memcpy+0x594>
   13aa8: ff ff ff ea  	b	#-4 <memcpy+0x534>
   13aac: 7c 00 9d e5  	ldr	r0, [sp, #124]
   13ab0: 00 00 d0 e5  	ldrb	r0, [r0]
   13ab4: 78 10 9d e5  	ldr	r1, [sp, #120]
   13ab8: 00 00 c1 e5  	strb	r0, [r1]
   13abc: 78 00 9d e5  	ldr	r0, [sp, #120]
   13ac0: 44 01 8d e5  	str	r0, [sp, #324]
   13ac4: 01 10 a0 e3  	mov	r1, #1
   13ac8: 48 11 8d e5  	str	r1, [sp, #328]
   13acc: 4c 01 8d e5  	str	r0, [sp, #332]
   13ad0: 50 11 8d e5  	str	r1, [sp, #336]
   13ad4: 01 00 80 e2  	add	r0, r0, #1
   13ad8: 54 01 8d e5  	str	r0, [sp, #340]
   13adc: 54 01 9d e5  	ldr	r0, [sp, #340]
   13ae0: 78 00 8d e5  	str	r0, [sp, #120]
   13ae4: 7c 00 9d e5  	ldr	r0, [sp, #124]
   13ae8: cc 00 8d e5  	str	r0, [sp, #204]
   13aec: d0 10 8d e5  	str	r1, [sp, #208]
   13af0: d4 00 8d e5  	str	r0, [sp, #212]
   13af4: d8 10 8d e5  	str	r1, [sp, #216]
   13af8: 01 00 80 e2  	add	r0, r0, #1
   13afc: dc 00 8d e5  	str	r0, [sp, #220]
   13b00: dc 00 9d e5  	ldr	r0, [sp, #220]
   13b04: 7c 00 8d e5  	str	r0, [sp, #124]
   13b08: e2 ff ff ea  	b	#-120 <memcpy+0x520>
   13b0c: ff ff ff ea  	b	#-4 <memcpy+0x598>
   13b10: 3c 00 9d e5  	ldr	r0, [sp, #60]
   13b14: 86 df 8d e2  	add	sp, sp, #536
   13b18: 1e ff 2f e1  	bx	lr

00013b1c <$d.125>:
   13b1c:	a0 67 01 00	.word	0x000167a0
   13b20:	b4 68 01 00	.word	0x000168b4
   13b24:	40 67 01 00	.word	0x00016740
   13b28:	a4 68 01 00	.word	0x000168a4
   13b2c:	d0 67 01 00	.word	0x000167d0
   13b30:	94 68 01 00	.word	0x00016894
   13b34:	70 67 01 00	.word	0x00016770
   13b38:	84 68 01 00	.word	0x00016884
   13b3c:	74 68 01 00	.word	0x00016874
   13b40:	64 68 01 00	.word	0x00016864

00013b44 <memset>:
   13b44: 4e df 4d e2  	sub	sp, sp, #312
   13b48: 28 00 8d e5  	str	r0, [sp, #40]
   13b4c: 30 00 8d e5  	str	r0, [sp, #48]
   13b50: 34 10 8d e5  	str	r1, [sp, #52]
   13b54: 38 20 8d e5  	str	r2, [sp, #56]
   13b58: 01 30 a0 e1  	mov	r3, r1
   13b5c: 2c 30 8d e5  	str	r3, [sp, #44]
   13b60: 3c 00 8d e5  	str	r0, [sp, #60]
   13b64: 40 20 8d e5  	str	r2, [sp, #64]
   13b68: 46 10 cd e5  	strb	r1, [sp, #70]
   13b6c: 40 10 9d e5  	ldr	r1, [sp, #64]
   13b70: 00 00 a0 e3  	mov	r0, #0
   13b74: 0f 00 51 e3  	cmp	r1, #15
   13b78: 01 00 a0 83  	movhi	r0, #1
   13b7c: 47 00 cd e5  	strb	r0, [sp, #71]
   13b80: 47 00 dd e5  	ldrb	r0, [sp, #71]
   13b84: 01 00 10 e3  	tst	r0, #1
   13b88: ae 00 00 0a  	beq	#696 <memset+0x304>
   13b8c: ff ff ff ea  	b	#-4 <memset+0x4c>
   13b90: 2c 00 9d e5  	ldr	r0, [sp, #44]
   13b94: 3c 10 9d e5  	ldr	r1, [sp, #60]
   13b98: 2c 11 8d e5  	str	r1, [sp, #300]
   13b9c: 00 20 a0 e3  	mov	r2, #0
   13ba0: 30 21 8d e5  	str	r2, [sp, #304]
   13ba4: 34 11 8d e5  	str	r1, [sp, #308]
   13ba8: 00 10 61 e2  	rsb	r1, r1, #0
   13bac: 03 10 01 e2  	and	r1, r1, #3
   13bb0: 20 10 8d e5  	str	r1, [sp, #32]
   13bb4: 48 10 8d e5  	str	r1, [sp, #72]
   13bb8: 3c 20 9d e5  	ldr	r2, [sp, #60]
   13bbc: 50 20 8d e5  	str	r2, [sp, #80]
   13bc0: 57 00 cd e5  	strb	r0, [sp, #87]
   13bc4: 58 10 8d e5  	str	r1, [sp, #88]
   13bc8: 50 00 9d e5  	ldr	r0, [sp, #80]
   13bcc: dc 00 8d e5  	str	r0, [sp, #220]
   13bd0: e0 10 8d e5  	str	r1, [sp, #224]
   13bd4: e4 00 8d e5  	str	r0, [sp, #228]
   13bd8: e8 10 8d e5  	str	r1, [sp, #232]
   13bdc: 01 00 80 e0  	add	r0, r0, r1
   13be0: ec 00 8d e5  	str	r0, [sp, #236]
   13be4: ec 00 9d e5  	ldr	r0, [sp, #236]
   13be8: 24 00 8d e5  	str	r0, [sp, #36]
   13bec: 5c 00 8d e5  	str	r0, [sp, #92]
   13bf0: ff ff ff ea  	b	#-4 <memset+0xb0>
   13bf4: 24 10 9d e5  	ldr	r1, [sp, #36]
   13bf8: 50 00 9d e5  	ldr	r0, [sp, #80]
   13bfc: 01 00 50 e1  	cmp	r0, r1
   13c00: 0e 00 00 2a  	bhs	#56 <memset+0xfc>
   13c04: ff ff ff ea  	b	#-4 <memset+0xc4>
   13c08: 2c 00 9d e5  	ldr	r0, [sp, #44]
   13c0c: 50 10 9d e5  	ldr	r1, [sp, #80]
   13c10: 00 00 c1 e5  	strb	r0, [r1]
   13c14: 50 00 9d e5  	ldr	r0, [sp, #80]
   13c18: c8 00 8d e5  	str	r0, [sp, #200]
   13c1c: 01 10 a0 e3  	mov	r1, #1
   13c20: cc 10 8d e5  	str	r1, [sp, #204]
   13c24: d0 00 8d e5  	str	r0, [sp, #208]
   13c28: d4 10 8d e5  	str	r1, [sp, #212]
   13c2c: 01 00 80 e2  	add	r0, r0, #1
   13c30: d8 00 8d e5  	str	r0, [sp, #216]
   13c34: d8 00 9d e5  	ldr	r0, [sp, #216]
   13c38: 50 00 8d e5  	str	r0, [sp, #80]
   13c3c: ec ff ff ea  	b	#-80 <memset+0xb0>
   13c40: 20 10 9d e5  	ldr	r1, [sp, #32]
   13c44: 3c 00 9d e5  	ldr	r0, [sp, #60]
   13c48: 04 01 8d e5  	str	r0, [sp, #260]
   13c4c: 08 11 8d e5  	str	r1, [sp, #264]
   13c50: 0c 01 8d e5  	str	r0, [sp, #268]
   13c54: 10 11 8d e5  	str	r1, [sp, #272]
   13c58: 01 00 80 e0  	add	r0, r0, r1
   13c5c: 14 01 8d e5  	str	r0, [sp, #276]
   13c60: 14 01 9d e5  	ldr	r0, [sp, #276]
   13c64: 3c 00 8d e5  	str	r0, [sp, #60]
   13c68: 40 00 9d e5  	ldr	r0, [sp, #64]
   13c6c: 01 20 40 e0  	sub	r2, r0, r1
   13c70: 1c 20 8d e5  	str	r2, [sp, #28]
   13c74: 01 00 50 e1  	cmp	r0, r1
   13c78: 65 00 00 3a  	blo	#404 <memset+0x2d0>
   13c7c: ff ff ff ea  	b	#-4 <memset+0x13c>
   13c80: 2c 00 9d e5  	ldr	r0, [sp, #44]
   13c84: 1c 10 9d e5  	ldr	r1, [sp, #28]
   13c88: 40 10 8d e5  	str	r1, [sp, #64]
   13c8c: 40 10 9d e5  	ldr	r1, [sp, #64]
   13c90: 03 10 c1 e3  	bic	r1, r1, #3
   13c94: 14 10 8d e5  	str	r1, [sp, #20]
   13c98: 4c 10 8d e5  	str	r1, [sp, #76]
   13c9c: 3c 20 9d e5  	ldr	r2, [sp, #60]
   13ca0: 18 20 8d e5  	str	r2, [sp, #24]
   13ca4: 7c 20 8d e5  	str	r2, [sp, #124]
   13ca8: 83 00 cd e5  	strb	r0, [sp, #131]
   13cac: 84 10 8d e5  	str	r1, [sp, #132]
   13cb0: 70 00 ef e6  	uxtb	r0, r0
   13cb4: 70 00 8d e5  	str	r0, [sp, #112]
   13cb8: 08 00 a0 e3  	mov	r0, #8
   13cbc: 74 00 8d e5  	str	r0, [sp, #116]
   13cc0: ff ff ff ea  	b	#-4 <memset+0x180>
   13cc4: 74 00 9d e5  	ldr	r0, [sp, #116]
   13cc8: 20 00 50 e3  	cmp	r0, #32
   13ccc: 0d 00 00 3a  	blo	#52 <memset+0x1c4>
   13cd0: ff ff ff ea  	b	#-4 <memset+0x190>
   13cd4: 18 00 9d e5  	ldr	r0, [sp, #24]
   13cd8: 14 10 9d e5  	ldr	r1, [sp, #20]
   13cdc: 78 00 8d e5  	str	r0, [sp, #120]
   13ce0: 8c 00 8d e5  	str	r0, [sp, #140]
   13ce4: 90 10 8d e5  	str	r1, [sp, #144]
   13ce8: 94 00 8d e5  	str	r0, [sp, #148]
   13cec: 98 10 8d e5  	str	r1, [sp, #152]
   13cf0: 01 00 80 e0  	add	r0, r0, r1
   13cf4: 9c 00 8d e5  	str	r0, [sp, #156]
   13cf8: 9c 00 9d e5  	ldr	r0, [sp, #156]
   13cfc: 10 00 8d e5  	str	r0, [sp, #16]
   13d00: 88 00 8d e5  	str	r0, [sp, #136]
   13d04: 1f 00 00 ea  	b	#124 <memset+0x244>
   13d08: 70 10 9d e5  	ldr	r1, [sp, #112]
   13d0c: 74 00 9d e5  	ldr	r0, [sp, #116]
   13d10: 1f 20 00 e2  	and	r2, r0, #31
   13d14: 11 12 a0 e1  	lsl	r1, r1, r2
   13d18: 0c 10 8d e5  	str	r1, [sp, #12]
   13d1c: 1f 10 e0 e3  	mvn	r1, #31
   13d20: 01 00 10 e1  	tst	r0, r1
   13d24: 0a 00 00 1a  	bne	#40 <memset+0x210>
   13d28: ff ff ff ea  	b	#-4 <memset+0x1e8>
   13d2c: 0c 10 9d e5  	ldr	r1, [sp, #12]
   13d30: 70 00 9d e5  	ldr	r0, [sp, #112]
   13d34: 01 00 80 e1  	orr	r0, r0, r1
   13d38: 70 00 8d e5  	str	r0, [sp, #112]
   13d3c: 74 10 9d e5  	ldr	r1, [sp, #116]
   13d40: 01 00 81 e0  	add	r0, r1, r1
   13d44: 08 00 8d e5  	str	r0, [sp, #8]
   13d48: 01 00 50 e1  	cmp	r0, r1
   13d4c: 08 00 00 3a  	blo	#32 <memset+0x230>
   13d50: 04 00 00 ea  	b	#16 <memset+0x224>
   13d54: 9c 01 9f e5  	ldr	r0, [pc, #412]
   13d58: 9c 21 9f e5  	ldr	r2, [pc, #412]
   13d5c: 23 10 a0 e3  	mov	r1, #35
   13d60: 53 e0 ff eb  	bl	#-32436 <_ZN4core9panicking5panic17h70f755644c6683e5E>
   13d64: fe de ff e7  	trap
   13d68: 08 00 9d e5  	ldr	r0, [sp, #8]
   13d6c: 74 00 8d e5  	str	r0, [sp, #116]
   13d70: d3 ff ff ea  	b	#-180 <memset+0x180>
   13d74: 74 01 9f e5  	ldr	r0, [pc, #372]
   13d78: 74 21 9f e5  	ldr	r2, [pc, #372]
   13d7c: 21 10 a0 e3  	mov	r1, #33
   13d80: 4b e0 ff eb  	bl	#-32468 <_ZN4core9panicking5panic17h70f755644c6683e5E>
   13d84: fe de ff e7  	trap
   13d88: 10 10 9d e5  	ldr	r1, [sp, #16]
   13d8c: 78 00 9d e5  	ldr	r0, [sp, #120]
   13d90: 01 00 50 e1  	cmp	r0, r1
   13d94: 0e 00 00 2a  	bhs	#56 <memset+0x290>
   13d98: ff ff ff ea  	b	#-4 <memset+0x258>
   13d9c: 70 00 9d e5  	ldr	r0, [sp, #112]
   13da0: 78 10 9d e5  	ldr	r1, [sp, #120]
   13da4: 00 00 81 e5  	str	r0, [r1]
   13da8: 78 00 9d e5  	ldr	r0, [sp, #120]
   13dac: 18 01 8d e5  	str	r0, [sp, #280]
   13db0: 01 10 a0 e3  	mov	r1, #1
   13db4: 1c 11 8d e5  	str	r1, [sp, #284]
   13db8: 20 01 8d e5  	str	r0, [sp, #288]
   13dbc: 24 11 8d e5  	str	r1, [sp, #292]
   13dc0: 04 00 80 e2  	add	r0, r0, #4
   13dc4: 28 01 8d e5  	str	r0, [sp, #296]
   13dc8: 28 01 9d e5  	ldr	r0, [sp, #296]
   13dcc: 78 00 8d e5  	str	r0, [sp, #120]
   13dd0: ec ff ff ea  	b	#-80 <memset+0x244>
   13dd4: 14 10 9d e5  	ldr	r1, [sp, #20]
   13dd8: 3c 00 9d e5  	ldr	r0, [sp, #60]
   13ddc: f0 00 8d e5  	str	r0, [sp, #240]
   13de0: f4 10 8d e5  	str	r1, [sp, #244]
   13de4: f8 00 8d e5  	str	r0, [sp, #248]
   13de8: fc 10 8d e5  	str	r1, [sp, #252]
   13dec: 01 00 80 e0  	add	r0, r0, r1
   13df0: 00 01 8d e5  	str	r0, [sp, #256]
   13df4: 00 01 9d e5  	ldr	r0, [sp, #256]
   13df8: 3c 00 8d e5  	str	r0, [sp, #60]
   13dfc: 40 00 9d e5  	ldr	r0, [sp, #64]
   13e00: 01 20 40 e0  	sub	r2, r0, r1
   13e04: 04 20 8d e5  	str	r2, [sp, #4]
   13e08: 01 00 50 e1  	cmp	r0, r1
   13e0c: 08 00 00 3a  	blo	#32 <memset+0x2f0>
   13e10: 04 00 00 ea  	b	#16 <memset+0x2e4>
   13e14: cc 00 9f e5  	ldr	r0, [pc, #204]
   13e18: e0 20 9f e5  	ldr	r2, [pc, #224]
   13e1c: 21 10 a0 e3  	mov	r1, #33
   13e20: 23 e0 ff eb  	bl	#-32628 <_ZN4core9panicking5panic17h70f755644c6683e5E>
   13e24: fe de ff e7  	trap
   13e28: 04 00 9d e5  	ldr	r0, [sp, #4]
   13e2c: 40 00 8d e5  	str	r0, [sp, #64]
   13e30: 04 00 00 ea  	b	#16 <memset+0x304>
   13e34: ac 00 9f e5  	ldr	r0, [pc, #172]
   13e38: ac 20 9f e5  	ldr	r2, [pc, #172]
   13e3c: 21 10 a0 e3  	mov	r1, #33
   13e40: 1b e0 ff eb  	bl	#-32660 <_ZN4core9panicking5panic17h70f755644c6683e5E>
   13e44: fe de ff e7  	trap
   13e48: 2c 00 9d e5  	ldr	r0, [sp, #44]
   13e4c: 3c 20 9d e5  	ldr	r2, [sp, #60]
   13e50: 40 10 9d e5  	ldr	r1, [sp, #64]
   13e54: 60 20 8d e5  	str	r2, [sp, #96]
   13e58: 67 00 cd e5  	strb	r0, [sp, #103]
   13e5c: 68 10 8d e5  	str	r1, [sp, #104]
   13e60: 60 00 9d e5  	ldr	r0, [sp, #96]
   13e64: b4 00 8d e5  	str	r0, [sp, #180]
   13e68: b8 10 8d e5  	str	r1, [sp, #184]
   13e6c: bc 00 8d e5  	str	r0, [sp, #188]
   13e70: c0 10 8d e5  	str	r1, [sp, #192]
   13e74: 01 00 80 e0  	add	r0, r0, r1
   13e78: c4 00 8d e5  	str	r0, [sp, #196]
   13e7c: c4 00 9d e5  	ldr	r0, [sp, #196]
   13e80: 00 00 8d e5  	str	r0, [sp]
   13e84: 6c 00 8d e5  	str	r0, [sp, #108]
   13e88: ff ff ff ea  	b	#-4 <memset+0x348>
   13e8c: 00 10 9d e5  	ldr	r1, [sp]
   13e90: 60 00 9d e5  	ldr	r0, [sp, #96]
   13e94: 01 00 50 e1  	cmp	r0, r1
   13e98: 0e 00 00 2a  	bhs	#56 <memset+0x394>
   13e9c: ff ff ff ea  	b	#-4 <memset+0x35c>
   13ea0: 2c 00 9d e5  	ldr	r0, [sp, #44]
   13ea4: 60 10 9d e5  	ldr	r1, [sp, #96]
   13ea8: 00 00 c1 e5  	strb	r0, [r1]
   13eac: 60 00 9d e5  	ldr	r0, [sp, #96]
   13eb0: a0 00 8d e5  	str	r0, [sp, #160]
   13eb4: 01 10 a0 e3  	mov	r1, #1
   13eb8: a4 10 8d e5  	str	r1, [sp, #164]
   13ebc: a8 00 8d e5  	str	r0, [sp, #168]
   13ec0: ac 10 8d e5  	str	r1, [sp, #172]
   13ec4: 01 00 80 e2  	add	r0, r0, #1
   13ec8: b0 00 8d e5  	str	r0, [sp, #176]
   13ecc: b0 00 9d e5  	ldr	r0, [sp, #176]
   13ed0: 60 00 8d e5  	str	r0, [sp, #96]
   13ed4: ec ff ff ea  	b	#-80 <memset+0x348>
   13ed8: ff ff ff ea  	b	#-4 <memset+0x398>
   13edc: 28 00 9d e5  	ldr	r0, [sp, #40]
   13ee0: 4e df 8d e2  	add	sp, sp, #312
   13ee4: 1e ff 2f e1  	bx	lr

00013ee8 <$d.129>:
   13ee8:	40 67 01 00	.word	0x00016740
   13eec:	d4 68 01 00	.word	0x000168d4
   13ef0:	70 67 01 00	.word	0x00016770
   13ef4:	f4 68 01 00	.word	0x000168f4
   13ef8:	a0 67 01 00	.word	0x000167a0
   13efc:	e4 68 01 00	.word	0x000168e4
   13f00:	c4 68 01 00	.word	0x000168c4

00013f04 <__aeabi_uidivmod>:
   13f04: 04 e0 2d e5  	str	lr, [sp, #-4]!
   13f08: 04 d0 4d e2  	sub	sp, sp, #4
   13f0c: 0d 20 a0 e1  	mov	r2, sp
   13f10: e2 01 00 eb  	bl	#1928 <__udivmodsi4>
   13f14: 00 10 9d e5  	ldr	r1, [sp]
   13f18: 04 d0 8d e2  	add	sp, sp, #4
   13f1c: 04 f0 9d e4  	ldr	pc, [sp], #4
   13f20: fe de ff e7  	trap

00013f24 <__aeabi_memcpy>:
   13f24: 00 48 2d e9  	push	{r11, lr}
   13f28: 10 d0 4d e2  	sub	sp, sp, #16
   13f2c: 04 00 8d e5  	str	r0, [sp, #4]
   13f30: 08 10 8d e5  	str	r1, [sp, #8]
   13f34: 0c 20 8d e5  	str	r2, [sp, #12]
   13f38: 8e fd ff eb  	bl	#-2504 <memcpy>
   13f3c: ff ff ff ea  	b	#-4 <__aeabi_memcpy+0x1c>
   13f40: 10 d0 8d e2  	add	sp, sp, #16
   13f44: 00 88 bd e8  	pop	{r11, pc}

00013f48 <__aeabi_memcpy4>:
   13f48: 00 48 2d e9  	push	{r11, lr}
   13f4c: 38 d0 4d e2  	sub	sp, sp, #56
   13f50: 0c 20 8d e5  	str	r2, [sp, #12]
   13f54: 18 00 8d e5  	str	r0, [sp, #24]
   13f58: 1c 10 8d e5  	str	r1, [sp, #28]
   13f5c: 10 00 8d e5  	str	r0, [sp, #16]
   13f60: 14 10 8d e5  	str	r1, [sp, #20]
   13f64: ff ff ff ea  	b	#-4 <__aeabi_memcpy4+0x20>
   13f68: 0c 00 9d e5  	ldr	r0, [sp, #12]
   13f6c: 03 00 50 e3  	cmp	r0, #3
   13f70: 05 00 00 8a  	bhi	#20 <__aeabi_memcpy4+0x44>
   13f74: ff ff ff ea  	b	#-4 <__aeabi_memcpy4+0x30>
   13f78: 10 00 9d e5  	ldr	r0, [sp, #16]
   13f7c: 14 10 9d e5  	ldr	r1, [sp, #20]
   13f80: 0c 20 9d e5  	ldr	r2, [sp, #12]
   13f84: e6 ff ff eb  	bl	#-104 <__aeabi_memcpy>
   13f88: 27 00 00 ea  	b	#156 <__aeabi_memcpy4+0xe4>
   13f8c: 14 00 9d e5  	ldr	r0, [sp, #20]
   13f90: 00 00 90 e5  	ldr	r0, [r0]
   13f94: 10 10 9d e5  	ldr	r1, [sp, #16]
   13f98: 00 00 81 e5  	str	r0, [r1]
   13f9c: 10 00 9d e5  	ldr	r0, [sp, #16]
   13fa0: 2c 00 8d e5  	str	r0, [sp, #44]
   13fa4: 01 10 a0 e3  	mov	r1, #1
   13fa8: 30 10 8d e5  	str	r1, [sp, #48]
   13fac: 04 00 80 e2  	add	r0, r0, #4
   13fb0: 34 00 8d e5  	str	r0, [sp, #52]
   13fb4: 34 00 9d e5  	ldr	r0, [sp, #52]
   13fb8: 08 00 8d e5  	str	r0, [sp, #8]
   13fbc: ff ff ff ea  	b	#-4 <__aeabi_memcpy4+0x78>
   13fc0: 08 00 9d e5  	ldr	r0, [sp, #8]
   13fc4: 10 00 8d e5  	str	r0, [sp, #16]
   13fc8: 14 00 9d e5  	ldr	r0, [sp, #20]
   13fcc: 20 00 8d e5  	str	r0, [sp, #32]
   13fd0: 01 10 a0 e3  	mov	r1, #1
   13fd4: 24 10 8d e5  	str	r1, [sp, #36]
   13fd8: 04 00 80 e2  	add	r0, r0, #4
   13fdc: 28 00 8d e5  	str	r0, [sp, #40]
   13fe0: 28 00 9d e5  	ldr	r0, [sp, #40]
   13fe4: 04 00 8d e5  	str	r0, [sp, #4]
   13fe8: ff ff ff ea  	b	#-4 <__aeabi_memcpy4+0xa4>
   13fec: 04 00 9d e5  	ldr	r0, [sp, #4]
   13ff0: 14 00 8d e5  	str	r0, [sp, #20]
   13ff4: 0c 00 9d e5  	ldr	r0, [sp, #12]
   13ff8: 04 10 40 e2  	sub	r1, r0, #4
   13ffc: 00 10 8d e5  	str	r1, [sp]
   14000: 04 00 50 e3  	cmp	r0, #4
   14004: 03 00 00 3a  	blo	#12 <__aeabi_memcpy4+0xd0>
   14008: ff ff ff ea  	b	#-4 <__aeabi_memcpy4+0xc4>
   1400c: 00 00 9d e5  	ldr	r0, [sp]
   14010: 0c 00 8d e5  	str	r0, [sp, #12]
   14014: d3 ff ff ea  	b	#-180 <__aeabi_memcpy4+0x20>
   14018: 14 00 9f e5  	ldr	r0, [pc, #20]
   1401c: 14 20 9f e5  	ldr	r2, [pc, #20]
   14020: 21 10 a0 e3  	mov	r1, #33
   14024: a2 df ff eb  	bl	#-33144 <_ZN4core9panicking5panic17h70f755644c6683e5E>
   14028: fe de ff e7  	trap
   1402c: 38 d0 8d e2  	add	sp, sp, #56
   14030: 00 88 bd e8  	pop	{r11, pc}

00014034 <$d.157>:
   14034:	40 67 01 00	.word	0x00016740
   14038:	70 69 01 00	.word	0x00016970

0001403c <__aeabi_memset>:
   1403c: 00 48 2d e9  	push	{r11, lr}
   14040: 10 d0 4d e2  	sub	sp, sp, #16
   14044: 00 20 8d e5  	str	r2, [sp]
   14048: 01 20 a0 e1  	mov	r2, r1
   1404c: 00 10 9d e5  	ldr	r1, [sp]
   14050: 04 00 8d e5  	str	r0, [sp, #4]
   14054: 08 20 8d e5  	str	r2, [sp, #8]
   14058: 0c 10 8d e5  	str	r1, [sp, #12]
   1405c: b8 fe ff eb  	bl	#-1312 <memset>
   14060: ff ff ff ea  	b	#-4 <__aeabi_memset+0x28>
   14064: 10 d0 8d e2  	add	sp, sp, #16
   14068: 00 88 bd e8  	pop	{r11, pc}

0001406c <_ZN17compiler_builtins3int19specialized_div_rem23u32_normalization_shift17h0a74ed9fc00af064E>:
   1406c: 40 d0 4d e2  	sub	sp, sp, #64
   14070: 10 10 8d e5  	str	r1, [sp, #16]
   14074: 14 00 8d e5  	str	r0, [sp, #20]
   14078: 02 30 a0 e1  	mov	r3, r2
   1407c: 18 30 8d e5  	str	r3, [sp, #24]
   14080: 24 00 8d e5  	str	r0, [sp, #36]
   14084: 28 10 8d e5  	str	r1, [sp, #40]
   14088: 2f 20 cd e5  	strb	r2, [sp, #47]
   1408c: 38 10 8d e5  	str	r1, [sp, #56]
   14090: 11 0f 6f e1  	clz	r0, r1
   14094: 3c 00 8d e5  	str	r0, [sp, #60]
   14098: 3c 00 9d e5  	ldr	r0, [sp, #60]
   1409c: 1c 00 8d e5  	str	r0, [sp, #28]
   140a0: ff ff ff ea  	b	#-4 <_ZN17compiler_builtins3int19specialized_div_rem23u32_normalization_shift17h0a74ed9fc00af064E+0x38>
   140a4: 14 00 9d e5  	ldr	r0, [sp, #20]
   140a8: 30 00 8d e5  	str	r0, [sp, #48]
   140ac: 10 0f 6f e1  	clz	r0, r0
   140b0: 34 00 8d e5  	str	r0, [sp, #52]
   140b4: 34 00 9d e5  	ldr	r0, [sp, #52]
   140b8: 0c 00 8d e5  	str	r0, [sp, #12]
   140bc: ff ff ff ea  	b	#-4 <_ZN17compiler_builtins3int19specialized_div_rem23u32_normalization_shift17h0a74ed9fc00af064E+0x54>
   140c0: 1c 00 9d e5  	ldr	r0, [sp, #28]
   140c4: 0c 10 9d e5  	ldr	r1, [sp, #12]
   140c8: 01 20 40 e0  	sub	r2, r0, r1
   140cc: 08 20 8d e5  	str	r2, [sp, #8]
   140d0: 01 00 50 e1  	cmp	r0, r1
   140d4: 06 00 00 3a  	blo	#24 <_ZN17compiler_builtins3int19specialized_div_rem23u32_normalization_shift17h0a74ed9fc00af064E+0x88>
   140d8: ff ff ff ea  	b	#-4 <_ZN17compiler_builtins3int19specialized_div_rem23u32_normalization_shift17h0a74ed9fc00af064E+0x70>
   140dc: 18 00 9d e5  	ldr	r0, [sp, #24]
   140e0: 08 10 9d e5  	ldr	r1, [sp, #8]
   140e4: 20 10 8d e5  	str	r1, [sp, #32]
   140e8: 01 00 10 e3  	tst	r0, #1
   140ec: 08 00 00 1a  	bne	#32 <_ZN17compiler_builtins3int19specialized_div_rem23u32_normalization_shift17h0a74ed9fc00af064E+0xa8>
   140f0: 04 00 00 ea  	b	#16 <_ZN17compiler_builtins3int19specialized_div_rem23u32_normalization_shift17h0a74ed9fc00af064E+0x9c>
   140f4: 9c 00 9f e5  	ldr	r0, [pc, #156]
   140f8: 9c 20 9f e5  	ldr	r2, [pc, #156]
   140fc: 21 10 a0 e3  	mov	r1, #33
   14100: 6b df ff eb  	bl	#-33364 <_ZN4core9panicking5panic17h70f755644c6683e5E>
   14104: fe de ff e7  	trap
   14108: 20 00 9d e5  	ldr	r0, [sp, #32]
   1410c: 40 d0 8d e2  	add	sp, sp, #64
   14110: 1e ff 2f e1  	bx	lr
   14114: 10 10 9d e5  	ldr	r1, [sp, #16]
   14118: 20 00 9d e5  	ldr	r0, [sp, #32]
   1411c: 1f 20 00 e2  	and	r2, r0, #31
   14120: 11 12 a0 e1  	lsl	r1, r1, r2
   14124: 04 10 8d e5  	str	r1, [sp, #4]
   14128: 1f 10 e0 e3  	mvn	r1, #31
   1412c: 01 00 10 e1  	tst	r0, r1
   14130: 05 00 00 1a  	bne	#20 <_ZN17compiler_builtins3int19specialized_div_rem23u32_normalization_shift17h0a74ed9fc00af064E+0xe0>
   14134: ff ff ff ea  	b	#-4 <_ZN17compiler_builtins3int19specialized_div_rem23u32_normalization_shift17h0a74ed9fc00af064E+0xcc>
   14138: 14 00 9d e5  	ldr	r0, [sp, #20]
   1413c: 04 10 9d e5  	ldr	r1, [sp, #4]
   14140: 01 00 50 e1  	cmp	r0, r1
   14144: 05 00 00 3a  	blo	#20 <_ZN17compiler_builtins3int19specialized_div_rem23u32_normalization_shift17h0a74ed9fc00af064E+0xf4>
   14148: ee ff ff ea  	b	#-72 <_ZN17compiler_builtins3int19specialized_div_rem23u32_normalization_shift17h0a74ed9fc00af064E+0x9c>
   1414c: 4c 00 9f e5  	ldr	r0, [pc, #76]
   14150: 44 20 9f e5  	ldr	r2, [pc, #68]
   14154: 23 10 a0 e3  	mov	r1, #35
   14158: 55 df ff eb  	bl	#-33452 <_ZN4core9panicking5panic17h70f755644c6683e5E>
   1415c: fe de ff e7  	trap
   14160: 20 00 9d e5  	ldr	r0, [sp, #32]
   14164: 01 10 40 e2  	sub	r1, r0, #1
   14168: 00 10 8d e5  	str	r1, [sp]
   1416c: 01 00 50 e3  	cmp	r0, #1
   14170: 03 00 00 3a  	blo	#12 <_ZN17compiler_builtins3int19specialized_div_rem23u32_normalization_shift17h0a74ed9fc00af064E+0x118>
   14174: ff ff ff ea  	b	#-4 <_ZN17compiler_builtins3int19specialized_div_rem23u32_normalization_shift17h0a74ed9fc00af064E+0x10c>
   14178: 00 00 9d e5  	ldr	r0, [sp]
   1417c: 20 00 8d e5  	str	r0, [sp, #32]
   14180: e0 ff ff ea  	b	#-128 <_ZN17compiler_builtins3int19specialized_div_rem23u32_normalization_shift17h0a74ed9fc00af064E+0x9c>
   14184: 0c 00 9f e5  	ldr	r0, [pc, #12]
   14188: 0c 20 9f e5  	ldr	r2, [pc, #12]
   1418c: 21 10 a0 e3  	mov	r1, #33
   14190: 47 df ff eb  	bl	#-33508 <_ZN4core9panicking5panic17h70f755644c6683e5E>
   14194: fe de ff e7  	trap

00014198 <$d.393>:
   14198:	40 67 01 00	.word	0x00016740
   1419c:	04 6a 01 00	.word	0x00016a04
   141a0:	a0 67 01 00	.word	0x000167a0

000141a4 <_ZN17compiler_builtins3int19specialized_div_rem11u32_div_rem17hd87563ff3b0b2a9aE>:
   141a4: 00 48 2d e9  	push	{r11, lr}
   141a8: c0 d0 4d e2  	sub	sp, sp, #192
   141ac: 44 10 8d e5  	str	r1, [sp, #68]
   141b0: 68 00 8d e5  	str	r0, [sp, #104]
   141b4: 6c 10 8d e5  	str	r1, [sp, #108]
   141b8: 50 00 8d e5  	str	r0, [sp, #80]
   141bc: 00 00 51 e3  	cmp	r1, #0
   141c0: 02 00 00 1a  	bne	#8 <_ZN17compiler_builtins3int19specialized_div_rem11u32_div_rem17hd87563ff3b0b2a9aE+0x2c>
   141c4: ff ff ff ea  	b	#-4 <_ZN17compiler_builtins3int19specialized_div_rem11u32_div_rem17hd87563ff3b0b2a9aE+0x24>
   141c8: e7 fc ff eb  	bl	#-3172 <_ZN17compiler_builtins3int19specialized_div_rem11zero_div_fn17hf03c95b0b3dbbf31E>
   141cc: fe de ff e7  	trap
   141d0: 44 10 9d e5  	ldr	r1, [sp, #68]
   141d4: 50 00 9d e5  	ldr	r0, [sp, #80]
   141d8: 01 00 50 e1  	cmp	r0, r1
   141dc: 07 00 00 3a  	blo	#28 <_ZN17compiler_builtins3int19specialized_div_rem11u32_div_rem17hd87563ff3b0b2a9aE+0x5c>
   141e0: ff ff ff ea  	b	#-4 <_ZN17compiler_builtins3int19specialized_div_rem11u32_div_rem17hd87563ff3b0b2a9aE+0x40>
   141e4: 44 10 9d e5  	ldr	r1, [sp, #68]
   141e8: 70 10 8d e5  	str	r1, [sp, #112]
   141ec: 50 00 9d e5  	ldr	r0, [sp, #80]
   141f0: 01 20 a0 e3  	mov	r2, #1
   141f4: 9c ff ff eb  	bl	#-400 <_ZN17compiler_builtins3int19specialized_div_rem23u32_normalization_shift17h0a74ed9fc00af064E>
   141f8: 54 00 8d e5  	str	r0, [sp, #84]
   141fc: 08 00 00 ea  	b	#32 <_ZN17compiler_builtins3int19specialized_div_rem11u32_div_rem17hd87563ff3b0b2a9aE+0x80>
   14200: 50 00 9d e5  	ldr	r0, [sp, #80]
   14204: 00 10 a0 e3  	mov	r1, #0
   14208: 48 10 8d e5  	str	r1, [sp, #72]
   1420c: 4c 00 8d e5  	str	r0, [sp, #76]
   14210: ff ff ff ea  	b	#-4 <_ZN17compiler_builtins3int19specialized_div_rem11u32_div_rem17hd87563ff3b0b2a9aE+0x70>
   14214: 48 00 9d e5  	ldr	r0, [sp, #72]
   14218: 4c 10 9d e5  	ldr	r1, [sp, #76]
   1421c: c0 d0 8d e2  	add	sp, sp, #192
   14220: 00 88 bd e8  	pop	{r11, pc}
   14224: 44 10 9d e5  	ldr	r1, [sp, #68]
   14228: 54 00 9d e5  	ldr	r0, [sp, #84]
   1422c: 1f 20 00 e2  	and	r2, r0, #31
   14230: 11 12 a0 e1  	lsl	r1, r1, r2
   14234: 40 10 8d e5  	str	r1, [sp, #64]
   14238: 1f 10 e0 e3  	mvn	r1, #31
   1423c: 01 00 10 e1  	tst	r0, r1
   14240: 09 00 00 1a  	bne	#36 <_ZN17compiler_builtins3int19specialized_div_rem11u32_div_rem17hd87563ff3b0b2a9aE+0xc8>
   14244: ff ff ff ea  	b	#-4 <_ZN17compiler_builtins3int19specialized_div_rem11u32_div_rem17hd87563ff3b0b2a9aE+0xa4>
   14248: 40 00 9d e5  	ldr	r0, [sp, #64]
   1424c: 58 00 8d e5  	str	r0, [sp, #88]
   14250: 50 00 9d e5  	ldr	r0, [sp, #80]
   14254: 58 10 9d e5  	ldr	r1, [sp, #88]
   14258: ac 00 8d e5  	str	r0, [sp, #172]
   1425c: b0 10 8d e5  	str	r1, [sp, #176]
   14260: 01 00 40 e0  	sub	r0, r0, r1
   14264: 3c 00 8d e5  	str	r0, [sp, #60]
   14268: 04 00 00 ea  	b	#16 <_ZN17compiler_builtins3int19specialized_div_rem11u32_div_rem17hd87563ff3b0b2a9aE+0xdc>
   1426c: 74 03 9f e5  	ldr	r0, [pc, #884]
   14270: 68 23 9f e5  	ldr	r2, [pc, #872]
   14274: 23 10 a0 e3  	mov	r1, #35
   14278: 0d df ff eb  	bl	#-33740 <_ZN4core9panicking5panic17h70f755644c6683e5E>
   1427c: fe de ff e7  	trap
   14280: 3c 00 9d e5  	ldr	r0, [sp, #60]
   14284: 50 00 8d e5  	str	r0, [sp, #80]
   14288: 54 00 9d e5  	ldr	r0, [sp, #84]
   1428c: 1f 20 00 e2  	and	r2, r0, #31
   14290: 01 10 a0 e3  	mov	r1, #1
   14294: 11 12 a0 e1  	lsl	r1, r1, r2
   14298: 38 10 8d e5  	str	r1, [sp, #56]
   1429c: 1f 10 e0 e3  	mvn	r1, #31
   142a0: 01 00 10 e1  	tst	r0, r1
   142a4: 07 00 00 1a  	bne	#28 <_ZN17compiler_builtins3int19specialized_div_rem11u32_div_rem17hd87563ff3b0b2a9aE+0x124>
   142a8: ff ff ff ea  	b	#-4 <_ZN17compiler_builtins3int19specialized_div_rem11u32_div_rem17hd87563ff3b0b2a9aE+0x108>
   142ac: 44 10 9d e5  	ldr	r1, [sp, #68]
   142b0: 38 00 9d e5  	ldr	r0, [sp, #56]
   142b4: 5c 00 8d e5  	str	r0, [sp, #92]
   142b8: 50 00 9d e5  	ldr	r0, [sp, #80]
   142bc: 01 00 50 e1  	cmp	r0, r1
   142c0: 09 00 00 3a  	blo	#36 <_ZN17compiler_builtins3int19specialized_div_rem11u32_div_rem17hd87563ff3b0b2a9aE+0x148>
   142c4: 04 00 00 ea  	b	#16 <_ZN17compiler_builtins3int19specialized_div_rem11u32_div_rem17hd87563ff3b0b2a9aE+0x138>
   142c8: 18 03 9f e5  	ldr	r0, [pc, #792]
   142cc: 0c 23 9f e5  	ldr	r2, [pc, #780]
   142d0: 23 10 a0 e3  	mov	r1, #35
   142d4: f6 de ff eb  	bl	#-33832 <_ZN4core9panicking5panic17h70f755644c6683e5E>
   142d8: fe de ff e7  	trap
   142dc: 58 00 9d e5  	ldr	r0, [sp, #88]
   142e0: 00 00 50 e3  	cmp	r0, #0
   142e4: 0b 00 00 4a  	bmi	#44 <_ZN17compiler_builtins3int19specialized_div_rem11u32_div_rem17hd87563ff3b0b2a9aE+0x174>
   142e8: 04 00 00 ea  	b	#16 <_ZN17compiler_builtins3int19specialized_div_rem11u32_div_rem17hd87563ff3b0b2a9aE+0x15c>
   142ec: 5c 10 9d e5  	ldr	r1, [sp, #92]
   142f0: 50 00 9d e5  	ldr	r0, [sp, #80]
   142f4: 48 10 8d e5  	str	r1, [sp, #72]
   142f8: 4c 00 8d e5  	str	r0, [sp, #76]
   142fc: c4 ff ff ea  	b	#-240 <_ZN17compiler_builtins3int19specialized_div_rem11u32_div_rem17hd87563ff3b0b2a9aE+0x70>
   14300: 5c 00 9d e5  	ldr	r0, [sp, #92]
   14304: 01 10 40 e2  	sub	r1, r0, #1
   14308: 34 10 8d e5  	str	r1, [sp, #52]
   1430c: 01 00 50 e3  	cmp	r0, #1
   14310: 56 00 00 3a  	blo	#344 <_ZN17compiler_builtins3int19specialized_div_rem11u32_div_rem17hd87563ff3b0b2a9aE+0x2cc>
   14314: 52 00 00 ea  	b	#328 <_ZN17compiler_builtins3int19specialized_div_rem11u32_div_rem17hd87563ff3b0b2a9aE+0x2c0>
   14318: 58 00 9d e5  	ldr	r0, [sp, #88]
   1431c: a0 00 a0 e1  	lsr	r0, r0, #1
   14320: 30 00 8d e5  	str	r0, [sp, #48]
   14324: ff ff ff ea  	b	#-4 <_ZN17compiler_builtins3int19specialized_div_rem11u32_div_rem17hd87563ff3b0b2a9aE+0x184>
   14328: 30 00 9d e5  	ldr	r0, [sp, #48]
   1432c: 58 00 8d e5  	str	r0, [sp, #88]
   14330: 54 00 9d e5  	ldr	r0, [sp, #84]
   14334: 01 10 40 e2  	sub	r1, r0, #1
   14338: 2c 10 8d e5  	str	r1, [sp, #44]
   1433c: 01 00 50 e3  	cmp	r0, #1
   14340: 0b 00 00 3a  	blo	#44 <_ZN17compiler_builtins3int19specialized_div_rem11u32_div_rem17hd87563ff3b0b2a9aE+0x1d0>
   14344: ff ff ff ea  	b	#-4 <_ZN17compiler_builtins3int19specialized_div_rem11u32_div_rem17hd87563ff3b0b2a9aE+0x1a4>
   14348: 2c 00 9d e5  	ldr	r0, [sp, #44]
   1434c: 54 00 8d e5  	str	r0, [sp, #84]
   14350: 54 00 9d e5  	ldr	r0, [sp, #84]
   14354: 1f 20 00 e2  	and	r2, r0, #31
   14358: 01 10 a0 e3  	mov	r1, #1
   1435c: 11 12 a0 e1  	lsl	r1, r1, r2
   14360: 28 10 8d e5  	str	r1, [sp, #40]
   14364: 1f 10 e0 e3  	mvn	r1, #31
   14368: 01 00 10 e1  	tst	r0, r1
   1436c: 0c 00 00 1a  	bne	#48 <_ZN17compiler_builtins3int19specialized_div_rem11u32_div_rem17hd87563ff3b0b2a9aE+0x200>
   14370: 04 00 00 ea  	b	#16 <_ZN17compiler_builtins3int19specialized_div_rem11u32_div_rem17hd87563ff3b0b2a9aE+0x1e4>
   14374: 60 02 9f e5  	ldr	r0, [pc, #608]
   14378: 60 22 9f e5  	ldr	r2, [pc, #608]
   1437c: 21 10 a0 e3  	mov	r1, #33
   14380: cb de ff eb  	bl	#-34004 <_ZN4core9panicking5panic17h70f755644c6683e5E>
   14384: fe de ff e7  	trap
   14388: 28 00 9d e5  	ldr	r0, [sp, #40]
   1438c: 74 00 8d e5  	str	r0, [sp, #116]
   14390: 01 10 40 e2  	sub	r1, r0, #1
   14394: 24 10 8d e5  	str	r1, [sp, #36]
   14398: 01 00 50 e3  	cmp	r0, #1
   1439c: 0f 00 00 3a  	blo	#60 <_ZN17compiler_builtins3int19specialized_div_rem11u32_div_rem17hd87563ff3b0b2a9aE+0x23c>
   143a0: 04 00 00 ea  	b	#16 <_ZN17compiler_builtins3int19specialized_div_rem11u32_div_rem17hd87563ff3b0b2a9aE+0x214>
   143a4: 3c 02 9f e5  	ldr	r0, [pc, #572]
   143a8: 30 22 9f e5  	ldr	r2, [pc, #560]
   143ac: 23 10 a0 e3  	mov	r1, #35
   143b0: bf de ff eb  	bl	#-34052 <_ZN4core9panicking5panic17h70f755644c6683e5E>
   143b4: fe de ff e7  	trap
   143b8: 24 00 9d e5  	ldr	r0, [sp, #36]
   143bc: 60 00 8d e5  	str	r0, [sp, #96]
   143c0: 50 00 9d e5  	ldr	r0, [sp, #80]
   143c4: 58 10 9d e5  	ldr	r1, [sp, #88]
   143c8: a4 00 8d e5  	str	r0, [sp, #164]
   143cc: a8 10 8d e5  	str	r1, [sp, #168]
   143d0: 01 00 40 e0  	sub	r0, r0, r1
   143d4: 20 00 8d e5  	str	r0, [sp, #32]
   143d8: 78 00 8d e5  	str	r0, [sp, #120]
   143dc: 04 00 00 ea  	b	#16 <_ZN17compiler_builtins3int19specialized_div_rem11u32_div_rem17hd87563ff3b0b2a9aE+0x250>
   143e0: f4 01 9f e5  	ldr	r0, [pc, #500]
   143e4: f4 21 9f e5  	ldr	r2, [pc, #500]
   143e8: 21 10 a0 e3  	mov	r1, #33
   143ec: b0 de ff eb  	bl	#-34112 <_ZN4core9panicking5panic17h70f755644c6683e5E>
   143f0: fe de ff e7  	trap
   143f4: 20 00 9d e5  	ldr	r0, [sp, #32]
   143f8: 01 00 70 e3  	cmn	r0, #1
   143fc: 05 00 00 ca  	bgt	#20 <_ZN17compiler_builtins3int19specialized_div_rem11u32_div_rem17hd87563ff3b0b2a9aE+0x274>
   14400: ff ff ff ea  	b	#-4 <_ZN17compiler_builtins3int19specialized_div_rem11u32_div_rem17hd87563ff3b0b2a9aE+0x260>
   14404: 44 10 9d e5  	ldr	r1, [sp, #68]
   14408: 50 00 9d e5  	ldr	r0, [sp, #80]
   1440c: 01 00 50 e1  	cmp	r0, r1
   14410: 0e 00 00 3a  	blo	#56 <_ZN17compiler_builtins3int19specialized_div_rem11u32_div_rem17hd87563ff3b0b2a9aE+0x2ac>
   14414: 06 00 00 ea  	b	#24 <_ZN17compiler_builtins3int19specialized_div_rem11u32_div_rem17hd87563ff3b0b2a9aE+0x290>
   14418: 28 10 9d e5  	ldr	r1, [sp, #40]
   1441c: 20 00 9d e5  	ldr	r0, [sp, #32]
   14420: 50 00 8d e5  	str	r0, [sp, #80]
   14424: 5c 00 9d e5  	ldr	r0, [sp, #92]
   14428: 01 00 80 e1  	orr	r0, r0, r1
   1442c: 5c 00 8d e5  	str	r0, [sp, #92]
   14430: f3 ff ff ea  	b	#-52 <_ZN17compiler_builtins3int19specialized_div_rem11u32_div_rem17hd87563ff3b0b2a9aE+0x260>
   14434: 58 00 9d e5  	ldr	r0, [sp, #88]
   14438: 9c 00 8d e5  	str	r0, [sp, #156]
   1443c: 01 10 a0 e3  	mov	r1, #1
   14440: a0 10 8d e5  	str	r1, [sp, #160]
   14444: 01 00 40 e2  	sub	r0, r0, #1
   14448: 1c 00 8d e5  	str	r0, [sp, #28]
   1444c: 0c 00 00 ea  	b	#48 <_ZN17compiler_builtins3int19specialized_div_rem11u32_div_rem17hd87563ff3b0b2a9aE+0x2e0>
   14450: 5c 10 9d e5  	ldr	r1, [sp, #92]
   14454: 50 00 9d e5  	ldr	r0, [sp, #80]
   14458: 48 10 8d e5  	str	r1, [sp, #72]
   1445c: 4c 00 8d e5  	str	r0, [sp, #76]
   14460: 6b ff ff ea  	b	#-596 <_ZN17compiler_builtins3int19specialized_div_rem11u32_div_rem17hd87563ff3b0b2a9aE+0x70>
   14464: 34 00 9d e5  	ldr	r0, [sp, #52]
   14468: 60 00 8d e5  	str	r0, [sp, #96]
   1446c: f0 ff ff ea  	b	#-64 <_ZN17compiler_builtins3int19specialized_div_rem11u32_div_rem17hd87563ff3b0b2a9aE+0x290>
   14470: 64 01 9f e5  	ldr	r0, [pc, #356]
   14474: 64 21 9f e5  	ldr	r2, [pc, #356]
   14478: 21 10 a0 e3  	mov	r1, #33
   1447c: 8c de ff eb  	bl	#-34256 <_ZN4core9panicking5panic17h70f755644c6683e5E>
   14480: fe de ff e7  	trap
   14484: 1c 00 9d e5  	ldr	r0, [sp, #28]
   14488: 58 00 8d e5  	str	r0, [sp, #88]
   1448c: 54 00 9d e5  	ldr	r0, [sp, #84]
   14490: 64 00 8d e5  	str	r0, [sp, #100]
   14494: ff ff ff ea  	b	#-4 <_ZN17compiler_builtins3int19specialized_div_rem11u32_div_rem17hd87563ff3b0b2a9aE+0x2f4>
   14498: 64 00 9d e5  	ldr	r0, [sp, #100]
   1449c: 00 00 50 e3  	cmp	r0, #0
   144a0: 0e 00 00 1a  	bne	#56 <_ZN17compiler_builtins3int19specialized_div_rem11u32_div_rem17hd87563ff3b0b2a9aE+0x33c>
   144a4: ff ff ff ea  	b	#-4 <_ZN17compiler_builtins3int19specialized_div_rem11u32_div_rem17hd87563ff3b0b2a9aE+0x304>
   144a8: 50 10 9d e5  	ldr	r1, [sp, #80]
   144ac: 60 00 9d e5  	ldr	r0, [sp, #96]
   144b0: 00 00 01 e0  	and	r0, r1, r0
   144b4: 5c 20 9d e5  	ldr	r2, [sp, #92]
   144b8: 02 00 80 e1  	orr	r0, r0, r2
   144bc: 14 00 8d e5  	str	r0, [sp, #20]
   144c0: 54 00 9d e5  	ldr	r0, [sp, #84]
   144c4: 1f 20 00 e2  	and	r2, r0, #31
   144c8: 31 12 a0 e1  	lsr	r1, r1, r2
   144cc: 18 10 8d e5  	str	r1, [sp, #24]
   144d0: 1f 10 e0 e3  	mvn	r1, #31
   144d4: 01 00 10 e1  	tst	r0, r1
   144d8: 3a 00 00 1a  	bne	#232 <_ZN17compiler_builtins3int19specialized_div_rem11u32_div_rem17hd87563ff3b0b2a9aE+0x424>
   144dc: 34 00 00 ea  	b	#208 <_ZN17compiler_builtins3int19specialized_div_rem11u32_div_rem17hd87563ff3b0b2a9aE+0x410>
   144e0: 64 00 9d e5  	ldr	r0, [sp, #100]
   144e4: 01 10 40 e2  	sub	r1, r0, #1
   144e8: 10 10 8d e5  	str	r1, [sp, #16]
   144ec: 01 00 50 e3  	cmp	r0, #1
   144f0: 0b 00 00 3a  	blo	#44 <_ZN17compiler_builtins3int19specialized_div_rem11u32_div_rem17hd87563ff3b0b2a9aE+0x380>
   144f4: ff ff ff ea  	b	#-4 <_ZN17compiler_builtins3int19specialized_div_rem11u32_div_rem17hd87563ff3b0b2a9aE+0x354>
   144f8: 10 00 9d e5  	ldr	r0, [sp, #16]
   144fc: 64 00 8d e5  	str	r0, [sp, #100]
   14500: 50 00 9d e5  	ldr	r0, [sp, #80]
   14504: b4 00 8d e5  	str	r0, [sp, #180]
   14508: 01 10 a0 e3  	mov	r1, #1
   1450c: b8 10 8d e5  	str	r1, [sp, #184]
   14510: 80 00 a0 e1  	lsl	r0, r0, #1
   14514: bc 00 8d e5  	str	r0, [sp, #188]
   14518: bc 00 9d e5  	ldr	r0, [sp, #188]
   1451c: 0c 00 8d e5  	str	r0, [sp, #12]
   14520: 04 00 00 ea  	b	#16 <_ZN17compiler_builtins3int19specialized_div_rem11u32_div_rem17hd87563ff3b0b2a9aE+0x394>
   14524: b0 00 9f e5  	ldr	r0, [pc, #176]
   14528: b0 20 9f e5  	ldr	r2, [pc, #176]
   1452c: 21 10 a0 e3  	mov	r1, #33
   14530: 5f de ff eb  	bl	#-34436 <_ZN4core9panicking5panic17h70f755644c6683e5E>
   14534: fe de ff e7  	trap
   14538: 0c 00 9d e5  	ldr	r0, [sp, #12]
   1453c: 58 10 9d e5  	ldr	r1, [sp, #88]
   14540: 94 00 8d e5  	str	r0, [sp, #148]
   14544: 98 10 8d e5  	str	r1, [sp, #152]
   14548: 01 00 40 e0  	sub	r0, r0, r1
   1454c: 08 00 8d e5  	str	r0, [sp, #8]
   14550: ff ff ff ea  	b	#-4 <_ZN17compiler_builtins3int19specialized_div_rem11u32_div_rem17hd87563ff3b0b2a9aE+0x3b0>
   14554: 08 00 9d e5  	ldr	r0, [sp, #8]
   14558: 50 00 8d e5  	str	r0, [sp, #80]
   1455c: 50 00 9d e5  	ldr	r0, [sp, #80]
   14560: 80 00 8d e5  	str	r0, [sp, #128]
   14564: 1f 10 a0 e3  	mov	r1, #31
   14568: 84 10 8d e5  	str	r1, [sp, #132]
   1456c: c0 0f a0 e1  	asr	r0, r0, #31
   14570: 88 00 8d e5  	str	r0, [sp, #136]
   14574: 88 00 9d e5  	ldr	r0, [sp, #136]
   14578: 04 00 8d e5  	str	r0, [sp, #4]
   1457c: ff ff ff ea  	b	#-4 <_ZN17compiler_builtins3int19specialized_div_rem11u32_div_rem17hd87563ff3b0b2a9aE+0x3dc>
   14580: 04 20 9d e5  	ldr	r2, [sp, #4]
   14584: 7c 20 8d e5  	str	r2, [sp, #124]
   14588: 50 00 9d e5  	ldr	r0, [sp, #80]
   1458c: 58 10 9d e5  	ldr	r1, [sp, #88]
   14590: 02 10 01 e0  	and	r1, r1, r2
   14594: 8c 00 8d e5  	str	r0, [sp, #140]
   14598: 90 10 8d e5  	str	r1, [sp, #144]
   1459c: 01 00 80 e0  	add	r0, r0, r1
   145a0: 00 00 8d e5  	str	r0, [sp]
   145a4: ff ff ff ea  	b	#-4 <_ZN17compiler_builtins3int19specialized_div_rem11u32_div_rem17hd87563ff3b0b2a9aE+0x404>
   145a8: 00 00 9d e5  	ldr	r0, [sp]
   145ac: 50 00 8d e5  	str	r0, [sp, #80]
   145b0: b8 ff ff ea  	b	#-288 <_ZN17compiler_builtins3int19specialized_div_rem11u32_div_rem17hd87563ff3b0b2a9aE+0x2f4>
   145b4: 18 00 9d e5  	ldr	r0, [sp, #24]
   145b8: 14 10 9d e5  	ldr	r1, [sp, #20]
   145bc: 48 10 8d e5  	str	r1, [sp, #72]
   145c0: 4c 00 8d e5  	str	r0, [sp, #76]
   145c4: 12 ff ff ea  	b	#-952 <_ZN17compiler_builtins3int19specialized_div_rem11u32_div_rem17hd87563ff3b0b2a9aE+0x70>
   145c8: 14 00 9f e5  	ldr	r0, [pc, #20]
   145cc: 0c 20 9f e5  	ldr	r2, [pc, #12]
   145d0: 24 10 a0 e3  	mov	r1, #36
   145d4: 36 de ff eb  	bl	#-34600 <_ZN4core9panicking5panic17h70f755644c6683e5E>
   145d8: fe de ff e7  	trap

000145dc <$d.405>:
   145dc:	40 67 01 00	.word	0x00016740
   145e0:	14 6a 01 00	.word	0x00016a14
   145e4:	d0 67 01 00	.word	0x000167d0
   145e8:	a0 67 01 00	.word	0x000167a0

000145ec <_ZN17compiler_builtins3int4udiv9__udivsi317h54b52e769a6ea9c3E>:
   145ec: 00 48 2d e9  	push	{r11, lr}
   145f0: 10 d0 4d e2  	sub	sp, sp, #16
   145f4: 08 00 8d e5  	str	r0, [sp, #8]
   145f8: 0c 10 8d e5  	str	r1, [sp, #12]
   145fc: e8 fe ff eb  	bl	#-1120 <_ZN17compiler_builtins3int19specialized_div_rem11u32_div_rem17hd87563ff3b0b2a9aE>
   14600: 04 00 8d e5  	str	r0, [sp, #4]
   14604: ff ff ff ea  	b	#-4 <_ZN17compiler_builtins3int4udiv9__udivsi317h54b52e769a6ea9c3E+0x1c>
   14608: 04 00 9d e5  	ldr	r0, [sp, #4]
   1460c: 10 d0 8d e2  	add	sp, sp, #16
   14610: 00 88 bd e8  	pop	{r11, pc}

00014614 <__aeabi_uidiv>:
   14614: 00 48 2d e9  	push	{r11, lr}
   14618: 10 d0 4d e2  	sub	sp, sp, #16
   1461c: 08 00 8d e5  	str	r0, [sp, #8]
   14620: 0c 10 8d e5  	str	r1, [sp, #12]
   14624: f0 ff ff eb  	bl	#-64 <_ZN17compiler_builtins3int4udiv9__udivsi317h54b52e769a6ea9c3E>
   14628: 04 00 8d e5  	str	r0, [sp, #4]
   1462c: ff ff ff ea  	b	#-4 <__aeabi_uidiv+0x1c>
   14630: 04 00 9d e5  	ldr	r0, [sp, #4]
   14634: 10 d0 8d e2  	add	sp, sp, #16
   14638: 00 88 bd e8  	pop	{r11, pc}

0001463c <_ZN17compiler_builtins3int4udiv12__udivmodsi417h365cb561a3167aa7E>:
   1463c: 00 48 2d e9  	push	{r11, lr}
   14640: 20 d0 4d e2  	sub	sp, sp, #32
   14644: 08 20 8d e5  	str	r2, [sp, #8]
   14648: 0c 00 8d e5  	str	r0, [sp, #12]
   1464c: 10 10 8d e5  	str	r1, [sp, #16]
   14650: d3 fe ff eb  	bl	#-1204 <_ZN17compiler_builtins3int19specialized_div_rem11u32_div_rem17hd87563ff3b0b2a9aE>
   14654: 00 20 a0 e1  	mov	r2, r0
   14658: 00 20 8d e5  	str	r2, [sp]
   1465c: 01 20 a0 e1  	mov	r2, r1
   14660: 04 20 8d e5  	str	r2, [sp, #4]
   14664: 14 00 8d e5  	str	r0, [sp, #20]
   14668: 18 10 8d e5  	str	r1, [sp, #24]
   1466c: ff ff ff ea  	b	#-4 <_ZN17compiler_builtins3int4udiv12__udivmodsi417h365cb561a3167aa7E+0x34>
   14670: 08 00 9d e5  	ldr	r0, [sp, #8]
   14674: 00 00 50 e3  	cmp	r0, #0
   14678: 05 00 00 0a  	beq	#20 <_ZN17compiler_builtins3int4udiv12__udivmodsi417h365cb561a3167aa7E+0x58>
   1467c: ff ff ff ea  	b	#-4 <_ZN17compiler_builtins3int4udiv12__udivmodsi417h365cb561a3167aa7E+0x44>
   14680: 04 00 9d e5  	ldr	r0, [sp, #4]
   14684: 08 10 9d e5  	ldr	r1, [sp, #8]
   14688: 1c 10 8d e5  	str	r1, [sp, #28]
   1468c: 00 00 81 e5  	str	r0, [r1]
   14690: ff ff ff ea  	b	#-4 <_ZN17compiler_builtins3int4udiv12__udivmodsi417h365cb561a3167aa7E+0x58>
   14694: 00 00 9d e5  	ldr	r0, [sp]
   14698: 20 d0 8d e2  	add	sp, sp, #32
   1469c: 00 88 bd e8  	pop	{r11, pc}

000146a0 <__udivmodsi4>:
   146a0: 00 48 2d e9  	push	{r11, lr}
   146a4: 10 d0 4d e2  	sub	sp, sp, #16
   146a8: 04 00 8d e5  	str	r0, [sp, #4]
   146ac: 08 10 8d e5  	str	r1, [sp, #8]
   146b0: 0c 20 8d e5  	str	r2, [sp, #12]
   146b4: e0 ff ff eb  	bl	#-128 <_ZN17compiler_builtins3int4udiv12__udivmodsi417h365cb561a3167aa7E>
   146b8: 00 00 8d e5  	str	r0, [sp]
   146bc: ff ff ff ea  	b	#-4 <__udivmodsi4+0x20>
   146c0: 00 00 9d e5  	ldr	r0, [sp]
   146c4: 10 d0 8d e2  	add	sp, sp, #16
   146c8: 00 88 bd e8  	pop	{r11, pc}
